

Microchip MPLAB XC8 Assembler V2.45 build 20230818022343 
                                                                                               Wed May 22 23:37:04 2024

Microchip MPLAB XC8 C Compiler v2.45 (Free license) build 20230818022343 Og1 
     1                           	processor	16F877A
     2                           	pagewidth 120
     3                           	opt	flic
     4                           	psect	idataBANK0,global,class=CODE,delta=2,noexec
     5                           	psect	strings,global,class=STRING,delta=2,noexec
     6                           	psect	cinit,global,class=CODE,merge=1,delta=2
     7                           	psect	bssBANK0,global,class=BANK0,space=1,delta=1,noexec
     8                           	psect	dataBANK0,global,class=BANK0,space=1,delta=1,noexec
     9                           	psect	cstackBANK1,global,class=BANK1,space=1,delta=1,noexec
    10                           	psect	cstackCOMMON,global,class=COMMON,space=1,delta=1,noexec
    11                           	psect	cstackBANK0,global,class=BANK0,space=1,delta=1,noexec
    12                           	psect	maintext,global,class=CODE,split=1,delta=2
    13                           	psect	text1,local,class=CODE,merge=1,delta=2
    14                           	psect	text2,local,class=CODE,merge=1,delta=2
    15                           	psect	text3,local,class=CODE,merge=1,delta=2
    16                           	psect	text4,local,class=CODE,merge=1,delta=2
    17                           	psect	text5,local,class=CODE,merge=1,delta=2,group=1
    18                           	psect	text6,local,class=CODE,merge=1,delta=2,group=1
    19                           	psect	text7,local,class=CODE,merge=1,delta=2
    20                           	psect	text8,local,class=CODE,merge=1,delta=2
    21                           	psect	intentry,global,class=CODE,delta=2
    22                           	psect	text9,local,class=CODE,merge=1,delta=2,group=1
    23                           	psect	text10,local,class=CODE,merge=1,delta=2,group=1
    24                           	psect	text11,local,class=CODE,merge=1,delta=2,group=1
    25                           	psect	text12,local,class=CODE,merge=1,delta=2,group=1
    26                           	psect	config,global,abs,ovrld,class=CONFIG,space=4,delta=2,noexec
    27                           	dabs	1,0x7E,2
    28     0000                     
    29                           ; Generated 22/03/2023 GMT
    30                           ; 
    31                           ; Copyright © 2023, Microchip Technology Inc. and its subsidiaries ("Microchip")
    32                           ; All rights reserved.
    33                           ; 
    34                           ; This software is developed by Microchip Technology Inc. and its subsidiaries ("Microch
      +                          ip").
    35                           ; 
    36                           ; Redistribution and use in source and binary forms, with or without modification, are
    37                           ; permitted provided that the following conditions are met:
    38                           ; 
    39                           ;     1. Redistributions of source code must retain the above copyright notice, this lis
      +                          t of
    40                           ;        conditions and the following disclaimer.
    41                           ; 
    42                           ;     2. Redistributions in binary form must reproduce the above copyright notice, this 
      +                          list
    43                           ;        of conditions and the following disclaimer in the documentation and/or other
    44                           ;        materials provided with the distribution. Publication is not required when
    45                           ;        this file is used in an embedded application.
    46                           ; 
    47                           ;     3. Microchip's name may not be used to endorse or promote products derived from th
      +                          is
    48                           ;        software without specific prior written permission.
    49                           ; 
    50                           ; THIS SOFTWARE IS PROVIDED BY MICROCHIP "AS IS" AND ANY EXPRESS OR IMPLIED WARRANTIES,
    51                           ; INCLUDING, BUT NOT LIMITED TO, THE IMPLIED WARRANTIES OF MERCHANTABILITY AND FITNESS F
      +                          OR
    52                           ; PURPOSE ARE DISCLAIMED.  IN NO EVENT SHALL MICROCHIP BE LIABLE FOR ANY DIRECT, INDIREC
      +                          T,
    53                           ; INCIDENTAL, SPECIAL, EXEMPLARY, OR CONSEQUENTIAL DAMAGES (INCLUDING BUT NOT LIMITED TO
    54                           ; PROCUREMENT OF SUBSTITUTE GOODS OR SERVICES; LOSS OF USE, DATA OR PROFITS; OR BUSINESS
    55                           ; INTERRUPTION) HOWSOEVER CAUSED AND ON ANY THEORY OF LIABILITY, WHETHER IN CONTRACT, ST
      +                          RICT
    56                           ; LIABILITY, OR TORT (INCLUDING NEGLIGENCE OR OTHERWISE) ARISING IN ANY WAY OUT OF THE U
      +                          SE OF
    57                           ; THIS SOFTWARE, EVEN IF ADVISED OF THE POSSIBILITY OF SUCH DAMAGE.
    58                           ; 
    59                           ; 
    60                           ; Code-generator required, PIC16F877A Definitions
    61                           ; 
    62                           ; SFR Addresses
    63     0000                     	;# 
    64     0001                     	;# 
    65     0002                     	;# 
    66     0003                     	;# 
    67     0004                     	;# 
    68     0005                     	;# 
    69     0006                     	;# 
    70     0007                     	;# 
    71     0008                     	;# 
    72     0009                     	;# 
    73     000A                     	;# 
    74     000B                     	;# 
    75     000C                     	;# 
    76     000D                     	;# 
    77     000E                     	;# 
    78     000E                     	;# 
    79     000F                     	;# 
    80     0010                     	;# 
    81     0011                     	;# 
    82     0012                     	;# 
    83     0013                     	;# 
    84     0014                     	;# 
    85     0015                     	;# 
    86     0015                     	;# 
    87     0016                     	;# 
    88     0017                     	;# 
    89     0018                     	;# 
    90     0019                     	;# 
    91     001A                     	;# 
    92     001B                     	;# 
    93     001B                     	;# 
    94     001C                     	;# 
    95     001D                     	;# 
    96     001E                     	;# 
    97     001F                     	;# 
    98     0081                     	;# 
    99     0085                     	;# 
   100     0086                     	;# 
   101     0087                     	;# 
   102     0088                     	;# 
   103     0089                     	;# 
   104     008C                     	;# 
   105     008D                     	;# 
   106     008E                     	;# 
   107     0091                     	;# 
   108     0092                     	;# 
   109     0093                     	;# 
   110     0094                     	;# 
   111     0098                     	;# 
   112     0099                     	;# 
   113     009C                     	;# 
   114     009D                     	;# 
   115     009E                     	;# 
   116     009F                     	;# 
   117     010C                     	;# 
   118     010D                     	;# 
   119     010E                     	;# 
   120     010F                     	;# 
   121     018C                     	;# 
   122     018D                     	;# 
   123     0000                     	;# 
   124     0001                     	;# 
   125     0002                     	;# 
   126     0003                     	;# 
   127     0004                     	;# 
   128     0005                     	;# 
   129     0006                     	;# 
   130     0007                     	;# 
   131     0008                     	;# 
   132     0009                     	;# 
   133     000A                     	;# 
   134     000B                     	;# 
   135     000C                     	;# 
   136     000D                     	;# 
   137     000E                     	;# 
   138     000E                     	;# 
   139     000F                     	;# 
   140     0010                     	;# 
   141     0011                     	;# 
   142     0012                     	;# 
   143     0013                     	;# 
   144     0014                     	;# 
   145     0015                     	;# 
   146     0015                     	;# 
   147     0016                     	;# 
   148     0017                     	;# 
   149     0018                     	;# 
   150     0019                     	;# 
   151     001A                     	;# 
   152     001B                     	;# 
   153     001B                     	;# 
   154     001C                     	;# 
   155     001D                     	;# 
   156     001E                     	;# 
   157     001F                     	;# 
   158     0081                     	;# 
   159     0085                     	;# 
   160     0086                     	;# 
   161     0087                     	;# 
   162     0088                     	;# 
   163     0089                     	;# 
   164     008C                     	;# 
   165     008D                     	;# 
   166     008E                     	;# 
   167     0091                     	;# 
   168     0092                     	;# 
   169     0093                     	;# 
   170     0094                     	;# 
   171     0098                     	;# 
   172     0099                     	;# 
   173     009C                     	;# 
   174     009D                     	;# 
   175     009E                     	;# 
   176     009F                     	;# 
   177     010C                     	;# 
   178     010D                     	;# 
   179     010E                     	;# 
   180     010F                     	;# 
   181     018C                     	;# 
   182     018D                     	;# 
   183                           
   184                           	psect	idataBANK0
   185     07F7                     __pidataBANK0:
   186                           
   187                           ;initializer for _colors
   188     07F7  3412               	retlw	low ((STR_1-__stringbase)| (0+32768))
   189     07F8  341E               	retlw	low ((STR_2-__stringbase)| (0+32768))
   190     07F9  3423               	retlw	low ((STR_3-__stringbase)| (0+32768))
   191     07FA  3418               	retlw	low ((STR_4-__stringbase)| (0+32768))
   192     001E                     _ADRESH	set	30
   193     000C                     _PIR1bits	set	12
   194     0008                     _PORTD	set	8
   195     0007                     _PORTCbits	set	7
   196     0006                     _PORTBbits	set	6
   197     001F                     _ADCON0bits	set	31
   198     001F                     _ADCON0	set	31
   199     000B                     _INTCON	set	11
   200     009E                     _ADRESL	set	158
   201     0087                     _TRISCbits	set	135
   202     0088                     _TRISD	set	136
   203     0086                     _TRISBbits	set	134
   204     008C                     _PIE1bits	set	140
   205     009F                     _ADCON1	set	159
   206     0081                     _OPTION_REG	set	129
   207                           
   208                           	psect	strings
   209     079A                     __pstrings:
   210     079A                     stringtab:
   211     079A                     __stringtab:
   212     079A                     stringcode:	
   213                           ;	String table - string pointers are 1 byte each
   214                           
   215     079A                     stringdir:
   216     079A  3007               	movlw	high stringdir
   217     079B  008A               	movwf	10
   218     079C  0804               	movf	4,w
   219     079D  0A84               	incf	4,f
   220     079E  0782               	addwf	2,f
   221     079F                     __stringbase:
   222     079F  3400               	retlw	0
   223     07A0                     __end_of__stringtab:
   224     07A0                     STR_6:
   225     07A0  344E               	retlw	78	;'N'
   226     07A1  3475               	retlw	117	;'u'
   227     07A2  346D               	retlw	109	;'m'
   228     07A3  3462               	retlw	98	;'b'
   229     07A4  3465               	retlw	101	;'e'
   230     07A5  3472               	retlw	114	;'r'
   231     07A6  343A               	retlw	58	;':'
   232     07A7  3420               	retlw	32	;' '
   233     07A8  3400               	retlw	0
   234     07A9                     STR_5:
   235     07A9  3443               	retlw	67	;'C'
   236     07AA  346F               	retlw	111	;'o'
   237     07AB  346C               	retlw	108	;'l'
   238     07AC  346F               	retlw	111	;'o'
   239     07AD  3472               	retlw	114	;'r'
   240     07AE  343A               	retlw	58	;':'
   241     07AF  3420               	retlw	32	;' '
   242     07B0  3400               	retlw	0
   243     07B1                     STR_1:
   244     07B1  3457               	retlw	87	;'W'
   245     07B2  3468               	retlw	104	;'h'
   246     07B3  3469               	retlw	105	;'i'
   247     07B4  3474               	retlw	116	;'t'
   248     07B5  3465               	retlw	101	;'e'
   249     07B6  3400               	retlw	0
   250     07B7                     STR_4:
   251     07B7  3442               	retlw	66	;'B'
   252     07B8  346C               	retlw	108	;'l'
   253     07B9  3461               	retlw	97	;'a'
   254     07BA  3463               	retlw	99	;'c'
   255     07BB  346B               	retlw	107	;'k'
   256     07BC  3400               	retlw	0
   257     07BD                     STR_2:
   258     07BD  3452               	retlw	82	;'R'
   259     07BE  346F               	retlw	111	;'o'
   260     07BF  3473               	retlw	115	;'s'
   261     07C0  3465               	retlw	101	;'e'
   262     07C1  3400               	retlw	0
   263     07C2                     STR_3:
   264     07C2  3442               	retlw	66	;'B'
   265     07C3  346C               	retlw	108	;'l'
   266     07C4  3475               	retlw	117	;'u'
   267     07C5  3465               	retlw	101	;'e'
   268     07C6  3400               	retlw	0
   269                           
   270                           	psect	cinit
   271     0013                     start_initialization:	
   272                           ; #config settings
   273                           
   274     0013                     __initialization:
   275                           
   276                           ; Initialize objects allocated to BANK0
   277     0013  120A  118A  27F7  120A  118A  	fcall	__pidataBANK0	;fetch initializer
   278     0018  00CF               	movwf	__pdataBANK0& (0+127)
   279     0019  120A  118A  27F8  120A  118A  	fcall	__pidataBANK0+1	;fetch initializer
   280     001E  00D0               	movwf	(__pdataBANK0+1)& (0+127)
   281     001F  120A  118A  27F9  120A  118A  	fcall	__pidataBANK0+2	;fetch initializer
   282     0024  00D1               	movwf	(__pdataBANK0+2)& (0+127)
   283     0025  120A  118A  27FA  120A  118A  	fcall	__pidataBANK0+3	;fetch initializer
   284     002A  00D2               	movwf	(__pdataBANK0+3)& (0+127)
   285                           
   286                           ; Clear objects allocated to BANK0
   287     002B  01C0               	clrf	__pbssBANK0& (0+127)
   288     002C  01C1               	clrf	(__pbssBANK0+1)& (0+127)
   289     002D  01C2               	clrf	(__pbssBANK0+2)& (0+127)
   290     002E  01C3               	clrf	(__pbssBANK0+3)& (0+127)
   291     002F  01C4               	clrf	(__pbssBANK0+4)& (0+127)
   292     0030  01C5               	clrf	(__pbssBANK0+5)& (0+127)
   293     0031  01C6               	clrf	(__pbssBANK0+6)& (0+127)
   294     0032  01C7               	clrf	(__pbssBANK0+7)& (0+127)
   295     0033  01C8               	clrf	(__pbssBANK0+8)& (0+127)
   296     0034  01C9               	clrf	(__pbssBANK0+9)& (0+127)
   297     0035  01CA               	clrf	(__pbssBANK0+10)& (0+127)
   298     0036  01CB               	clrf	(__pbssBANK0+11)& (0+127)
   299     0037  01CC               	clrf	(__pbssBANK0+12)& (0+127)
   300     0038  01CD               	clrf	(__pbssBANK0+13)& (0+127)
   301     0039  01CE               	clrf	(__pbssBANK0+14)& (0+127)
   302     003A                     end_of_initialization:	
   303                           ;End of C runtime variable initialization code
   304                           
   305     003A                     __end_of__initialization:
   306     003A  0183               	clrf	3
   307     003B  120A  118A  2C78   	ljmp	_main	;jump to C main() function
   308                           
   309                           	psect	bssBANK0
   310     0040                     __pbssBANK0:
   311     0040                     _numbers:
   312     0040                     	ds	8
   313     0048                     _tension:
   314     0048                     	ds	4
   315     004C                     _colorIndex:
   316     004C                     	ds	1
   317     004D                     _valeurADC:
   318     004D                     	ds	2
   319                           
   320                           	psect	dataBANK0
   321     004F                     __pdataBANK0:
   322     004F                     _colors:
   323     004F                     	ds	4
   324                           
   325                           	psect	cstackBANK1
   326     00A0                     __pcstackBANK1:
   327     00A0                     ?___awdiv:
   328     00A0                     ?___awmod:	
   329                           ; 2 bytes @ 0x0
   330                           
   331     00A0                     lcd_string@str:	
   332                           ; 2 bytes @ 0x0
   333                           
   334     00A0                     ___awdiv@divisor:	
   335                           ; 1 bytes @ 0x0
   336                           
   337     00A0                     ___awmod@divisor:	
   338                           ; 2 bytes @ 0x0
   339                           
   340                           
   341                           ; 2 bytes @ 0x0
   342     00A0                     	ds	2
   343     00A2                     ___awdiv@dividend:
   344     00A2                     ___awmod@dividend:	
   345                           ; 2 bytes @ 0x2
   346                           
   347                           
   348                           ; 2 bytes @ 0x2
   349     00A2                     	ds	2
   350     00A4                     ___awdiv@counter:
   351                           
   352                           ; 1 bytes @ 0x4
   353     00A4                     	ds	1
   354     00A5                     ___awdiv@sign:
   355                           
   356                           ; 1 bytes @ 0x5
   357     00A5                     	ds	1
   358     00A6                     ___awdiv@quotient:
   359                           
   360                           ; 2 bytes @ 0x6
   361     00A6                     	ds	2
   362     00A8                     ??_main:
   363                           
   364                           ; 1 bytes @ 0x8
   365     00A8                     	ds	6
   366     00AE                     main@a:
   367                           
   368                           ; 2 bytes @ 0xE
   369     00AE                     	ds	2
   370     00B0                     main@b:
   371                           
   372                           ; 2 bytes @ 0x10
   373     00B0                     	ds	2
   374                           
   375                           	psect	cstackCOMMON
   376     0070                     __pcstackCOMMON:
   377     0070                     ?___flge:
   378     0070                     ?_lcd_initialize:	
   379                           ; 1 bit 
   380                           
   381     0070                     ?_ADC_Init:	
   382                           ; 1 bytes @ 0x0
   383                           
   384     0070                     ?_lcd_command:	
   385                           ; 1 bytes @ 0x0
   386                           
   387     0070                     ?_lcd_string:	
   388                           ; 1 bytes @ 0x0
   389                           
   390     0070                     ?_lcd_data:	
   391                           ; 1 bytes @ 0x0
   392                           
   393     0070                     ?_main:	
   394                           ; 1 bytes @ 0x0
   395                           
   396     0070                     ?_InterruptRoutine:	
   397                           ; 1 bytes @ 0x0
   398                           
   399     0070                     ?__Umul8_16:	
   400                           ; 1 bytes @ 0x0
   401                           
   402     0070                     ?___xxtofl:	
   403                           ; 2 bytes @ 0x0
   404                           
   405     0070                     __Umul8_16@multiplicand:	
   406                           ; 4 bytes @ 0x0
   407                           
   408     0070                     ___flge@ff1:	
   409                           ; 1 bytes @ 0x0
   410                           
   411     0070                     ___xxtofl@val:	
   412                           ; 4 bytes @ 0x0
   413                           
   414                           
   415                           ; 4 bytes @ 0x0
   416     0070                     	ds	2
   417     0072                     ??__Umul8_16:
   418                           
   419                           ; 1 bytes @ 0x2
   420     0072                     	ds	2
   421     0074                     ??___xxtofl:
   422     0074                     __Umul8_16@product:	
   423                           ; 1 bytes @ 0x4
   424                           
   425     0074                     ___flge@ff2:	
   426                           ; 2 bytes @ 0x4
   427                           
   428                           
   429                           ; 4 bytes @ 0x4
   430     0074                     	ds	2
   431     0076                     __Umul8_16@word_mpld:
   432                           
   433                           ; 2 bytes @ 0x6
   434     0076                     	ds	2
   435     0078                     ??___flge:
   436     0078                     __Umul8_16@multiplier:	
   437                           ; 1 bytes @ 0x8
   438                           
   439     0078                     ___xxtofl@sign:	
   440                           ; 1 bytes @ 0x8
   441                           
   442                           
   443                           ; 1 bytes @ 0x8
   444     0078                     	ds	1
   445     0079                     ___xxtofl@exp:
   446                           
   447                           ; 1 bytes @ 0x9
   448     0079                     	ds	1
   449     007A                     ___xxtofl@arg:
   450                           
   451                           ; 4 bytes @ 0xA
   452     007A                     	ds	4
   453                           
   454                           	psect	cstackBANK0
   455     0020                     __pcstackBANK0:
   456     0020                     ?___flmul:
   457     0020                     ___flmul@b:	
   458                           ; 4 bytes @ 0x0
   459                           
   460                           
   461                           ; 4 bytes @ 0x0
   462     0020                     	ds	4
   463     0024                     ___flmul@a:
   464                           
   465                           ; 4 bytes @ 0x4
   466     0024                     	ds	4
   467     0028                     ??___flmul:
   468                           
   469                           ; 1 bytes @ 0x8
   470     0028                     	ds	5
   471     002D                     ___flmul@sign:
   472                           
   473                           ; 1 bytes @ 0xD
   474     002D                     	ds	1
   475     002E                     ___flmul@grs:
   476                           
   477                           ; 4 bytes @ 0xE
   478     002E                     	ds	4
   479     0032                     ___flmul@aexp:
   480                           
   481                           ; 1 bytes @ 0x12
   482     0032                     	ds	1
   483     0033                     ___flmul@bexp:
   484                           
   485                           ; 1 bytes @ 0x13
   486     0033                     	ds	1
   487     0034                     ___flmul@prod:
   488                           
   489                           ; 4 bytes @ 0x14
   490     0034                     	ds	4
   491     0038                     ___flmul@temp:
   492                           
   493                           ; 2 bytes @ 0x18
   494     0038                     	ds	2
   495     003A                     ??_InterruptRoutine:
   496                           
   497                           ; 1 bytes @ 0x1A
   498     003A                     	ds	3
   499     003D                     ??_ADC_Init:
   500     003D                     ??_lcd_command:	
   501                           ; 1 bytes @ 0x1D
   502                           
   503     003D                     ??_lcd_data:	
   504                           ; 1 bytes @ 0x1D
   505                           
   506     003D                     ??___awdiv:	
   507                           ; 1 bytes @ 0x1D
   508                           
   509     003D                     ??___awmod:	
   510                           ; 1 bytes @ 0x1D
   511                           
   512     003D                     ___awmod@counter:	
   513                           ; 1 bytes @ 0x1D
   514                           
   515                           
   516                           ; 1 bytes @ 0x1D
   517     003D                     	ds	1
   518     003E                     ___awmod@sign:
   519                           
   520                           ; 1 bytes @ 0x1E
   521     003E                     	ds	1
   522     003F                     lcd_data@data:
   523     003F                     lcd_command@cmd:	
   524                           ; 1 bytes @ 0x1F
   525                           
   526                           
   527                           ; 1 bytes @ 0x1F
   528     003F                     	ds	1
   529     0040                     ??_lcd_initialize:
   530     0040                     ??_lcd_string:	
   531                           ; 1 bytes @ 0x20
   532                           
   533                           
   534                           	psect	maintext
   535     0478                     __pmaintext:	
   536                           ; 1 bytes @ 0x20
   537 ;;
   538 ;;Main: autosize = 0, tempsize = 6, incstack = 0, save=0
   539 ;;
   540 ;; *************** function _main *****************
   541 ;; Defined at:
   542 ;;		line 31 in file "main.c"
   543 ;; Parameters:    Size  Location     Type
   544 ;;		None
   545 ;; Auto vars:     Size  Location     Type
   546 ;;  b               2   16[BANK1 ] int 
   547 ;;  a               2   14[BANK1 ] int 
   548 ;; Return value:  Size  Location     Type
   549 ;;                  1    wreg      void 
   550 ;; Registers used:
   551 ;;		wreg, fsr0l, fsr0h, status,2, status,0, btemp+1, pclath, cstack
   552 ;; Tracked objects:
   553 ;;		On entry : B00/0
   554 ;;		On exit  : 0/0
   555 ;;		Unchanged: 0/0
   556 ;; Data sizes:     COMMON   BANK0   BANK1   BANK3   BANK2
   557 ;;      Params:         0       0       0       0       0
   558 ;;      Locals:         0       0       4       0       0
   559 ;;      Temps:          0       0       6       0       0
   560 ;;      Totals:         0       0      10       0       0
   561 ;;Total ram usage:       10 bytes
   562 ;; Hardware stack levels required when called: 5
   563 ;; This function calls:
   564 ;;		_ADC_Init
   565 ;;		___awdiv
   566 ;;		___awmod
   567 ;;		_lcd_command
   568 ;;		_lcd_data
   569 ;;		_lcd_initialize
   570 ;;		_lcd_string
   571 ;; This function is called by:
   572 ;;		Startup code after reset
   573 ;; This function uses a non-reentrant model
   574 ;;
   575                           
   576     0478                     _main:	
   577                           ;psect for function _main
   578                           
   579     0478                     l1561:	
   580                           ;incstack = 0
   581                           ; Regs used in _main: [wreg-fsr0h+status,2+status,0+btemp+1+pclath+cstack]
   582                           
   583                           
   584                           ;main.c: 32: 
   585     0478  3040               	movlw	64
   586     0479  1683               	bsf	3,5	;RP0=1, select bank1
   587     047A  1303               	bcf	3,6	;RP1=0, select bank1
   588     047B  0081               	movwf	1	;volatile
   589                           
   590                           ;main.c: 33:     while (1) {
   591     047C  30D0               	movlw	208
   592     047D  008B               	movwf	11	;volatile
   593                           
   594                           ;main.c: 34:         ADCON0bits.GO = 1;
   595     047E  30C1               	movlw	193
   596     047F  1283               	bcf	3,5	;RP0=0, select bank0
   597     0480  1303               	bcf	3,6	;RP1=0, select bank0
   598     0481  009F               	movwf	31	;volatile
   599                           
   600                           ;main.c: 35:         while (ADCON0bits.GO_nDONE);
   601     0482  308E               	movlw	142
   602     0483  1683               	bsf	3,5	;RP0=1, select bank1
   603     0484  1303               	bcf	3,6	;RP1=0, select bank1
   604     0485  009F               	movwf	31	;volatile
   605     0486                     l1563:
   606                           
   607                           ;main.c: 36: 
   608     0486  170C               	bsf	12,6	;volatile
   609     0487                     l1565:
   610                           
   611                           ;main.c: 37:         if (PORTBbits.RB1 == 1) {
   612     0487  1486               	bsf	6,1	;volatile
   613     0488                     l1567:
   614                           
   615                           ;main.c: 39:             if (PORTBbits.RB1 == 1) {
   616     0488  0188               	clrf	8	;volatile
   617     0489                     l1569:
   618                           
   619                           ;main.c: 40:                 lcd_command(0x01);
   620     0489  1287               	bcf	7,5	;volatile
   621     048A                     l1571:
   622                           
   623                           ;main.c: 41:                 numbers[colorIndex] = numbers[colorIndex] + 1;
   624     048A  1307               	bcf	7,6	;volatile
   625     048B                     l1573:
   626                           
   627                           ;main.c: 42:             }
   628     048B  1387               	bcf	7,7	;volatile
   629     048C                     l1575:
   630                           
   631                           ;main.c: 44: 
   632     048C  120A  158A  27C4  120A  118A  	fcall	_lcd_initialize
   633     0491                     l1577:
   634                           
   635                           ;main.c: 45:         lcd_command(0x01);
   636     0491  120A  118A  27EE  120A  118A  	fcall	_ADC_Init
   637     0496                     l1579:
   638                           
   639                           ;main.c: 48:         lcd_string(colors[colorIndex]);
   640     0496  1283               	bcf	3,5	;RP0=0, select bank0
   641     0497  1303               	bcf	3,6	;RP1=0, select bank0
   642     0498  151F               	bsf	31,2	;volatile
   643     0499                     l58:	
   644                           ;main.c: 49:         lcd_command(0xC0);
   645                           
   646     0499  191F               	btfsc	31,2	;volatile
   647     049A  2C9C               	goto	u2031
   648     049B  2C9D               	goto	u2030
   649     049C                     u2031:
   650     049C  2C99               	goto	l58
   651     049D                     u2030:
   652     049D                     l60:
   653                           
   654                           ;main.c: 51:         int a = numbers[colorIndex] / 10;
   655     049D  1C86               	btfss	6,1	;volatile
   656     049E  2CA0               	goto	u2041
   657     049F  2CA1               	goto	u2040
   658     04A0                     u2041:
   659     04A0  2CE0               	goto	l1589
   660     04A1                     u2040:
   661     04A1                     l1581:
   662                           
   663                           ;main.c: 52:         int b = numbers[colorIndex] % 10;
   664     04A1  3002               	movlw	2
   665     04A2  1683               	bsf	3,5	;RP0=1, select bank1
   666     04A3  1303               	bcf	3,6	;RP1=0, select bank1
   667     04A4  00AA               	movwf	(??_main^(0+128)+2)
   668     04A5  3045               	movlw	69
   669     04A6  00A9               	movwf	(??_main^(0+128)+1)
   670     04A7  30A9               	movlw	169
   671     04A8  00A8               	movwf	??_main^(0+128)
   672     04A9                     u2067:
   673     04A9  0BA8               	decfsz	??_main^(0+128),f
   674     04AA  2CA9               	goto	u2067
   675     04AB  0BA9               	decfsz	(??_main^(0+128)+1),f
   676     04AC  2CA9               	goto	u2067
   677     04AD  0BAA               	decfsz	(??_main^(0+128)+2),f
   678     04AE  2CA9               	goto	u2067
   679     04AF                     l1583:
   680                           
   681                           ;main.c: 53:         lcd_data(a + '0');
   682     04AF  1283               	bcf	3,5	;RP0=0, select bank0
   683     04B0  1303               	bcf	3,6	;RP1=0, select bank0
   684     04B1  1C86               	btfss	6,1	;volatile
   685     04B2  2CB4               	goto	u2051
   686     04B3  2CB5               	goto	u2050
   687     04B4                     u2051:
   688     04B4  2CE0               	goto	l1589
   689     04B5                     u2050:
   690     04B5                     l1585:
   691                           
   692                           ;main.c: 54:         lcd_data(b + '0');
   693     04B5  3001               	movlw	1
   694     04B6  120A  158A  2798  120A  118A  	fcall	_lcd_command
   695     04BB                     l1587:
   696                           
   697                           ;main.c: 55: 
   698     04BB  1283               	bcf	3,5	;RP0=0, select bank0
   699     04BC  1303               	bcf	3,6	;RP1=0, select bank0
   700     04BD  084C               	movf	_colorIndex,w
   701     04BE  1683               	bsf	3,5	;RP0=1, select bank1
   702     04BF  1303               	bcf	3,6	;RP1=0, select bank1
   703     04C0  00A8               	movwf	??_main^(0+128)
   704     04C1  0728               	addwf	??_main^(0+128),w
   705     04C2  3E40               	addlw	(low (_numbers| 0))& (0+255)
   706     04C3  0084               	movwf	4
   707     04C4  1383               	bcf	3,7	;select IRP bank0
   708     04C5  0800               	movf	0,w
   709     04C6  00A9               	movwf	(??_main+1)^(0+128)
   710     04C7  0A84               	incf	4,f
   711     04C8  0800               	movf	0,w
   712     04C9  00AA               	movwf	((??_main+1)^(0+128)+1)
   713     04CA  0829               	movf	(??_main+1)^(0+128),w
   714     04CB  3E01               	addlw	1
   715     04CC  00AB               	movwf	(??_main+3)^(0+128)
   716     04CD  082A               	movf	(??_main+2)^(0+128),w
   717     04CE  1803               	skipnc
   718     04CF  3E01               	addlw	1
   719     04D0  3E00               	addlw	0
   720     04D1  00AC               	movwf	(??_main+4)^(0+128)
   721     04D2  1283               	bcf	3,5	;RP0=0, select bank0
   722     04D3  1303               	bcf	3,6	;RP1=0, select bank0
   723     04D4  084C               	movf	_colorIndex,w
   724     04D5  1683               	bsf	3,5	;RP0=1, select bank1
   725     04D6  1303               	bcf	3,6	;RP1=0, select bank1
   726     04D7  00AD               	movwf	(??_main+5)^(0+128)
   727     04D8  072D               	addwf	(??_main+5)^(0+128),w
   728     04D9  3E40               	addlw	(low (_numbers| 0))& (0+255)
   729     04DA  0084               	movwf	4
   730     04DB  082B               	movf	(??_main+3)^(0+128),w
   731     04DC  0080               	movwf	0
   732     04DD  0A84               	incf	4,f
   733     04DE  082C               	movf	(??_main+4)^(0+128),w
   734     04DF  0080               	movwf	0
   735     04E0                     l1589:
   736                           
   737                           ;main.c: 59:     return;
   738     04E0  3001               	movlw	1
   739     04E1  120A  158A  2798  120A  118A  	fcall	_lcd_command
   740     04E6                     l1591:
   741                           
   742                           ;main.c: 60: }
   743     04E6  3080               	movlw	128
   744     04E7  120A  158A  2798  120A  118A  	fcall	_lcd_command
   745     04EC                     l1593:
   746                           
   747                           ;main.c: 61: 
   748     04EC  300A               	movlw	(low ((STR_5-__stringbase)| (0+32768)))& (0+255)
   749     04ED  120A  158A  27DD  120A  118A  	fcall	_lcd_string
   750     04F2                     l1595:
   751                           
   752                           ;main.c: 62: void ADC_Init(void) {
   753     04F2  1283               	bcf	3,5	;RP0=0, select bank0
   754     04F3  1303               	bcf	3,6	;RP1=0, select bank0
   755     04F4  084C               	movf	_colorIndex,w
   756     04F5  3E4F               	addlw	(low (_colors| 0))& (0+255)
   757     04F6  0084               	movwf	4
   758     04F7  1383               	bcf	3,7	;select IRP bank0
   759     04F8  0800               	movf	0,w
   760     04F9  120A  158A  27DD  120A  118A  	fcall	_lcd_string
   761     04FE                     l1597:
   762                           
   763                           ;main.c: 63:     ADCON0 = 0b10000001;
   764     04FE  30C0               	movlw	192
   765     04FF  120A  158A  2798  120A  118A  	fcall	_lcd_command
   766     0504                     l1599:
   767                           
   768                           ;main.c: 64:     ADCON1 = 0b10001110;
   769     0504  3001               	movlw	(low ((STR_6-__stringbase)| (0+32768)))& (0+255)
   770     0505  120A  158A  27DD  120A  118A  	fcall	_lcd_string
   771     050A                     l1601:
   772                           
   773                           ;main.c: 65: }
   774     050A  300A               	movlw	10
   775     050B  1683               	bsf	3,5	;RP0=1, select bank1
   776     050C  1303               	bcf	3,6	;RP1=0, select bank1
   777     050D  00A0               	movwf	___awdiv@divisor^(0+128)
   778     050E  3000               	movlw	0
   779     050F  00A1               	movwf	(___awdiv@divisor^(0+128)+1)
   780     0510  1283               	bcf	3,5	;RP0=0, select bank0
   781     0511  1303               	bcf	3,6	;RP1=0, select bank0
   782     0512  084C               	movf	_colorIndex,w
   783     0513  1683               	bsf	3,5	;RP0=1, select bank1
   784     0514  1303               	bcf	3,6	;RP1=0, select bank1
   785     0515  00A8               	movwf	??_main^(0+128)
   786     0516  0728               	addwf	??_main^(0+128),w
   787     0517  3E40               	addlw	(low (_numbers| 0))& (0+255)
   788     0518  0084               	movwf	4
   789     0519  1383               	bcf	3,7	;select IRP bank0
   790     051A  0800               	movf	0,w
   791     051B  00A2               	movwf	___awdiv@dividend^(0+128)
   792     051C  0A84               	incf	4,f
   793     051D  0800               	movf	0,w
   794     051E  00A3               	movwf	(___awdiv@dividend+1)^(0+128)
   795     051F  120A  118A  2731  120A  118A  	fcall	___awdiv
   796     0524  1683               	bsf	3,5	;RP0=1, select bank1
   797     0525  1303               	bcf	3,6	;RP1=0, select bank1
   798     0526  0821               	movf	(?___awdiv+1)^(0+128),w
   799     0527  00AF               	movwf	(main@a+1)^(0+128)
   800     0528  0820               	movf	?___awdiv^(0+128),w
   801     0529  00AE               	movwf	main@a^(0+128)
   802     052A                     l1603:
   803                           
   804                           ;main.c: 66: 
   805     052A  300A               	movlw	10
   806     052B  00A0               	movwf	___awmod@divisor^(0+128)
   807     052C  3000               	movlw	0
   808     052D  00A1               	movwf	(___awmod@divisor^(0+128)+1)
   809     052E  1283               	bcf	3,5	;RP0=0, select bank0
   810     052F  1303               	bcf	3,6	;RP1=0, select bank0
   811     0530  084C               	movf	_colorIndex,w
   812     0531  1683               	bsf	3,5	;RP0=1, select bank1
   813     0532  1303               	bcf	3,6	;RP1=0, select bank1
   814     0533  00A8               	movwf	??_main^(0+128)
   815     0534  0728               	addwf	??_main^(0+128),w
   816     0535  3E40               	addlw	(low (_numbers| 0))& (0+255)
   817     0536  0084               	movwf	4
   818     0537  1383               	bcf	3,7	;select IRP bank0
   819     0538  0800               	movf	0,w
   820     0539  00A2               	movwf	___awmod@dividend^(0+128)
   821     053A  0A84               	incf	4,f
   822     053B  0800               	movf	0,w
   823     053C  00A3               	movwf	(___awmod@dividend+1)^(0+128)
   824     053D  120A  118A  26C1  120A  118A  	fcall	___awmod
   825     0542  1683               	bsf	3,5	;RP0=1, select bank1
   826     0543  1303               	bcf	3,6	;RP1=0, select bank1
   827     0544  0821               	movf	(?___awmod+1)^(0+128),w
   828     0545  00B1               	movwf	(main@b+1)^(0+128)
   829     0546  0820               	movf	?___awmod^(0+128),w
   830     0547  00B0               	movwf	main@b^(0+128)
   831     0548                     l1605:
   832                           
   833                           ;main.c: 67: void lcd_initialize() {
   834     0548  082E               	movf	main@a^(0+128),w
   835     0549  3E30               	addlw	48
   836     054A  120A  158A  27AE  120A  118A  	fcall	_lcd_data
   837     054F                     l1607:
   838                           
   839                           ;main.c: 68:     lcd_command(0x38);
   840     054F  1683               	bsf	3,5	;RP0=1, select bank1
   841     0550  1303               	bcf	3,6	;RP1=0, select bank1
   842     0551  0830               	movf	main@b^(0+128),w
   843     0552  3E30               	addlw	48
   844     0553  120A  158A  27AE  120A  118A  	fcall	_lcd_data
   845     0558                     l1609:
   846                           
   847                           ;main.c: 70:     lcd_command(0x0C);
   848     0558  3021               	movlw	33
   849     0559  1683               	bsf	3,5	;RP0=1, select bank1
   850     055A  1303               	bcf	3,6	;RP1=0, select bank1
   851     055B  00A9               	movwf	(??_main^(0+128)+1)
   852     055C  3075               	movlw	117
   853     055D  00A8               	movwf	??_main^(0+128)
   854     055E                     u2077:
   855     055E  0BA8               	decfsz	??_main^(0+128),f
   856     055F  2D5E               	goto	u2077
   857     0560  0BA9               	decfsz	(??_main^(0+128)+1),f
   858     0561  2D5E               	goto	u2077
   859     0562  2D63               	nop2
   860     0563  2C96               	goto	l1579
   861     0564  120A  118A  2810   	ljmp	start
   862     0567                     __end_of_main:
   863                           
   864                           	psect	text1
   865     0FDD                     __ptext1:	
   866 ;; *************** function _lcd_string *****************
   867 ;; Defined at:
   868 ;;		line 97 in file "main.c"
   869 ;; Parameters:    Size  Location     Type
   870 ;;  str             1    wreg     PTR const unsigned char 
   871 ;;		 -> STR_6(9), STR_5(8), STR_4(6), STR_3(5), 
   872 ;;		 -> STR_2(5), STR_1(6), 
   873 ;; Auto vars:     Size  Location     Type
   874 ;;  str             1    0[BANK1 ] PTR const unsigned char 
   875 ;;		 -> STR_6(9), STR_5(8), STR_4(6), STR_3(5), 
   876 ;;		 -> STR_2(5), STR_1(6), 
   877 ;; Return value:  Size  Location     Type
   878 ;;                  1    wreg      void 
   879 ;; Registers used:
   880 ;;		wreg, fsr0l, fsr0h, status,2, status,0, btemp+1, pclath, cstack
   881 ;; Tracked objects:
   882 ;;		On entry : 0/0
   883 ;;		On exit  : 0/0
   884 ;;		Unchanged: 0/0
   885 ;; Data sizes:     COMMON   BANK0   BANK1   BANK3   BANK2
   886 ;;      Params:         0       0       0       0       0
   887 ;;      Locals:         0       0       1       0       0
   888 ;;      Temps:          0       0       0       0       0
   889 ;;      Totals:         0       0       1       0       0
   890 ;;Total ram usage:        1 bytes
   891 ;; Hardware stack levels used: 1
   892 ;; Hardware stack levels required when called: 4
   893 ;; This function calls:
   894 ;;		_lcd_data
   895 ;; This function is called by:
   896 ;;		_main
   897 ;; This function uses a non-reentrant model
   898 ;;
   899                           
   900     0FDD                     _lcd_string:	
   901                           ;psect for function _lcd_string
   902                           
   903                           
   904                           ;incstack = 0
   905                           ; Regs used in _lcd_string: [wreg-fsr0h+status,2+status,0+btemp+1+pclath+cstack]
   906                           ;lcd_string@str stored from wreg
   907     0FDD  1683               	bsf	3,5	;RP0=1, select bank1
   908     0FDE  1303               	bcf	3,6	;RP1=0, select bank1
   909     0FDF  00A0               	movwf	lcd_string@str^(0+128)
   910     0FE0                     l1471:
   911                           
   912                           ;main.c: 98: void __attribute__((picinterrupt(("")))) InterruptRoutine(void) {
   913     0FE0  2FF3               	goto	l1477
   914     0FE1                     l1473:
   915                           
   916                           ;main.c: 99:     if (PIR1bits.ADIF == 1) {
   917     0FE1  0820               	movf	lcd_string@str^(0+128),w
   918     0FE2  0084               	movwf	4
   919     0FE3  120A  118A  279A  120A  158A  	fcall	stringdir
   920     0FE8  120A  158A  27AE  120A  158A  	fcall	_lcd_data
   921     0FED                     l1475:
   922     0FED  3001               	movlw	1
   923     0FEE  00FF               	movwf	btemp+1
   924     0FEF  087F               	movf	btemp+1,w
   925     0FF0  1683               	bsf	3,5	;RP0=1, select bank1
   926     0FF1  1303               	bcf	3,6	;RP1=0, select bank1
   927     0FF2  07A0               	addwf	lcd_string@str^(0+128),f
   928     0FF3                     l1477:
   929                           
   930                           ;main.c: 98: void __attribute__((picinterrupt(("")))) InterruptRoutine(void) {
   931     0FF3  0820               	movf	lcd_string@str^(0+128),w
   932     0FF4  0084               	movwf	4
   933     0FF5  120A  118A  279A  120A  158A  	fcall	stringdir
   934     0FFA  3A00               	xorlw	0
   935     0FFB  1D03               	skipz
   936     0FFC  2FFE               	goto	u1831
   937     0FFD  2FFF               	goto	u1830
   938     0FFE                     u1831:
   939     0FFE  2FE1               	goto	l1473
   940     0FFF                     u1830:
   941     0FFF                     l80:
   942     0FFF  0008               	return
   943     1000                     __end_of_lcd_string:
   944                           
   945                           	psect	text2
   946     0FAE                     __ptext2:	
   947 ;; *************** function _lcd_data *****************
   948 ;; Defined at:
   949 ;;		line 88 in file "main.c"
   950 ;; Parameters:    Size  Location     Type
   951 ;;  data            1    wreg     unsigned char 
   952 ;; Auto vars:     Size  Location     Type
   953 ;;  data            1   31[BANK0 ] unsigned char 
   954 ;; Return value:  Size  Location     Type
   955 ;;                  1    wreg      void 
   956 ;; Registers used:
   957 ;;		wreg
   958 ;; Tracked objects:
   959 ;;		On entry : 0/0
   960 ;;		On exit  : 0/0
   961 ;;		Unchanged: 0/0
   962 ;; Data sizes:     COMMON   BANK0   BANK1   BANK3   BANK2
   963 ;;      Params:         0       0       0       0       0
   964 ;;      Locals:         0       1       0       0       0
   965 ;;      Temps:          0       2       0       0       0
   966 ;;      Totals:         0       3       0       0       0
   967 ;;Total ram usage:        3 bytes
   968 ;; Hardware stack levels used: 1
   969 ;; Hardware stack levels required when called: 3
   970 ;; This function calls:
   971 ;;		Nothing
   972 ;; This function is called by:
   973 ;;		_main
   974 ;;		_lcd_string
   975 ;; This function uses a non-reentrant model
   976 ;;
   977                           
   978     0FAE                     _lcd_data:	
   979                           ;psect for function _lcd_data
   980                           
   981                           
   982                           ;incstack = 0
   983                           ; Regs used in _lcd_data: [wreg]
   984                           ;lcd_data@data stored from wreg
   985     0FAE  1283               	bcf	3,5	;RP0=0, select bank0
   986     0FAF  1303               	bcf	3,6	;RP1=0, select bank0
   987     0FB0  00BF               	movwf	lcd_data@data
   988     0FB1                     l1461:
   989                           
   990                           ;main.c: 89: void lcd_command(unsigned char cmd) {
   991     0FB1  1687               	bsf	7,5	;volatile
   992                           
   993                           ;main.c: 90:     PORTCbits.RC5 = 0;
   994     0FB2  1307               	bcf	7,6	;volatile
   995                           
   996                           ;main.c: 91:     PORTCbits.RC6 = 0;
   997     0FB3  1787               	bsf	7,7	;volatile
   998     0FB4                     l1463:
   999                           
  1000                           ;main.c: 92:     PORTCbits.RC7 = 1;
  1001     0FB4  083F               	movf	lcd_data@data,w
  1002     0FB5  0088               	movwf	8	;volatile
  1003                           
  1004                           ;main.c: 93:     PORTD = cmd;
  1005     0FB6  300D               	movlw	13
  1006     0FB7  1283               	bcf	3,5	;RP0=0, select bank0
  1007     0FB8  1303               	bcf	3,6	;RP1=0, select bank0
  1008     0FB9  00BE               	movwf	??_lcd_data+1
  1009     0FBA  30FB               	movlw	251
  1010     0FBB  00BD               	movwf	??_lcd_data
  1011     0FBC                     u2087:
  1012     0FBC  0BBD               	decfsz	??_lcd_data,f
  1013     0FBD  2FBC               	goto	u2087
  1014     0FBE  0BBE               	decfsz	??_lcd_data+1,f
  1015     0FBF  2FBC               	goto	u2087
  1016     0FC0                     l1465:
  1017                           
  1018                           ;main.c: 94:     _delay((unsigned long)((2)*(20000000/4000.0)));
  1019     0FC0  1283               	bcf	3,5	;RP0=0, select bank0
  1020     0FC1  1303               	bcf	3,6	;RP1=0, select bank0
  1021     0FC2  1387               	bcf	7,7	;volatile
  1022     0FC3                     l74:
  1023     0FC3  0008               	return
  1024     0FC4                     __end_of_lcd_data:
  1025                           
  1026                           	psect	text3
  1027     0FC4                     __ptext3:	
  1028 ;; *************** function _lcd_initialize *****************
  1029 ;; Defined at:
  1030 ;;		line 81 in file "main.c"
  1031 ;; Parameters:    Size  Location     Type
  1032 ;;		None
  1033 ;; Auto vars:     Size  Location     Type
  1034 ;;		None
  1035 ;; Return value:  Size  Location     Type
  1036 ;;                  1    wreg      void 
  1037 ;; Registers used:
  1038 ;;		wreg, status,2, status,0, pclath, cstack
  1039 ;; Tracked objects:
  1040 ;;		On entry : 0/0
  1041 ;;		On exit  : 0/0
  1042 ;;		Unchanged: 0/0
  1043 ;; Data sizes:     COMMON   BANK0   BANK1   BANK3   BANK2
  1044 ;;      Params:         0       0       0       0       0
  1045 ;;      Locals:         0       0       0       0       0
  1046 ;;      Temps:          0       0       0       0       0
  1047 ;;      Totals:         0       0       0       0       0
  1048 ;;Total ram usage:        0 bytes
  1049 ;; Hardware stack levels used: 1
  1050 ;; Hardware stack levels required when called: 4
  1051 ;; This function calls:
  1052 ;;		_lcd_command
  1053 ;; This function is called by:
  1054 ;;		_main
  1055 ;; This function uses a non-reentrant model
  1056 ;;
  1057                           
  1058     0FC4                     _lcd_initialize:	
  1059                           ;psect for function _lcd_initialize
  1060                           
  1061     0FC4                     l1467:	
  1062                           ;incstack = 0
  1063                           ; Regs used in _lcd_initialize: [wreg+status,2+status,0+pclath+cstack]
  1064                           
  1065                           
  1066                           ;main.c: 82: 
  1067     0FC4  3038               	movlw	56
  1068     0FC5  120A  158A  2798  120A  158A  	fcall	_lcd_command
  1069                           
  1070                           ;main.c: 83: void lcd_string(const char *str) {
  1071     0FCA  3006               	movlw	6
  1072     0FCB  120A  158A  2798  120A  158A  	fcall	_lcd_command
  1073                           
  1074                           ;main.c: 84:     while (*str) {
  1075     0FD0  300C               	movlw	12
  1076     0FD1  120A  158A  2798  120A  158A  	fcall	_lcd_command
  1077                           
  1078                           ;main.c: 85:         lcd_data(*str++);
  1079     0FD6  3001               	movlw	1
  1080     0FD7  120A  158A  2798  120A  158A  	fcall	_lcd_command
  1081     0FDC                     l71:
  1082     0FDC  0008               	return
  1083     0FDD                     __end_of_lcd_initialize:
  1084                           
  1085                           	psect	text4
  1086     0F98                     __ptext4:	
  1087 ;; *************** function _lcd_command *****************
  1088 ;; Defined at:
  1089 ;;		line 103 in file "main.c"
  1090 ;; Parameters:    Size  Location     Type
  1091 ;;  cmd             1    wreg     unsigned char 
  1092 ;; Auto vars:     Size  Location     Type
  1093 ;;  cmd             1   31[BANK0 ] unsigned char 
  1094 ;; Return value:  Size  Location     Type
  1095 ;;                  1    wreg      void 
  1096 ;; Registers used:
  1097 ;;		wreg
  1098 ;; Tracked objects:
  1099 ;;		On entry : 0/0
  1100 ;;		On exit  : 0/0
  1101 ;;		Unchanged: 0/0
  1102 ;; Data sizes:     COMMON   BANK0   BANK1   BANK3   BANK2
  1103 ;;      Params:         0       0       0       0       0
  1104 ;;      Locals:         0       1       0       0       0
  1105 ;;      Temps:          0       2       0       0       0
  1106 ;;      Totals:         0       3       0       0       0
  1107 ;;Total ram usage:        3 bytes
  1108 ;; Hardware stack levels used: 1
  1109 ;; Hardware stack levels required when called: 3
  1110 ;; This function calls:
  1111 ;;		Nothing
  1112 ;; This function is called by:
  1113 ;;		_main
  1114 ;;		_lcd_initialize
  1115 ;; This function uses a non-reentrant model
  1116 ;;
  1117                           
  1118     0F98                     _lcd_command:	
  1119                           ;psect for function _lcd_command
  1120                           
  1121                           
  1122                           ;incstack = 0
  1123                           ; Regs used in _lcd_command: [wreg]
  1124                           ;lcd_command@cmd stored from wreg
  1125     0F98  1283               	bcf	3,5	;RP0=0, select bank0
  1126     0F99  1303               	bcf	3,6	;RP1=0, select bank0
  1127     0F9A  00BF               	movwf	lcd_command@cmd
  1128     0F9B                     l1455:
  1129                           
  1130                           ;main.c: 104:         else if (tension > 2.5 && tension <= 3.75) colorIndex = 2;
  1131     0F9B  1287               	bcf	7,5	;volatile
  1132                           
  1133                           ;main.c: 105:         else colorIndex = 3;
  1134     0F9C  1307               	bcf	7,6	;volatile
  1135                           
  1136                           ;main.c: 106:         PIR1bits.ADIF = 0;
  1137     0F9D  1787               	bsf	7,7	;volatile
  1138     0F9E                     l1457:
  1139                           
  1140                           ;main.c: 107:     }
  1141     0F9E  083F               	movf	lcd_command@cmd,w
  1142     0F9F  0088               	movwf	8	;volatile
  1143                           
  1144                           ;main.c: 108: 
  1145     0FA0  300D               	movlw	13
  1146     0FA1  1283               	bcf	3,5	;RP0=0, select bank0
  1147     0FA2  1303               	bcf	3,6	;RP1=0, select bank0
  1148     0FA3  00BE               	movwf	??_lcd_command+1
  1149     0FA4  30FB               	movlw	251
  1150     0FA5  00BD               	movwf	??_lcd_command
  1151     0FA6                     u2097:
  1152     0FA6  0BBD               	decfsz	??_lcd_command,f
  1153     0FA7  2FA6               	goto	u2097
  1154     0FA8  0BBE               	decfsz	??_lcd_command+1,f
  1155     0FA9  2FA6               	goto	u2097
  1156     0FAA                     l1459:
  1157                           
  1158                           ;main.c: 109: 
  1159     0FAA  1283               	bcf	3,5	;RP0=0, select bank0
  1160     0FAB  1303               	bcf	3,6	;RP1=0, select bank0
  1161     0FAC  1387               	bcf	7,7	;volatile
  1162     0FAD                     l83:
  1163     0FAD  0008               	return
  1164     0FAE                     __end_of_lcd_command:
  1165                           
  1166                           	psect	text5
  1167     06C1                     __ptext5:	
  1168 ;; *************** function ___awmod *****************
  1169 ;; Defined at:
  1170 ;;		line 5 in file "C:\Program Files\Microchip\xc8\v2.45\pic\sources\c99\common\awmod.c"
  1171 ;; Parameters:    Size  Location     Type
  1172 ;;  divisor         2    0[BANK1 ] int 
  1173 ;;  dividend        2    2[BANK1 ] int 
  1174 ;; Auto vars:     Size  Location     Type
  1175 ;;  sign            1   30[BANK0 ] unsigned char 
  1176 ;;  counter         1   29[BANK0 ] unsigned char 
  1177 ;; Return value:  Size  Location     Type
  1178 ;;                  2    0[BANK1 ] int 
  1179 ;; Registers used:
  1180 ;;		wreg, status,2, status,0, btemp+1
  1181 ;; Tracked objects:
  1182 ;;		On entry : 0/0
  1183 ;;		On exit  : 0/0
  1184 ;;		Unchanged: 0/0
  1185 ;; Data sizes:     COMMON   BANK0   BANK1   BANK3   BANK2
  1186 ;;      Params:         0       0       4       0       0
  1187 ;;      Locals:         0       2       0       0       0
  1188 ;;      Temps:          0       0       0       0       0
  1189 ;;      Totals:         0       2       4       0       0
  1190 ;;Total ram usage:        6 bytes
  1191 ;; Hardware stack levels used: 1
  1192 ;; Hardware stack levels required when called: 3
  1193 ;; This function calls:
  1194 ;;		Nothing
  1195 ;; This function is called by:
  1196 ;;		_main
  1197 ;; This function uses a non-reentrant model
  1198 ;;
  1199                           
  1200     06C1                     ___awmod:	
  1201                           ;psect for function ___awmod
  1202                           
  1203     06C1                     l1523:	
  1204                           ;incstack = 0
  1205                           ; Regs used in ___awmod: [wreg+status,2+status,0+btemp+1]
  1206                           
  1207     06C1  1283               	bcf	3,5	;RP0=0, select bank0
  1208     06C2  1303               	bcf	3,6	;RP1=0, select bank0
  1209     06C3  01BE               	clrf	___awmod@sign
  1210     06C4                     l1525:
  1211     06C4  1683               	bsf	3,5	;RP0=1, select bank1
  1212     06C5  1303               	bcf	3,6	;RP1=0, select bank1
  1213     06C6  1FA3               	btfss	(___awmod@dividend+1)^(0+128),7
  1214     06C7  2EC9               	goto	u1941
  1215     06C8  2ECA               	goto	u1940
  1216     06C9                     u1941:
  1217     06C9  2ED3               	goto	l1531
  1218     06CA                     u1940:
  1219     06CA                     l1527:
  1220     06CA  09A2               	comf	___awmod@dividend^(0+128),f
  1221     06CB  09A3               	comf	(___awmod@dividend+1)^(0+128),f
  1222     06CC  0AA2               	incf	___awmod@dividend^(0+128),f
  1223     06CD  1903               	skipnz
  1224     06CE  0AA3               	incf	(___awmod@dividend+1)^(0+128),f
  1225     06CF                     l1529:
  1226     06CF  1283               	bcf	3,5	;RP0=0, select bank0
  1227     06D0  1303               	bcf	3,6	;RP1=0, select bank0
  1228     06D1  01BE               	clrf	___awmod@sign
  1229     06D2  0ABE               	incf	___awmod@sign,f
  1230     06D3                     l1531:
  1231     06D3  1683               	bsf	3,5	;RP0=1, select bank1
  1232     06D4  1303               	bcf	3,6	;RP1=0, select bank1
  1233     06D5  1FA1               	btfss	(___awmod@divisor+1)^(0+128),7
  1234     06D6  2ED8               	goto	u1951
  1235     06D7  2ED9               	goto	u1950
  1236     06D8                     u1951:
  1237     06D8  2EDE               	goto	l1535
  1238     06D9                     u1950:
  1239     06D9                     l1533:
  1240     06D9  09A0               	comf	___awmod@divisor^(0+128),f
  1241     06DA  09A1               	comf	(___awmod@divisor+1)^(0+128),f
  1242     06DB  0AA0               	incf	___awmod@divisor^(0+128),f
  1243     06DC  1903               	skipnz
  1244     06DD  0AA1               	incf	(___awmod@divisor+1)^(0+128),f
  1245     06DE                     l1535:
  1246     06DE  0820               	movf	___awmod@divisor^(0+128),w
  1247     06DF  0421               	iorwf	(___awmod@divisor+1)^(0+128),w
  1248     06E0  1903               	btfsc	3,2
  1249     06E1  2EE3               	goto	u1961
  1250     06E2  2EE4               	goto	u1960
  1251     06E3                     u1961:
  1252     06E3  2F1D               	goto	l1553
  1253     06E4                     u1960:
  1254     06E4                     l1537:
  1255     06E4  1283               	bcf	3,5	;RP0=0, select bank0
  1256     06E5  1303               	bcf	3,6	;RP1=0, select bank0
  1257     06E6  01BD               	clrf	___awmod@counter
  1258     06E7  0ABD               	incf	___awmod@counter,f
  1259     06E8  2EF6               	goto	l1543
  1260     06E9                     l1539:
  1261     06E9  3001               	movlw	1
  1262     06EA                     u1975:
  1263     06EA  1003               	clrc
  1264     06EB  0DA0               	rlf	___awmod@divisor^(0+128),f
  1265     06EC  0DA1               	rlf	(___awmod@divisor+1)^(0+128),f
  1266     06ED  3EFF               	addlw	-1
  1267     06EE  1D03               	skipz
  1268     06EF  2EEA               	goto	u1975
  1269     06F0                     l1541:
  1270     06F0  3001               	movlw	1
  1271     06F1  00FF               	movwf	btemp+1
  1272     06F2  087F               	movf	btemp+1,w
  1273     06F3  1283               	bcf	3,5	;RP0=0, select bank0
  1274     06F4  1303               	bcf	3,6	;RP1=0, select bank0
  1275     06F5  07BD               	addwf	___awmod@counter,f
  1276     06F6                     l1543:
  1277     06F6  1683               	bsf	3,5	;RP0=1, select bank1
  1278     06F7  1303               	bcf	3,6	;RP1=0, select bank1
  1279     06F8  1FA1               	btfss	(___awmod@divisor+1)^(0+128),7
  1280     06F9  2EFB               	goto	u1981
  1281     06FA  2EFC               	goto	u1980
  1282     06FB                     u1981:
  1283     06FB  2EE9               	goto	l1539
  1284     06FC                     u1980:
  1285     06FC                     l1545:
  1286     06FC  1683               	bsf	3,5	;RP0=1, select bank1
  1287     06FD  1303               	bcf	3,6	;RP1=0, select bank1
  1288     06FE  0821               	movf	(___awmod@divisor+1)^(0+128),w
  1289     06FF  0223               	subwf	(___awmod@dividend+1)^(0+128),w
  1290     0700  1D03               	skipz
  1291     0701  2F04               	goto	u1995
  1292     0702  0820               	movf	___awmod@divisor^(0+128),w
  1293     0703  0222               	subwf	___awmod@dividend^(0+128),w
  1294     0704                     u1995:
  1295     0704  1C03               	skipc
  1296     0705  2F07               	goto	u1991
  1297     0706  2F08               	goto	u1990
  1298     0707                     u1991:
  1299     0707  2F0E               	goto	l1549
  1300     0708                     u1990:
  1301     0708                     l1547:
  1302     0708  0820               	movf	___awmod@divisor^(0+128),w
  1303     0709  02A2               	subwf	___awmod@dividend^(0+128),f
  1304     070A  0821               	movf	(___awmod@divisor+1)^(0+128),w
  1305     070B  1C03               	skipc
  1306     070C  03A3               	decf	(___awmod@dividend+1)^(0+128),f
  1307     070D  02A3               	subwf	(___awmod@dividend+1)^(0+128),f
  1308     070E                     l1549:
  1309     070E  3001               	movlw	1
  1310     070F                     u2005:
  1311     070F  1003               	clrc
  1312     0710  0CA1               	rrf	(___awmod@divisor+1)^(0+128),f
  1313     0711  0CA0               	rrf	___awmod@divisor^(0+128),f
  1314     0712  3EFF               	addlw	-1
  1315     0713  1D03               	skipz
  1316     0714  2F0F               	goto	u2005
  1317     0715                     l1551:
  1318     0715  3001               	movlw	1
  1319     0716  1283               	bcf	3,5	;RP0=0, select bank0
  1320     0717  1303               	bcf	3,6	;RP1=0, select bank0
  1321     0718  02BD               	subwf	___awmod@counter,f
  1322     0719  1D03               	btfss	3,2
  1323     071A  2F1C               	goto	u2011
  1324     071B  2F1D               	goto	u2010
  1325     071C                     u2011:
  1326     071C  2EFC               	goto	l1545
  1327     071D                     u2010:
  1328     071D                     l1553:
  1329     071D  1283               	bcf	3,5	;RP0=0, select bank0
  1330     071E  083E               	movf	___awmod@sign,w
  1331     071F  1903               	btfsc	3,2
  1332     0720  2F22               	goto	u2021
  1333     0721  2F23               	goto	u2020
  1334     0722                     u2021:
  1335     0722  2F2A               	goto	l1557
  1336     0723                     u2020:
  1337     0723                     l1555:
  1338     0723  1683               	bsf	3,5	;RP0=1, select bank1
  1339     0724  1303               	bcf	3,6	;RP1=0, select bank1
  1340     0725  09A2               	comf	___awmod@dividend^(0+128),f
  1341     0726  09A3               	comf	(___awmod@dividend+1)^(0+128),f
  1342     0727  0AA2               	incf	___awmod@dividend^(0+128),f
  1343     0728  1903               	skipnz
  1344     0729  0AA3               	incf	(___awmod@dividend+1)^(0+128),f
  1345     072A                     l1557:
  1346     072A  1683               	bsf	3,5	;RP0=1, select bank1
  1347     072B  1303               	bcf	3,6	;RP1=0, select bank1
  1348     072C  0823               	movf	(___awmod@dividend+1)^(0+128),w
  1349     072D  00A1               	movwf	(?___awmod+1)^(0+128)
  1350     072E  0822               	movf	___awmod@dividend^(0+128),w
  1351     072F  00A0               	movwf	?___awmod^(0+128)
  1352     0730                     l347:
  1353     0730  0008               	return
  1354     0731                     __end_of___awmod:
  1355                           
  1356                           	psect	text6
  1357     0731                     __ptext6:	
  1358 ;; *************** function ___awdiv *****************
  1359 ;; Defined at:
  1360 ;;		line 5 in file "C:\Program Files\Microchip\xc8\v2.45\pic\sources\c99\common\awdiv.c"
  1361 ;; Parameters:    Size  Location     Type
  1362 ;;  divisor         2    0[BANK1 ] int 
  1363 ;;  dividend        2    2[BANK1 ] int 
  1364 ;; Auto vars:     Size  Location     Type
  1365 ;;  quotient        2    6[BANK1 ] int 
  1366 ;;  sign            1    5[BANK1 ] unsigned char 
  1367 ;;  counter         1    4[BANK1 ] unsigned char 
  1368 ;; Return value:  Size  Location     Type
  1369 ;;                  2    0[BANK1 ] int 
  1370 ;; Registers used:
  1371 ;;		wreg, status,2, status,0, btemp+1
  1372 ;; Tracked objects:
  1373 ;;		On entry : 0/0
  1374 ;;		On exit  : 0/0
  1375 ;;		Unchanged: 0/0
  1376 ;; Data sizes:     COMMON   BANK0   BANK1   BANK3   BANK2
  1377 ;;      Params:         0       0       4       0       0
  1378 ;;      Locals:         0       0       4       0       0
  1379 ;;      Temps:          0       0       0       0       0
  1380 ;;      Totals:         0       0       8       0       0
  1381 ;;Total ram usage:        8 bytes
  1382 ;; Hardware stack levels used: 1
  1383 ;; Hardware stack levels required when called: 3
  1384 ;; This function calls:
  1385 ;;		Nothing
  1386 ;; This function is called by:
  1387 ;;		_main
  1388 ;; This function uses a non-reentrant model
  1389 ;;
  1390                           
  1391     0731                     ___awdiv:	
  1392                           ;psect for function ___awdiv
  1393                           
  1394     0731                     l1479:	
  1395                           ;incstack = 0
  1396                           ; Regs used in ___awdiv: [wreg+status,2+status,0+btemp+1]
  1397                           
  1398     0731  1683               	bsf	3,5	;RP0=1, select bank1
  1399     0732  1303               	bcf	3,6	;RP1=0, select bank1
  1400     0733  01A5               	clrf	___awdiv@sign^(0+128)
  1401     0734                     l1481:
  1402     0734  1FA1               	btfss	(___awdiv@divisor+1)^(0+128),7
  1403     0735  2F37               	goto	u1841
  1404     0736  2F38               	goto	u1840
  1405     0737                     u1841:
  1406     0737  2F3F               	goto	l1487
  1407     0738                     u1840:
  1408     0738                     l1483:
  1409     0738  09A0               	comf	___awdiv@divisor^(0+128),f
  1410     0739  09A1               	comf	(___awdiv@divisor+1)^(0+128),f
  1411     073A  0AA0               	incf	___awdiv@divisor^(0+128),f
  1412     073B  1903               	skipnz
  1413     073C  0AA1               	incf	(___awdiv@divisor+1)^(0+128),f
  1414     073D                     l1485:
  1415     073D  01A5               	clrf	___awdiv@sign^(0+128)
  1416     073E  0AA5               	incf	___awdiv@sign^(0+128),f
  1417     073F                     l1487:
  1418     073F  1FA3               	btfss	(___awdiv@dividend+1)^(0+128),7
  1419     0740  2F42               	goto	u1851
  1420     0741  2F43               	goto	u1850
  1421     0742                     u1851:
  1422     0742  2F4C               	goto	l1493
  1423     0743                     u1850:
  1424     0743                     l1489:
  1425     0743  09A2               	comf	___awdiv@dividend^(0+128),f
  1426     0744  09A3               	comf	(___awdiv@dividend+1)^(0+128),f
  1427     0745  0AA2               	incf	___awdiv@dividend^(0+128),f
  1428     0746  1903               	skipnz
  1429     0747  0AA3               	incf	(___awdiv@dividend+1)^(0+128),f
  1430     0748                     l1491:
  1431     0748  3001               	movlw	1
  1432     0749  00FF               	movwf	btemp+1
  1433     074A  087F               	movf	btemp+1,w
  1434     074B  06A5               	xorwf	___awdiv@sign^(0+128),f
  1435     074C                     l1493:
  1436     074C  01A6               	clrf	___awdiv@quotient^(0+128)
  1437     074D  01A7               	clrf	(___awdiv@quotient+1)^(0+128)
  1438     074E                     l1495:
  1439     074E  0820               	movf	___awdiv@divisor^(0+128),w
  1440     074F  0421               	iorwf	(___awdiv@divisor+1)^(0+128),w
  1441     0750  1903               	btfsc	3,2
  1442     0751  2F53               	goto	u1861
  1443     0752  2F54               	goto	u1860
  1444     0753                     u1861:
  1445     0753  2F8B               	goto	l1515
  1446     0754                     u1860:
  1447     0754                     l1497:
  1448     0754  01A4               	clrf	___awdiv@counter^(0+128)
  1449     0755  0AA4               	incf	___awdiv@counter^(0+128),f
  1450     0756  2F62               	goto	l1503
  1451     0757                     l1499:
  1452     0757  3001               	movlw	1
  1453     0758                     u1875:
  1454     0758  1003               	clrc
  1455     0759  0DA0               	rlf	___awdiv@divisor^(0+128),f
  1456     075A  0DA1               	rlf	(___awdiv@divisor+1)^(0+128),f
  1457     075B  3EFF               	addlw	-1
  1458     075C  1D03               	skipz
  1459     075D  2F58               	goto	u1875
  1460     075E                     l1501:
  1461     075E  3001               	movlw	1
  1462     075F  00FF               	movwf	btemp+1
  1463     0760  087F               	movf	btemp+1,w
  1464     0761  07A4               	addwf	___awdiv@counter^(0+128),f
  1465     0762                     l1503:
  1466     0762  1FA1               	btfss	(___awdiv@divisor+1)^(0+128),7
  1467     0763  2F65               	goto	u1881
  1468     0764  2F66               	goto	u1880
  1469     0765                     u1881:
  1470     0765  2F57               	goto	l1499
  1471     0766                     u1880:
  1472     0766                     l1505:
  1473     0766  3001               	movlw	1
  1474     0767                     u1895:
  1475     0767  1003               	clrc
  1476     0768  0DA6               	rlf	___awdiv@quotient^(0+128),f
  1477     0769  0DA7               	rlf	(___awdiv@quotient+1)^(0+128),f
  1478     076A  3EFF               	addlw	-1
  1479     076B  1D03               	skipz
  1480     076C  2F67               	goto	u1895
  1481     076D  0821               	movf	(___awdiv@divisor+1)^(0+128),w
  1482     076E  0223               	subwf	(___awdiv@dividend+1)^(0+128),w
  1483     076F  1D03               	skipz
  1484     0770  2F73               	goto	u1905
  1485     0771  0820               	movf	___awdiv@divisor^(0+128),w
  1486     0772  0222               	subwf	___awdiv@dividend^(0+128),w
  1487     0773                     u1905:
  1488     0773  1C03               	skipc
  1489     0774  2F76               	goto	u1901
  1490     0775  2F77               	goto	u1900
  1491     0776                     u1901:
  1492     0776  2F7E               	goto	l1511
  1493     0777                     u1900:
  1494     0777                     l1507:
  1495     0777  0820               	movf	___awdiv@divisor^(0+128),w
  1496     0778  02A2               	subwf	___awdiv@dividend^(0+128),f
  1497     0779  0821               	movf	(___awdiv@divisor+1)^(0+128),w
  1498     077A  1C03               	skipc
  1499     077B  03A3               	decf	(___awdiv@dividend+1)^(0+128),f
  1500     077C  02A3               	subwf	(___awdiv@dividend+1)^(0+128),f
  1501     077D                     l1509:
  1502     077D  1426               	bsf	___awdiv@quotient^(0+128),0
  1503     077E                     l1511:
  1504     077E  3001               	movlw	1
  1505     077F                     u1915:
  1506     077F  1003               	clrc
  1507     0780  0CA1               	rrf	(___awdiv@divisor+1)^(0+128),f
  1508     0781  0CA0               	rrf	___awdiv@divisor^(0+128),f
  1509     0782  3EFF               	addlw	-1
  1510     0783  1D03               	skipz
  1511     0784  2F7F               	goto	u1915
  1512     0785                     l1513:
  1513     0785  3001               	movlw	1
  1514     0786  02A4               	subwf	___awdiv@counter^(0+128),f
  1515     0787  1D03               	btfss	3,2
  1516     0788  2F8A               	goto	u1921
  1517     0789  2F8B               	goto	u1920
  1518     078A                     u1921:
  1519     078A  2F66               	goto	l1505
  1520     078B                     u1920:
  1521     078B                     l1515:
  1522     078B  0825               	movf	___awdiv@sign^(0+128),w
  1523     078C  1903               	btfsc	3,2
  1524     078D  2F8F               	goto	u1931
  1525     078E  2F90               	goto	u1930
  1526     078F                     u1931:
  1527     078F  2F95               	goto	l1519
  1528     0790                     u1930:
  1529     0790                     l1517:
  1530     0790  09A6               	comf	___awdiv@quotient^(0+128),f
  1531     0791  09A7               	comf	(___awdiv@quotient+1)^(0+128),f
  1532     0792  0AA6               	incf	___awdiv@quotient^(0+128),f
  1533     0793  1903               	skipnz
  1534     0794  0AA7               	incf	(___awdiv@quotient+1)^(0+128),f
  1535     0795                     l1519:
  1536     0795  0827               	movf	(___awdiv@quotient+1)^(0+128),w
  1537     0796  00A1               	movwf	(?___awdiv+1)^(0+128)
  1538     0797  0826               	movf	___awdiv@quotient^(0+128),w
  1539     0798  00A0               	movwf	?___awdiv^(0+128)
  1540     0799                     l334:
  1541     0799  0008               	return
  1542     079A                     __end_of___awdiv:
  1543                           
  1544                           	psect	text7
  1545     07EE                     __ptext7:	
  1546 ;; *************** function _ADC_Init *****************
  1547 ;; Defined at:
  1548 ;;		line 76 in file "main.c"
  1549 ;; Parameters:    Size  Location     Type
  1550 ;;		None
  1551 ;; Auto vars:     Size  Location     Type
  1552 ;;		None
  1553 ;; Return value:  Size  Location     Type
  1554 ;;                  1    wreg      void 
  1555 ;; Registers used:
  1556 ;;		wreg
  1557 ;; Tracked objects:
  1558 ;;		On entry : 0/0
  1559 ;;		On exit  : 0/0
  1560 ;;		Unchanged: 0/0
  1561 ;; Data sizes:     COMMON   BANK0   BANK1   BANK3   BANK2
  1562 ;;      Params:         0       0       0       0       0
  1563 ;;      Locals:         0       0       0       0       0
  1564 ;;      Temps:          0       0       0       0       0
  1565 ;;      Totals:         0       0       0       0       0
  1566 ;;Total ram usage:        0 bytes
  1567 ;; Hardware stack levels used: 1
  1568 ;; Hardware stack levels required when called: 3
  1569 ;; This function calls:
  1570 ;;		Nothing
  1571 ;; This function is called by:
  1572 ;;		_main
  1573 ;; This function uses a non-reentrant model
  1574 ;;
  1575                           
  1576     07EE                     _ADC_Init:	
  1577                           ;psect for function _ADC_Init
  1578                           
  1579     07EE                     l1469:	
  1580                           ;incstack = 0
  1581                           ; Regs used in _ADC_Init: [wreg]
  1582                           
  1583                           
  1584                           ;main.c: 77:     PORTCbits.RC7 = 1;
  1585     07EE  3081               	movlw	129
  1586     07EF  1283               	bcf	3,5	;RP0=0, select bank0
  1587     07F0  1303               	bcf	3,6	;RP1=0, select bank0
  1588     07F1  009F               	movwf	31	;volatile
  1589                           
  1590                           ;main.c: 78:     PORTD = data;
  1591     07F2  308E               	movlw	142
  1592     07F3  1683               	bsf	3,5	;RP0=1, select bank1
  1593     07F4  1303               	bcf	3,6	;RP1=0, select bank1
  1594     07F5  009F               	movwf	31	;volatile
  1595     07F6                     l68:
  1596     07F6  0008               	return
  1597     07F7                     __end_of_ADC_Init:
  1598                           
  1599                           	psect	text8
  1600     0383                     __ptext8:	
  1601 ;; *************** function _InterruptRoutine *****************
  1602 ;; Defined at:
  1603 ;;		line 112 in file "main.c"
  1604 ;; Parameters:    Size  Location     Type
  1605 ;;		None
  1606 ;; Auto vars:     Size  Location     Type
  1607 ;;		None
  1608 ;; Return value:  Size  Location     Type
  1609 ;;                  1    wreg      void 
  1610 ;; Registers used:
  1611 ;;		wreg, status,2, status,0, btemp+1, pclath, cstack
  1612 ;; Tracked objects:
  1613 ;;		On entry : 0/0
  1614 ;;		On exit  : 0/0
  1615 ;;		Unchanged: 0/0
  1616 ;; Data sizes:     COMMON   BANK0   BANK1   BANK3   BANK2
  1617 ;;      Params:         0       0       0       0       0
  1618 ;;      Locals:         0       0       0       0       0
  1619 ;;      Temps:          0       3       0       0       0
  1620 ;;      Totals:         0       3       0       0       0
  1621 ;;Total ram usage:        3 bytes
  1622 ;; Hardware stack levels used: 1
  1623 ;; Hardware stack levels required when called: 2
  1624 ;; This function calls:
  1625 ;;		___flge
  1626 ;;		___flmul
  1627 ;;		___xxtofl
  1628 ;; This function is called by:
  1629 ;;		Interrupt level 1
  1630 ;; This function uses a non-reentrant model
  1631 ;;
  1632                           
  1633     0383                     _InterruptRoutine:	
  1634                           ;psect for function _InterruptRoutine
  1635                           
  1636     0383                     i1l1427:
  1637                           
  1638                           ;main.c: 113: 
  1639     0383  1F0C               	btfss	12,6	;volatile
  1640     0384  2B86               	goto	u176_21
  1641     0385  2B87               	goto	u176_20
  1642     0386                     u176_21:
  1643     0386  2C6F               	goto	i1l95
  1644     0387                     u176_20:
  1645     0387                     i1l1429:
  1646                           
  1647                           ;main.c: 114: }
  1648     0387  081E               	movf	30,w	;volatile
  1649     0388  00CE               	movwf	_valeurADC+1
  1650     0389  1683               	bsf	3,5	;RP0=1, select bank1
  1651     038A  1303               	bcf	3,6	;RP1=0, select bank1
  1652     038B  081E               	movf	30,w	;volatile
  1653     038C  1283               	bcf	3,5	;RP0=0, select bank0
  1654     038D  1303               	bcf	3,6	;RP1=0, select bank0
  1655     038E  00CD               	movwf	_valeurADC
  1656     038F                     i1l1431:
  1657     038F  303B               	movlw	59
  1658     0390  00A3               	movwf	___flmul@b+3
  1659     0391  30A0               	movlw	160
  1660     0392  00A2               	movwf	___flmul@b+2
  1661     0393  3028               	movlw	40
  1662     0394  00A1               	movwf	___flmul@b+1
  1663     0395  300A               	movlw	10
  1664     0396  00A0               	movwf	___flmul@b
  1665     0397  084D               	movf	_valeurADC,w
  1666     0398  00F0               	movwf	___xxtofl@val
  1667     0399  084E               	movf	_valeurADC+1,w
  1668     039A  00F1               	movwf	___xxtofl@val+1
  1669     039B  01F2               	clrf	___xxtofl@val+2
  1670     039C  01F3               	clrf	___xxtofl@val+3
  1671     039D  3000               	movlw	0
  1672     039E  120A  118A  2567  120A  118A  	fcall	___xxtofl
  1673     03A3  0873               	movf	?___xxtofl+3,w
  1674     03A4  1283               	bcf	3,5	;RP0=0, select bank0
  1675     03A5  1303               	bcf	3,6	;RP1=0, select bank0
  1676     03A6  00A7               	movwf	___flmul@a+3
  1677     03A7  0872               	movf	?___xxtofl+2,w
  1678     03A8  00A6               	movwf	___flmul@a+2
  1679     03A9  0871               	movf	?___xxtofl+1,w
  1680     03AA  00A5               	movwf	___flmul@a+1
  1681     03AB  0870               	movf	?___xxtofl,w
  1682     03AC  00A4               	movwf	___flmul@a
  1683     03AD  120A  118A  203E  120A  118A  	fcall	___flmul
  1684     03B2  1283               	bcf	3,5	;RP0=0, select bank0
  1685     03B3  1303               	bcf	3,6	;RP1=0, select bank0
  1686     03B4  0823               	movf	?___flmul+3,w
  1687     03B5  00CB               	movwf	_tension+3
  1688     03B6  0822               	movf	?___flmul+2,w
  1689     03B7  00CA               	movwf	_tension+2
  1690     03B8  0821               	movf	?___flmul+1,w
  1691     03B9  00C9               	movwf	_tension+1
  1692     03BA  0820               	movf	?___flmul,w
  1693     03BB  00C8               	movwf	_tension
  1694     03BC                     i1l1433:
  1695     03BC  3000               	movlw	0
  1696     03BD  00F3               	movwf	___flge@ff1+3
  1697     03BE  3000               	movlw	0
  1698     03BF  00F2               	movwf	___flge@ff1+2
  1699     03C0  3000               	movlw	0
  1700     03C1  00F1               	movwf	___flge@ff1+1
  1701     03C2  3000               	movlw	0
  1702     03C3  00F0               	movwf	___flge@ff1
  1703     03C4  084B               	movf	_tension+3,w
  1704     03C5  00F7               	movwf	___flge@ff2+3
  1705     03C6  084A               	movf	_tension+2,w
  1706     03C7  00F6               	movwf	___flge@ff2+2
  1707     03C8  0849               	movf	_tension+1,w
  1708     03C9  00F5               	movwf	___flge@ff2+1
  1709     03CA  0848               	movf	_tension,w
  1710     03CB  00F4               	movwf	___flge@ff2
  1711     03CC  120A  118A  261F  120A  118A  	fcall	___flge
  1712     03D1  1803               	btfsc	3,0
  1713     03D2  2BD4               	goto	u177_21
  1714     03D3  2BD5               	goto	u177_20
  1715     03D4                     u177_21:
  1716     03D4  2BF4               	goto	i1l1439
  1717     03D5                     u177_20:
  1718     03D5                     i1l1435:
  1719     03D5  303F               	movlw	63
  1720     03D6  00F3               	movwf	___flge@ff1+3
  1721     03D7  30A0               	movlw	160
  1722     03D8  00F2               	movwf	___flge@ff1+2
  1723     03D9  3000               	movlw	0
  1724     03DA  00F1               	movwf	___flge@ff1+1
  1725     03DB  3000               	movlw	0
  1726     03DC  00F0               	movwf	___flge@ff1
  1727     03DD  1283               	bcf	3,5	;RP0=0, select bank0
  1728     03DE  1303               	bcf	3,6	;RP1=0, select bank0
  1729     03DF  084B               	movf	_tension+3,w
  1730     03E0  00F7               	movwf	___flge@ff2+3
  1731     03E1  084A               	movf	_tension+2,w
  1732     03E2  00F6               	movwf	___flge@ff2+2
  1733     03E3  0849               	movf	_tension+1,w
  1734     03E4  00F5               	movwf	___flge@ff2+1
  1735     03E5  0848               	movf	_tension,w
  1736     03E6  00F4               	movwf	___flge@ff2
  1737     03E7  120A  118A  261F  120A  118A  	fcall	___flge
  1738     03EC  1C03               	btfss	3,0
  1739     03ED  2BEF               	goto	u178_21
  1740     03EE  2BF0               	goto	u178_20
  1741     03EF                     u178_21:
  1742     03EF  2BF4               	goto	i1l1439
  1743     03F0                     u178_20:
  1744     03F0                     i1l1437:
  1745     03F0  1283               	bcf	3,5	;RP0=0, select bank0
  1746     03F1  1303               	bcf	3,6	;RP1=0, select bank0
  1747     03F2  01CC               	clrf	_colorIndex
  1748     03F3  2C6E               	goto	i1l1453
  1749     03F4                     i1l1439:
  1750     03F4  303F               	movlw	63
  1751     03F5  00F3               	movwf	___flge@ff1+3
  1752     03F6  30A0               	movlw	160
  1753     03F7  00F2               	movwf	___flge@ff1+2
  1754     03F8  3000               	movlw	0
  1755     03F9  00F1               	movwf	___flge@ff1+1
  1756     03FA  3000               	movlw	0
  1757     03FB  00F0               	movwf	___flge@ff1
  1758     03FC  1283               	bcf	3,5	;RP0=0, select bank0
  1759     03FD  1303               	bcf	3,6	;RP1=0, select bank0
  1760     03FE  084B               	movf	_tension+3,w
  1761     03FF  00F7               	movwf	___flge@ff2+3
  1762     0400  084A               	movf	_tension+2,w
  1763     0401  00F6               	movwf	___flge@ff2+2
  1764     0402  0849               	movf	_tension+1,w
  1765     0403  00F5               	movwf	___flge@ff2+1
  1766     0404  0848               	movf	_tension,w
  1767     0405  00F4               	movwf	___flge@ff2
  1768     0406  120A  118A  261F  120A  118A  	fcall	___flge
  1769     040B  1803               	btfsc	3,0
  1770     040C  2C0E               	goto	u179_21
  1771     040D  2C0F               	goto	u179_20
  1772     040E                     u179_21:
  1773     040E  2C2F               	goto	i1l1445
  1774     040F                     u179_20:
  1775     040F                     i1l1441:
  1776     040F  3040               	movlw	64
  1777     0410  00F3               	movwf	___flge@ff1+3
  1778     0411  3020               	movlw	32
  1779     0412  00F2               	movwf	___flge@ff1+2
  1780     0413  3000               	movlw	0
  1781     0414  00F1               	movwf	___flge@ff1+1
  1782     0415  3000               	movlw	0
  1783     0416  00F0               	movwf	___flge@ff1
  1784     0417  1283               	bcf	3,5	;RP0=0, select bank0
  1785     0418  1303               	bcf	3,6	;RP1=0, select bank0
  1786     0419  084B               	movf	_tension+3,w
  1787     041A  00F7               	movwf	___flge@ff2+3
  1788     041B  084A               	movf	_tension+2,w
  1789     041C  00F6               	movwf	___flge@ff2+2
  1790     041D  0849               	movf	_tension+1,w
  1791     041E  00F5               	movwf	___flge@ff2+1
  1792     041F  0848               	movf	_tension,w
  1793     0420  00F4               	movwf	___flge@ff2
  1794     0421  120A  118A  261F  120A  118A  	fcall	___flge
  1795     0426  1C03               	btfss	3,0
  1796     0427  2C29               	goto	u180_21
  1797     0428  2C2A               	goto	u180_20
  1798     0429                     u180_21:
  1799     0429  2C2F               	goto	i1l1445
  1800     042A                     u180_20:
  1801     042A                     i1l1443:
  1802     042A  1283               	bcf	3,5	;RP0=0, select bank0
  1803     042B  1303               	bcf	3,6	;RP1=0, select bank0
  1804     042C  01CC               	clrf	_colorIndex
  1805     042D  0ACC               	incf	_colorIndex,f
  1806     042E  2C6E               	goto	i1l1453
  1807     042F                     i1l1445:
  1808     042F  3040               	movlw	64
  1809     0430  00F3               	movwf	___flge@ff1+3
  1810     0431  3020               	movlw	32
  1811     0432  00F2               	movwf	___flge@ff1+2
  1812     0433  3000               	movlw	0
  1813     0434  00F1               	movwf	___flge@ff1+1
  1814     0435  3000               	movlw	0
  1815     0436  00F0               	movwf	___flge@ff1
  1816     0437  1283               	bcf	3,5	;RP0=0, select bank0
  1817     0438  1303               	bcf	3,6	;RP1=0, select bank0
  1818     0439  084B               	movf	_tension+3,w
  1819     043A  00F7               	movwf	___flge@ff2+3
  1820     043B  084A               	movf	_tension+2,w
  1821     043C  00F6               	movwf	___flge@ff2+2
  1822     043D  0849               	movf	_tension+1,w
  1823     043E  00F5               	movwf	___flge@ff2+1
  1824     043F  0848               	movf	_tension,w
  1825     0440  00F4               	movwf	___flge@ff2
  1826     0441  120A  118A  261F  120A  118A  	fcall	___flge
  1827     0446  1803               	btfsc	3,0
  1828     0447  2C49               	goto	u181_21
  1829     0448  2C4A               	goto	u181_20
  1830     0449                     u181_21:
  1831     0449  2C6A               	goto	i1l1451
  1832     044A                     u181_20:
  1833     044A                     i1l1447:
  1834     044A  3040               	movlw	64
  1835     044B  00F3               	movwf	___flge@ff1+3
  1836     044C  3070               	movlw	112
  1837     044D  00F2               	movwf	___flge@ff1+2
  1838     044E  3000               	movlw	0
  1839     044F  00F1               	movwf	___flge@ff1+1
  1840     0450  3000               	movlw	0
  1841     0451  00F0               	movwf	___flge@ff1
  1842     0452  1283               	bcf	3,5	;RP0=0, select bank0
  1843     0453  1303               	bcf	3,6	;RP1=0, select bank0
  1844     0454  084B               	movf	_tension+3,w
  1845     0455  00F7               	movwf	___flge@ff2+3
  1846     0456  084A               	movf	_tension+2,w
  1847     0457  00F6               	movwf	___flge@ff2+2
  1848     0458  0849               	movf	_tension+1,w
  1849     0459  00F5               	movwf	___flge@ff2+1
  1850     045A  0848               	movf	_tension,w
  1851     045B  00F4               	movwf	___flge@ff2
  1852     045C  120A  118A  261F  120A  118A  	fcall	___flge
  1853     0461  1C03               	btfss	3,0
  1854     0462  2C64               	goto	u182_21
  1855     0463  2C65               	goto	u182_20
  1856     0464                     u182_21:
  1857     0464  2C6A               	goto	i1l1451
  1858     0465                     u182_20:
  1859     0465                     i1l1449:
  1860     0465  3002               	movlw	2
  1861     0466  1283               	bcf	3,5	;RP0=0, select bank0
  1862     0467  1303               	bcf	3,6	;RP1=0, select bank0
  1863     0468  00CC               	movwf	_colorIndex
  1864     0469  2C6E               	goto	i1l1453
  1865     046A                     i1l1451:
  1866     046A  3003               	movlw	3
  1867     046B  1283               	bcf	3,5	;RP0=0, select bank0
  1868     046C  1303               	bcf	3,6	;RP1=0, select bank0
  1869     046D  00CC               	movwf	_colorIndex
  1870     046E                     i1l1453:
  1871     046E  130C               	bcf	12,6	;volatile
  1872     046F                     i1l95:
  1873     046F  083C               	movf	??_InterruptRoutine+2,w
  1874     0470  00FF               	movwf	btemp+1
  1875     0471  083B               	movf	??_InterruptRoutine+1,w
  1876     0472  008A               	movwf	10
  1877     0473  0E3A               	swapf	??_InterruptRoutine,w
  1878     0474  0083               	movwf	3
  1879     0475  0EFE               	swapf	btemp,f
  1880     0476  0E7E               	swapf	btemp,w
  1881     0477  0009               	retfie
  1882     0478                     __end_of_InterruptRoutine:
  1883                           
  1884                           	psect	intentry
  1885     0004                     __pintentry:	
  1886                           ;incstack = 0
  1887                           ; Regs used in _InterruptRoutine: [wreg+status,2+status,0+btemp+1+pclath+cstack]
  1888                           
  1889     0004                     interrupt_function:
  1890     007E                     saved_w	set	btemp
  1891     0004  00FE               	movwf	btemp
  1892     0005  0E03               	swapf	3,w
  1893     0006  1283               	bcf	3,5	;RP0=0, select bank0
  1894     0007  1303               	bcf	3,6	;RP1=0, select bank0
  1895     0008  00BA               	movwf	??_InterruptRoutine
  1896     0009  080A               	movf	10,w
  1897     000A  00BB               	movwf	??_InterruptRoutine+1
  1898     000B  087F               	movf	btemp+1,w
  1899     000C  00BC               	movwf	??_InterruptRoutine+2
  1900     000D  120A  118A  2B83   	ljmp	_InterruptRoutine
  1901                           
  1902                           	psect	text9
  1903     0567                     __ptext9:	
  1904 ;; *************** function ___xxtofl *****************
  1905 ;; Defined at:
  1906 ;;		line 10 in file "C:\Program Files\Microchip\xc8\v2.45\pic\sources\c99\common\xxtofl.c"
  1907 ;; Parameters:    Size  Location     Type
  1908 ;;  sign            1    wreg     unsigned char 
  1909 ;;  val             4    0[COMMON] long 
  1910 ;; Auto vars:     Size  Location     Type
  1911 ;;  sign            1    8[COMMON] unsigned char 
  1912 ;;  arg             4   10[COMMON] unsigned long 
  1913 ;;  exp             1    9[COMMON] unsigned char 
  1914 ;; Return value:  Size  Location     Type
  1915 ;;                  4    0[COMMON] unsigned char 
  1916 ;; Registers used:
  1917 ;;		wreg, status,2, status,0, btemp+1
  1918 ;; Tracked objects:
  1919 ;;		On entry : 0/0
  1920 ;;		On exit  : 0/0
  1921 ;;		Unchanged: 0/0
  1922 ;; Data sizes:     COMMON   BANK0   BANK1   BANK3   BANK2
  1923 ;;      Params:         4       0       0       0       0
  1924 ;;      Locals:         6       0       0       0       0
  1925 ;;      Temps:          4       0       0       0       0
  1926 ;;      Totals:        14       0       0       0       0
  1927 ;;Total ram usage:       14 bytes
  1928 ;; Hardware stack levels used: 1
  1929 ;; This function calls:
  1930 ;;		Nothing
  1931 ;; This function is called by:
  1932 ;;		_InterruptRoutine
  1933 ;; This function uses a non-reentrant model
  1934 ;;
  1935                           
  1936     0567                     ___xxtofl:	
  1937                           ;psect for function ___xxtofl
  1938                           
  1939                           
  1940                           ;incstack = 0
  1941                           ; Regs used in ___xxtofl: [wreg+status,2+status,0+btemp+1]
  1942                           ;___xxtofl@sign stored from wreg
  1943     0567  00F8               	movwf	___xxtofl@sign
  1944     0568                     i1l1329:
  1945     0568  0878               	movf	___xxtofl@sign,w
  1946     0569  1903               	btfsc	3,2
  1947     056A  2D6C               	goto	u159_21
  1948     056B  2D6D               	goto	u159_20
  1949     056C                     u159_21:
  1950     056C  2D81               	goto	i1l1335
  1951     056D                     u159_20:
  1952     056D                     i1l1331:
  1953     056D  1FF3               	btfss	___xxtofl@val+3,7
  1954     056E  2D70               	goto	u160_21
  1955     056F  2D71               	goto	u160_20
  1956     0570                     u160_21:
  1957     0570  2D81               	goto	i1l1335
  1958     0571                     u160_20:
  1959     0571                     i1l1333:
  1960     0571  0970               	comf	___xxtofl@val,w
  1961     0572  00FA               	movwf	___xxtofl@arg
  1962     0573  0971               	comf	___xxtofl@val+1,w
  1963     0574  00FB               	movwf	___xxtofl@arg+1
  1964     0575  0972               	comf	___xxtofl@val+2,w
  1965     0576  00FC               	movwf	___xxtofl@arg+2
  1966     0577  0973               	comf	___xxtofl@val+3,w
  1967     0578  00FD               	movwf	___xxtofl@arg+3
  1968     0579  0AFA               	incf	___xxtofl@arg,f
  1969     057A  1903               	skipnz
  1970     057B  0AFB               	incf	___xxtofl@arg+1,f
  1971     057C  1903               	skipnz
  1972     057D  0AFC               	incf	___xxtofl@arg+2,f
  1973     057E  1903               	skipnz
  1974     057F  0AFD               	incf	___xxtofl@arg+3,f
  1975     0580  2D89               	goto	i1l622
  1976     0581                     i1l1335:
  1977     0581  0873               	movf	___xxtofl@val+3,w
  1978     0582  00FD               	movwf	___xxtofl@arg+3
  1979     0583  0872               	movf	___xxtofl@val+2,w
  1980     0584  00FC               	movwf	___xxtofl@arg+2
  1981     0585  0871               	movf	___xxtofl@val+1,w
  1982     0586  00FB               	movwf	___xxtofl@arg+1
  1983     0587  0870               	movf	___xxtofl@val,w
  1984     0588  00FA               	movwf	___xxtofl@arg
  1985     0589                     i1l622:
  1986     0589  0873               	movf	___xxtofl@val+3,w
  1987     058A  0472               	iorwf	___xxtofl@val+2,w
  1988     058B  0471               	iorwf	___xxtofl@val+1,w
  1989     058C  0470               	iorwf	___xxtofl@val,w
  1990     058D  1D03               	skipz
  1991     058E  2D90               	goto	u161_21
  1992     058F  2D91               	goto	u161_20
  1993     0590                     u161_21:
  1994     0590  2D9A               	goto	i1l1341
  1995     0591                     u161_20:
  1996     0591                     i1l1337:
  1997     0591  3000               	movlw	0
  1998     0592  00F3               	movwf	?___xxtofl+3
  1999     0593  3000               	movlw	0
  2000     0594  00F2               	movwf	?___xxtofl+2
  2001     0595  3000               	movlw	0
  2002     0596  00F1               	movwf	?___xxtofl+1
  2003     0597  3000               	movlw	0
  2004     0598  00F0               	movwf	?___xxtofl
  2005     0599  2E1E               	goto	i1l624
  2006     059A                     i1l1341:
  2007     059A  3096               	movlw	150
  2008     059B  00F9               	movwf	___xxtofl@exp
  2009     059C  2DAA               	goto	i1l1347
  2010     059D                     i1l1343:
  2011     059D  3001               	movlw	1
  2012     059E  00FF               	movwf	btemp+1
  2013     059F  087F               	movf	btemp+1,w
  2014     05A0  07F9               	addwf	___xxtofl@exp,f
  2015     05A1                     i1l1345:
  2016     05A1  3001               	movlw	1
  2017     05A2                     u162_25:
  2018     05A2  1003               	clrc
  2019     05A3  0CFD               	rrf	___xxtofl@arg+3,f
  2020     05A4  0CFC               	rrf	___xxtofl@arg+2,f
  2021     05A5  0CFB               	rrf	___xxtofl@arg+1,f
  2022     05A6  0CFA               	rrf	___xxtofl@arg,f
  2023     05A7  3EFF               	addlw	-1
  2024     05A8  1D03               	skipz
  2025     05A9  2DA2               	goto	u162_25
  2026     05AA                     i1l1347:
  2027     05AA  30FE               	movlw	254
  2028     05AB  057D               	andwf	___xxtofl@arg+3,w
  2029     05AC  1D03               	btfss	3,2
  2030     05AD  2DAF               	goto	u163_21
  2031     05AE  2DB0               	goto	u163_20
  2032     05AF                     u163_21:
  2033     05AF  2D9D               	goto	i1l1343
  2034     05B0                     u163_20:
  2035     05B0  2DCC               	goto	i1l1355
  2036     05B1                     i1l1349:
  2037     05B1  3001               	movlw	1
  2038     05B2  00FF               	movwf	btemp+1
  2039     05B3  087F               	movf	btemp+1,w
  2040     05B4  07F9               	addwf	___xxtofl@exp,f
  2041     05B5                     i1l1351:
  2042     05B5  3001               	movlw	1
  2043     05B6  07FA               	addwf	___xxtofl@arg,f
  2044     05B7  3000               	movlw	0
  2045     05B8  1803               	skipnc
  2046     05B9  3001               	movlw	1
  2047     05BA  07FB               	addwf	___xxtofl@arg+1,f
  2048     05BB  3000               	movlw	0
  2049     05BC  1803               	skipnc
  2050     05BD  3001               	movlw	1
  2051     05BE  07FC               	addwf	___xxtofl@arg+2,f
  2052     05BF  3000               	movlw	0
  2053     05C0  1803               	skipnc
  2054     05C1  3001               	movlw	1
  2055     05C2  07FD               	addwf	___xxtofl@arg+3,f
  2056     05C3                     i1l1353:
  2057     05C3  3001               	movlw	1
  2058     05C4                     u164_25:
  2059     05C4  1003               	clrc
  2060     05C5  0CFD               	rrf	___xxtofl@arg+3,f
  2061     05C6  0CFC               	rrf	___xxtofl@arg+2,f
  2062     05C7  0CFB               	rrf	___xxtofl@arg+1,f
  2063     05C8  0CFA               	rrf	___xxtofl@arg,f
  2064     05C9  3EFF               	addlw	-1
  2065     05CA  1D03               	skipz
  2066     05CB  2DC4               	goto	u164_25
  2067     05CC                     i1l1355:
  2068     05CC  30FF               	movlw	255
  2069     05CD  057D               	andwf	___xxtofl@arg+3,w
  2070     05CE  1D03               	btfss	3,2
  2071     05CF  2DD1               	goto	u165_21
  2072     05D0  2DD2               	goto	u165_20
  2073     05D1                     u165_21:
  2074     05D1  2DB1               	goto	i1l1349
  2075     05D2                     u165_20:
  2076     05D2  2DDE               	goto	i1l1359
  2077     05D3                     i1l1357:
  2078     05D3  3001               	movlw	1
  2079     05D4  02F9               	subwf	___xxtofl@exp,f
  2080     05D5  3001               	movlw	1
  2081     05D6  00F4               	movwf	??___xxtofl
  2082     05D7                     u166_25:
  2083     05D7  1003               	clrc
  2084     05D8  0DFA               	rlf	___xxtofl@arg,f
  2085     05D9  0DFB               	rlf	___xxtofl@arg+1,f
  2086     05DA  0DFC               	rlf	___xxtofl@arg+2,f
  2087     05DB  0DFD               	rlf	___xxtofl@arg+3,f
  2088     05DC  0BF4               	decfsz	??___xxtofl,f
  2089     05DD  2DD7               	goto	u166_25
  2090     05DE                     i1l1359:
  2091     05DE  1BFC               	btfsc	___xxtofl@arg+2,7
  2092     05DF  2DE1               	goto	u167_21
  2093     05E0  2DE2               	goto	u167_20
  2094     05E1                     u167_21:
  2095     05E1  2DE8               	goto	i1l635
  2096     05E2                     u167_20:
  2097     05E2                     i1l1361:
  2098     05E2  3002               	movlw	2
  2099     05E3  0279               	subwf	___xxtofl@exp,w
  2100     05E4  1803               	skipnc
  2101     05E5  2DE7               	goto	u168_21
  2102     05E6  2DE8               	goto	u168_20
  2103     05E7                     u168_21:
  2104     05E7  2DD3               	goto	i1l1357
  2105     05E8                     u168_20:
  2106     05E8                     i1l635:
  2107     05E8  1879               	btfsc	___xxtofl@exp,0
  2108     05E9  2DEB               	goto	u169_21
  2109     05EA  2DEC               	goto	u169_20
  2110     05EB                     u169_21:
  2111     05EB  2DF4               	goto	i1l636
  2112     05EC                     u169_20:
  2113     05EC                     i1l1363:
  2114     05EC  30FF               	movlw	255
  2115     05ED  05FA               	andwf	___xxtofl@arg,f
  2116     05EE  30FF               	movlw	255
  2117     05EF  05FB               	andwf	___xxtofl@arg+1,f
  2118     05F0  307F               	movlw	127
  2119     05F1  05FC               	andwf	___xxtofl@arg+2,f
  2120     05F2  30FF               	movlw	255
  2121     05F3  05FD               	andwf	___xxtofl@arg+3,f
  2122     05F4                     i1l636:
  2123     05F4  1003               	clrc
  2124     05F5  0CF9               	rrf	___xxtofl@exp,f
  2125     05F6                     i1l1365:
  2126     05F6  0879               	movf	___xxtofl@exp,w
  2127     05F7  00F4               	movwf	??___xxtofl
  2128     05F8  01F5               	clrf	??___xxtofl+1
  2129     05F9  01F6               	clrf	??___xxtofl+2
  2130     05FA  01F7               	clrf	??___xxtofl+3
  2131     05FB  3018               	movlw	24
  2132     05FC                     u170_25:
  2133     05FC  1003               	clrc
  2134     05FD  0DF4               	rlf	??___xxtofl,f
  2135     05FE  0DF5               	rlf	??___xxtofl+1,f
  2136     05FF  0DF6               	rlf	??___xxtofl+2,f
  2137     0600  0DF7               	rlf	??___xxtofl+3,f
  2138     0601                     u170_20:
  2139     0601  3EFF               	addlw	-1
  2140     0602  1D03               	skipz
  2141     0603  2DFC               	goto	u170_25
  2142     0604  0874               	movf	??___xxtofl,w
  2143     0605  04FA               	iorwf	___xxtofl@arg,f
  2144     0606  0875               	movf	??___xxtofl+1,w
  2145     0607  04FB               	iorwf	___xxtofl@arg+1,f
  2146     0608  0876               	movf	??___xxtofl+2,w
  2147     0609  04FC               	iorwf	___xxtofl@arg+2,f
  2148     060A  0877               	movf	??___xxtofl+3,w
  2149     060B  04FD               	iorwf	___xxtofl@arg+3,f
  2150     060C                     i1l1367:
  2151     060C  0878               	movf	___xxtofl@sign,w
  2152     060D  1903               	btfsc	3,2
  2153     060E  2E10               	goto	u171_21
  2154     060F  2E11               	goto	u171_20
  2155     0610                     u171_21:
  2156     0610  2E16               	goto	i1l1373
  2157     0611                     u171_20:
  2158     0611                     i1l1369:
  2159     0611  1FF3               	btfss	___xxtofl@val+3,7
  2160     0612  2E14               	goto	u172_21
  2161     0613  2E15               	goto	u172_20
  2162     0614                     u172_21:
  2163     0614  2E16               	goto	i1l1373
  2164     0615                     u172_20:
  2165     0615                     i1l1371:
  2166     0615  17FD               	bsf	___xxtofl@arg+3,7
  2167     0616                     i1l1373:
  2168     0616  087D               	movf	___xxtofl@arg+3,w
  2169     0617  00F3               	movwf	?___xxtofl+3
  2170     0618  087C               	movf	___xxtofl@arg+2,w
  2171     0619  00F2               	movwf	?___xxtofl+2
  2172     061A  087B               	movf	___xxtofl@arg+1,w
  2173     061B  00F1               	movwf	?___xxtofl+1
  2174     061C  087A               	movf	___xxtofl@arg,w
  2175     061D  00F0               	movwf	?___xxtofl
  2176     061E                     i1l624:
  2177     061E  0008               	return
  2178     061F                     __end_of___xxtofl:
  2179                           
  2180                           	psect	text10
  2181     003E                     __ptext10:	
  2182 ;; *************** function ___flmul *****************
  2183 ;; Defined at:
  2184 ;;		line 8 in file "C:\Program Files\Microchip\xc8\v2.45\pic\sources\c99\common\sprcmul.c"
  2185 ;; Parameters:    Size  Location     Type
  2186 ;;  b               4    0[BANK0 ] unsigned char 
  2187 ;;  a               4    4[BANK0 ] unsigned char 
  2188 ;; Auto vars:     Size  Location     Type
  2189 ;;  prod            4   20[BANK0 ] struct .
  2190 ;;  grs             4   14[BANK0 ] unsigned long 
  2191 ;;  temp            2   24[BANK0 ] struct .
  2192 ;;  bexp            1   19[BANK0 ] unsigned char 
  2193 ;;  aexp            1   18[BANK0 ] unsigned char 
  2194 ;;  sign            1   13[BANK0 ] unsigned char 
  2195 ;; Return value:  Size  Location     Type
  2196 ;;                  4    0[BANK0 ] unsigned char 
  2197 ;; Registers used:
  2198 ;;		wreg, status,2, status,0, btemp+1, pclath, cstack
  2199 ;; Tracked objects:
  2200 ;;		On entry : 0/0
  2201 ;;		On exit  : 0/0
  2202 ;;		Unchanged: 0/0
  2203 ;; Data sizes:     COMMON   BANK0   BANK1   BANK3   BANK2
  2204 ;;      Params:         0       8       0       0       0
  2205 ;;      Locals:         0      13       0       0       0
  2206 ;;      Temps:          0       5       0       0       0
  2207 ;;      Totals:         0      26       0       0       0
  2208 ;;Total ram usage:       26 bytes
  2209 ;; Hardware stack levels used: 1
  2210 ;; Hardware stack levels required when called: 1
  2211 ;; This function calls:
  2212 ;;		__Umul8_16
  2213 ;; This function is called by:
  2214 ;;		_InterruptRoutine
  2215 ;; This function uses a non-reentrant model
  2216 ;;
  2217                           
  2218     003E                     ___flmul:	
  2219                           ;psect for function ___flmul
  2220                           
  2221     003E                     i1l1187:	
  2222                           ;incstack = 0
  2223                           ; Regs used in ___flmul: [wreg+status,2+status,0+btemp+1+pclath+cstack]
  2224                           
  2225     003E  1283               	bcf	3,5	;RP0=0, select bank0
  2226     003F  1303               	bcf	3,6	;RP1=0, select bank0
  2227     0040  0823               	movf	___flmul@b+3,w
  2228     0041  3980               	andlw	128
  2229     0042  00AD               	movwf	___flmul@sign
  2230     0043                     i1l1189:
  2231     0043  0823               	movf	___flmul@b+3,w
  2232     0044  00A8               	movwf	??___flmul
  2233     0045  0728               	addwf	??___flmul,w
  2234     0046  00B3               	movwf	___flmul@bexp
  2235     0047                     i1l1191:
  2236     0047  1FA2               	btfss	___flmul@b+2,7
  2237     0048  284A               	goto	u122_21
  2238     0049  284B               	goto	u122_20
  2239     004A                     u122_21:
  2240     004A  284C               	goto	i1l1195
  2241     004B                     u122_20:
  2242     004B                     i1l1193:
  2243     004B  1433               	bsf	___flmul@bexp,0
  2244     004C                     i1l1195:
  2245     004C  0833               	movf	___flmul@bexp,w
  2246     004D  1903               	btfsc	3,2
  2247     004E  2850               	goto	u123_21
  2248     004F  2851               	goto	u123_20
  2249     0050                     u123_21:
  2250     0050  2860               	goto	i1l1203
  2251     0051                     u123_20:
  2252     0051                     i1l1197:
  2253     0051  0A33               	incf	___flmul@bexp,w
  2254     0052  1D03               	btfss	3,2
  2255     0053  2855               	goto	u124_21
  2256     0054  2856               	goto	u124_20
  2257     0055                     u124_21:
  2258     0055  285E               	goto	i1l1201
  2259     0056                     u124_20:
  2260     0056                     i1l1199:
  2261     0056  3000               	movlw	0
  2262     0057  00A3               	movwf	___flmul@b+3
  2263     0058  3000               	movlw	0
  2264     0059  00A2               	movwf	___flmul@b+2
  2265     005A  3000               	movlw	0
  2266     005B  00A1               	movwf	___flmul@b+1
  2267     005C  3000               	movlw	0
  2268     005D  00A0               	movwf	___flmul@b
  2269     005E                     i1l1201:
  2270     005E  17A2               	bsf	___flmul@b+2,7
  2271     005F  2868               	goto	i1l1205
  2272     0060                     i1l1203:
  2273     0060  3000               	movlw	0
  2274     0061  00A3               	movwf	___flmul@b+3
  2275     0062  3000               	movlw	0
  2276     0063  00A2               	movwf	___flmul@b+2
  2277     0064  3000               	movlw	0
  2278     0065  00A1               	movwf	___flmul@b+1
  2279     0066  3000               	movlw	0
  2280     0067  00A0               	movwf	___flmul@b
  2281     0068                     i1l1205:
  2282     0068  0827               	movf	___flmul@a+3,w
  2283     0069  3980               	andlw	128
  2284     006A  00FF               	movwf	btemp+1
  2285     006B  087F               	movf	btemp+1,w
  2286     006C  06AD               	xorwf	___flmul@sign,f
  2287     006D                     i1l1207:
  2288     006D  0827               	movf	___flmul@a+3,w
  2289     006E  00A8               	movwf	??___flmul
  2290     006F  0728               	addwf	??___flmul,w
  2291     0070  00B2               	movwf	___flmul@aexp
  2292     0071                     i1l1209:
  2293     0071  1FA6               	btfss	___flmul@a+2,7
  2294     0072  2874               	goto	u125_21
  2295     0073  2875               	goto	u125_20
  2296     0074                     u125_21:
  2297     0074  2876               	goto	i1l1213
  2298     0075                     u125_20:
  2299     0075                     i1l1211:
  2300     0075  1432               	bsf	___flmul@aexp,0
  2301     0076                     i1l1213:
  2302     0076  0832               	movf	___flmul@aexp,w
  2303     0077  1903               	btfsc	3,2
  2304     0078  287A               	goto	u126_21
  2305     0079  287B               	goto	u126_20
  2306     007A                     u126_21:
  2307     007A  288A               	goto	i1l1221
  2308     007B                     u126_20:
  2309     007B                     i1l1215:
  2310     007B  0A32               	incf	___flmul@aexp,w
  2311     007C  1D03               	btfss	3,2
  2312     007D  287F               	goto	u127_21
  2313     007E  2880               	goto	u127_20
  2314     007F                     u127_21:
  2315     007F  2888               	goto	i1l1219
  2316     0080                     u127_20:
  2317     0080                     i1l1217:
  2318     0080  3000               	movlw	0
  2319     0081  00A7               	movwf	___flmul@a+3
  2320     0082  3000               	movlw	0
  2321     0083  00A6               	movwf	___flmul@a+2
  2322     0084  3000               	movlw	0
  2323     0085  00A5               	movwf	___flmul@a+1
  2324     0086  3000               	movlw	0
  2325     0087  00A4               	movwf	___flmul@a
  2326     0088                     i1l1219:
  2327     0088  17A6               	bsf	___flmul@a+2,7
  2328     0089  2892               	goto	i1l1223
  2329     008A                     i1l1221:
  2330     008A  3000               	movlw	0
  2331     008B  00A7               	movwf	___flmul@a+3
  2332     008C  3000               	movlw	0
  2333     008D  00A6               	movwf	___flmul@a+2
  2334     008E  3000               	movlw	0
  2335     008F  00A5               	movwf	___flmul@a+1
  2336     0090  3000               	movlw	0
  2337     0091  00A4               	movwf	___flmul@a
  2338     0092                     i1l1223:
  2339     0092  0832               	movf	___flmul@aexp,w
  2340     0093  1903               	btfsc	3,2
  2341     0094  2896               	goto	u128_21
  2342     0095  2897               	goto	u128_20
  2343     0096                     u128_21:
  2344     0096  289C               	goto	i1l1227
  2345     0097                     u128_20:
  2346     0097                     i1l1225:
  2347     0097  0833               	movf	___flmul@bexp,w
  2348     0098  1D03               	btfss	3,2
  2349     0099  289B               	goto	u129_21
  2350     009A  289C               	goto	u129_20
  2351     009B                     u129_21:
  2352     009B  28A5               	goto	i1l1231
  2353     009C                     u129_20:
  2354     009C                     i1l1227:
  2355     009C  3000               	movlw	0
  2356     009D  00A3               	movwf	?___flmul+3
  2357     009E  3000               	movlw	0
  2358     009F  00A2               	movwf	?___flmul+2
  2359     00A0  3000               	movlw	0
  2360     00A1  00A1               	movwf	?___flmul+1
  2361     00A2  3000               	movlw	0
  2362     00A3  00A0               	movwf	?___flmul
  2363     00A4  2B82               	goto	i1l578
  2364     00A5                     i1l1231:
  2365     00A5  0820               	movf	___flmul@b,w
  2366     00A6  00F0               	movwf	__Umul8_16@multiplicand
  2367     00A7  0826               	movf	___flmul@a+2,w
  2368     00A8  120A  118A  27C7  120A  118A  	fcall	__Umul8_16
  2369     00AD  0871               	movf	?__Umul8_16+1,w
  2370     00AE  1283               	bcf	3,5	;RP0=0, select bank0
  2371     00AF  1303               	bcf	3,6	;RP1=0, select bank0
  2372     00B0  00B9               	movwf	___flmul@temp+1
  2373     00B1  0870               	movf	?__Umul8_16,w
  2374     00B2  00B8               	movwf	___flmul@temp
  2375     00B3                     i1l1233:
  2376     00B3  0838               	movf	___flmul@temp,w
  2377     00B4  00A8               	movwf	??___flmul
  2378     00B5  01A9               	clrf	??___flmul+1
  2379     00B6  01AA               	clrf	??___flmul+2
  2380     00B7  01AB               	clrf	??___flmul+3
  2381     00B8  082B               	movf	??___flmul+3,w
  2382     00B9  00B1               	movwf	___flmul@grs+3
  2383     00BA  082A               	movf	??___flmul+2,w
  2384     00BB  00B0               	movwf	___flmul@grs+2
  2385     00BC  0829               	movf	??___flmul+1,w
  2386     00BD  00AF               	movwf	___flmul@grs+1
  2387     00BE  0828               	movf	??___flmul,w
  2388     00BF  00AE               	movwf	___flmul@grs
  2389     00C0                     i1l1235:
  2390     00C0  0839               	movf	___flmul@temp+1,w
  2391     00C1  00A8               	movwf	??___flmul
  2392     00C2  01A9               	clrf	??___flmul+1
  2393     00C3  01AA               	clrf	??___flmul+2
  2394     00C4  01AB               	clrf	??___flmul+3
  2395     00C5  082B               	movf	??___flmul+3,w
  2396     00C6  00B7               	movwf	___flmul@prod+3
  2397     00C7  082A               	movf	??___flmul+2,w
  2398     00C8  00B6               	movwf	___flmul@prod+2
  2399     00C9  0829               	movf	??___flmul+1,w
  2400     00CA  00B5               	movwf	___flmul@prod+1
  2401     00CB  0828               	movf	??___flmul,w
  2402     00CC  00B4               	movwf	___flmul@prod
  2403     00CD  0821               	movf	___flmul@b+1,w
  2404     00CE  00F0               	movwf	__Umul8_16@multiplicand
  2405     00CF  0825               	movf	___flmul@a+1,w
  2406     00D0  120A  118A  27C7  120A  118A  	fcall	__Umul8_16
  2407     00D5  0871               	movf	?__Umul8_16+1,w
  2408     00D6  1283               	bcf	3,5	;RP0=0, select bank0
  2409     00D7  1303               	bcf	3,6	;RP1=0, select bank0
  2410     00D8  00B9               	movwf	___flmul@temp+1
  2411     00D9  0870               	movf	?__Umul8_16,w
  2412     00DA  00B8               	movwf	___flmul@temp
  2413     00DB                     i1l1237:
  2414     00DB  0838               	movf	___flmul@temp,w
  2415     00DC  00A8               	movwf	??___flmul
  2416     00DD  01A9               	clrf	??___flmul+1
  2417     00DE  01AA               	clrf	??___flmul+2
  2418     00DF  01AB               	clrf	??___flmul+3
  2419     00E0  0828               	movf	??___flmul,w
  2420     00E1  07AE               	addwf	___flmul@grs,f
  2421     00E2  0829               	movf	??___flmul+1,w
  2422     00E3  1103               	clrz
  2423     00E4  1803               	skipnc
  2424     00E5  3E01               	addlw	1
  2425     00E6  1903               	skipnz
  2426     00E7  28E9               	goto	u130_21
  2427     00E8  07AF               	addwf	___flmul@grs+1,f
  2428     00E9                     u130_21:
  2429     00E9  082A               	movf	??___flmul+2,w
  2430     00EA  1103               	clrz
  2431     00EB  1803               	skipnc
  2432     00EC  3E01               	addlw	1
  2433     00ED  1903               	skipnz
  2434     00EE  28F0               	goto	u130_22
  2435     00EF  07B0               	addwf	___flmul@grs+2,f
  2436     00F0                     u130_22:
  2437     00F0  082B               	movf	??___flmul+3,w
  2438     00F1  1103               	clrz
  2439     00F2  1803               	skipnc
  2440     00F3  3E01               	addlw	1
  2441     00F4  1903               	skipnz
  2442     00F5  28F7               	goto	u130_23
  2443     00F6  07B1               	addwf	___flmul@grs+3,f
  2444     00F7                     u130_23:
  2445     00F7                     i1l1239:
  2446     00F7  0839               	movf	___flmul@temp+1,w
  2447     00F8  00A8               	movwf	??___flmul
  2448     00F9  01A9               	clrf	??___flmul+1
  2449     00FA  01AA               	clrf	??___flmul+2
  2450     00FB  01AB               	clrf	??___flmul+3
  2451     00FC  0828               	movf	??___flmul,w
  2452     00FD  07B4               	addwf	___flmul@prod,f
  2453     00FE  0829               	movf	??___flmul+1,w
  2454     00FF  1103               	clrz
  2455     0100  1803               	skipnc
  2456     0101  3E01               	addlw	1
  2457     0102  1903               	skipnz
  2458     0103  2905               	goto	u131_21
  2459     0104  07B5               	addwf	___flmul@prod+1,f
  2460     0105                     u131_21:
  2461     0105  082A               	movf	??___flmul+2,w
  2462     0106  1103               	clrz
  2463     0107  1803               	skipnc
  2464     0108  3E01               	addlw	1
  2465     0109  1903               	skipnz
  2466     010A  290C               	goto	u131_22
  2467     010B  07B6               	addwf	___flmul@prod+2,f
  2468     010C                     u131_22:
  2469     010C  082B               	movf	??___flmul+3,w
  2470     010D  1103               	clrz
  2471     010E  1803               	skipnc
  2472     010F  3E01               	addlw	1
  2473     0110  1903               	skipnz
  2474     0111  2913               	goto	u131_23
  2475     0112  07B7               	addwf	___flmul@prod+3,f
  2476     0113                     u131_23:
  2477     0113  0822               	movf	___flmul@b+2,w
  2478     0114  00F0               	movwf	__Umul8_16@multiplicand
  2479     0115  0824               	movf	___flmul@a,w
  2480     0116  120A  118A  27C7  120A  118A  	fcall	__Umul8_16
  2481     011B  0871               	movf	?__Umul8_16+1,w
  2482     011C  1283               	bcf	3,5	;RP0=0, select bank0
  2483     011D  1303               	bcf	3,6	;RP1=0, select bank0
  2484     011E  00B9               	movwf	___flmul@temp+1
  2485     011F  0870               	movf	?__Umul8_16,w
  2486     0120  00B8               	movwf	___flmul@temp
  2487     0121                     i1l1241:
  2488     0121  0838               	movf	___flmul@temp,w
  2489     0122  00A8               	movwf	??___flmul
  2490     0123  01A9               	clrf	??___flmul+1
  2491     0124  01AA               	clrf	??___flmul+2
  2492     0125  01AB               	clrf	??___flmul+3
  2493     0126  0828               	movf	??___flmul,w
  2494     0127  07AE               	addwf	___flmul@grs,f
  2495     0128  0829               	movf	??___flmul+1,w
  2496     0129  1103               	clrz
  2497     012A  1803               	skipnc
  2498     012B  3E01               	addlw	1
  2499     012C  1903               	skipnz
  2500     012D  292F               	goto	u132_21
  2501     012E  07AF               	addwf	___flmul@grs+1,f
  2502     012F                     u132_21:
  2503     012F  082A               	movf	??___flmul+2,w
  2504     0130  1103               	clrz
  2505     0131  1803               	skipnc
  2506     0132  3E01               	addlw	1
  2507     0133  1903               	skipnz
  2508     0134  2936               	goto	u132_22
  2509     0135  07B0               	addwf	___flmul@grs+2,f
  2510     0136                     u132_22:
  2511     0136  082B               	movf	??___flmul+3,w
  2512     0137  1103               	clrz
  2513     0138  1803               	skipnc
  2514     0139  3E01               	addlw	1
  2515     013A  1903               	skipnz
  2516     013B  293D               	goto	u132_23
  2517     013C  07B1               	addwf	___flmul@grs+3,f
  2518     013D                     u132_23:
  2519     013D                     i1l1243:
  2520     013D  0839               	movf	___flmul@temp+1,w
  2521     013E  00A8               	movwf	??___flmul
  2522     013F  01A9               	clrf	??___flmul+1
  2523     0140  01AA               	clrf	??___flmul+2
  2524     0141  01AB               	clrf	??___flmul+3
  2525     0142  0828               	movf	??___flmul,w
  2526     0143  07B4               	addwf	___flmul@prod,f
  2527     0144  0829               	movf	??___flmul+1,w
  2528     0145  1103               	clrz
  2529     0146  1803               	skipnc
  2530     0147  3E01               	addlw	1
  2531     0148  1903               	skipnz
  2532     0149  294B               	goto	u133_21
  2533     014A  07B5               	addwf	___flmul@prod+1,f
  2534     014B                     u133_21:
  2535     014B  082A               	movf	??___flmul+2,w
  2536     014C  1103               	clrz
  2537     014D  1803               	skipnc
  2538     014E  3E01               	addlw	1
  2539     014F  1903               	skipnz
  2540     0150  2952               	goto	u133_22
  2541     0151  07B6               	addwf	___flmul@prod+2,f
  2542     0152                     u133_22:
  2543     0152  082B               	movf	??___flmul+3,w
  2544     0153  1103               	clrz
  2545     0154  1803               	skipnc
  2546     0155  3E01               	addlw	1
  2547     0156  1903               	skipnz
  2548     0157  2959               	goto	u133_23
  2549     0158  07B7               	addwf	___flmul@prod+3,f
  2550     0159                     u133_23:
  2551     0159                     i1l1245:
  2552     0159  3008               	movlw	8
  2553     015A  00A8               	movwf	??___flmul
  2554     015B                     u134_25:
  2555     015B  1003               	clrc
  2556     015C  0DAE               	rlf	___flmul@grs,f
  2557     015D  0DAF               	rlf	___flmul@grs+1,f
  2558     015E  0DB0               	rlf	___flmul@grs+2,f
  2559     015F  0DB1               	rlf	___flmul@grs+3,f
  2560     0160  0BA8               	decfsz	??___flmul,f
  2561     0161  295B               	goto	u134_25
  2562     0162                     i1l1247:
  2563     0162  0821               	movf	___flmul@b+1,w
  2564     0163  00F0               	movwf	__Umul8_16@multiplicand
  2565     0164  0824               	movf	___flmul@a,w
  2566     0165  120A  118A  27C7  120A  118A  	fcall	__Umul8_16
  2567     016A  0871               	movf	?__Umul8_16+1,w
  2568     016B  1283               	bcf	3,5	;RP0=0, select bank0
  2569     016C  1303               	bcf	3,6	;RP1=0, select bank0
  2570     016D  00B9               	movwf	___flmul@temp+1
  2571     016E  0870               	movf	?__Umul8_16,w
  2572     016F  00B8               	movwf	___flmul@temp
  2573     0170                     i1l1249:
  2574     0170  0838               	movf	___flmul@temp,w
  2575     0171  00A8               	movwf	??___flmul
  2576     0172  0839               	movf	___flmul@temp+1,w
  2577     0173  00A9               	movwf	??___flmul+1
  2578     0174  01AA               	clrf	??___flmul+2
  2579     0175  01AB               	clrf	??___flmul+3
  2580     0176  0828               	movf	??___flmul,w
  2581     0177  07AE               	addwf	___flmul@grs,f
  2582     0178  0829               	movf	??___flmul+1,w
  2583     0179  1103               	clrz
  2584     017A  1803               	skipnc
  2585     017B  3E01               	addlw	1
  2586     017C  1903               	skipnz
  2587     017D  297F               	goto	u135_21
  2588     017E  07AF               	addwf	___flmul@grs+1,f
  2589     017F                     u135_21:
  2590     017F  082A               	movf	??___flmul+2,w
  2591     0180  1103               	clrz
  2592     0181  1803               	skipnc
  2593     0182  3E01               	addlw	1
  2594     0183  1903               	skipnz
  2595     0184  2986               	goto	u135_22
  2596     0185  07B0               	addwf	___flmul@grs+2,f
  2597     0186                     u135_22:
  2598     0186  082B               	movf	??___flmul+3,w
  2599     0187  1103               	clrz
  2600     0188  1803               	skipnc
  2601     0189  3E01               	addlw	1
  2602     018A  1903               	skipnz
  2603     018B  298D               	goto	u135_23
  2604     018C  07B1               	addwf	___flmul@grs+3,f
  2605     018D                     u135_23:
  2606     018D                     i1l1251:
  2607     018D  0820               	movf	___flmul@b,w
  2608     018E  00F0               	movwf	__Umul8_16@multiplicand
  2609     018F  0825               	movf	___flmul@a+1,w
  2610     0190  120A  118A  27C7  120A  118A  	fcall	__Umul8_16
  2611     0195  0871               	movf	?__Umul8_16+1,w
  2612     0196  1283               	bcf	3,5	;RP0=0, select bank0
  2613     0197  1303               	bcf	3,6	;RP1=0, select bank0
  2614     0198  00B9               	movwf	___flmul@temp+1
  2615     0199  0870               	movf	?__Umul8_16,w
  2616     019A  00B8               	movwf	___flmul@temp
  2617     019B                     i1l1253:
  2618     019B  0838               	movf	___flmul@temp,w
  2619     019C  00A8               	movwf	??___flmul
  2620     019D  0839               	movf	___flmul@temp+1,w
  2621     019E  00A9               	movwf	??___flmul+1
  2622     019F  01AA               	clrf	??___flmul+2
  2623     01A0  01AB               	clrf	??___flmul+3
  2624     01A1  0828               	movf	??___flmul,w
  2625     01A2  07AE               	addwf	___flmul@grs,f
  2626     01A3  0829               	movf	??___flmul+1,w
  2627     01A4  1103               	clrz
  2628     01A5  1803               	skipnc
  2629     01A6  3E01               	addlw	1
  2630     01A7  1903               	skipnz
  2631     01A8  29AA               	goto	u136_21
  2632     01A9  07AF               	addwf	___flmul@grs+1,f
  2633     01AA                     u136_21:
  2634     01AA  082A               	movf	??___flmul+2,w
  2635     01AB  1103               	clrz
  2636     01AC  1803               	skipnc
  2637     01AD  3E01               	addlw	1
  2638     01AE  1903               	skipnz
  2639     01AF  29B1               	goto	u136_22
  2640     01B0  07B0               	addwf	___flmul@grs+2,f
  2641     01B1                     u136_22:
  2642     01B1  082B               	movf	??___flmul+3,w
  2643     01B2  1103               	clrz
  2644     01B3  1803               	skipnc
  2645     01B4  3E01               	addlw	1
  2646     01B5  1903               	skipnz
  2647     01B6  29B8               	goto	u136_23
  2648     01B7  07B1               	addwf	___flmul@grs+3,f
  2649     01B8                     u136_23:
  2650     01B8                     i1l1255:
  2651     01B8  3008               	movlw	8
  2652     01B9  00A8               	movwf	??___flmul
  2653     01BA                     u137_25:
  2654     01BA  1003               	clrc
  2655     01BB  0DAE               	rlf	___flmul@grs,f
  2656     01BC  0DAF               	rlf	___flmul@grs+1,f
  2657     01BD  0DB0               	rlf	___flmul@grs+2,f
  2658     01BE  0DB1               	rlf	___flmul@grs+3,f
  2659     01BF  0BA8               	decfsz	??___flmul,f
  2660     01C0  29BA               	goto	u137_25
  2661     01C1  0820               	movf	___flmul@b,w
  2662     01C2  00F0               	movwf	__Umul8_16@multiplicand
  2663     01C3  0824               	movf	___flmul@a,w
  2664     01C4  120A  118A  27C7  120A  118A  	fcall	__Umul8_16
  2665     01C9  0871               	movf	?__Umul8_16+1,w
  2666     01CA  1283               	bcf	3,5	;RP0=0, select bank0
  2667     01CB  1303               	bcf	3,6	;RP1=0, select bank0
  2668     01CC  00B9               	movwf	___flmul@temp+1
  2669     01CD  0870               	movf	?__Umul8_16,w
  2670     01CE  00B8               	movwf	___flmul@temp
  2671     01CF                     i1l1257:
  2672     01CF  0838               	movf	___flmul@temp,w
  2673     01D0  00A8               	movwf	??___flmul
  2674     01D1  0839               	movf	___flmul@temp+1,w
  2675     01D2  00A9               	movwf	??___flmul+1
  2676     01D3  01AA               	clrf	??___flmul+2
  2677     01D4  01AB               	clrf	??___flmul+3
  2678     01D5  0828               	movf	??___flmul,w
  2679     01D6  07AE               	addwf	___flmul@grs,f
  2680     01D7  0829               	movf	??___flmul+1,w
  2681     01D8  1103               	clrz
  2682     01D9  1803               	skipnc
  2683     01DA  3E01               	addlw	1
  2684     01DB  1903               	skipnz
  2685     01DC  29DE               	goto	u138_21
  2686     01DD  07AF               	addwf	___flmul@grs+1,f
  2687     01DE                     u138_21:
  2688     01DE  082A               	movf	??___flmul+2,w
  2689     01DF  1103               	clrz
  2690     01E0  1803               	skipnc
  2691     01E1  3E01               	addlw	1
  2692     01E2  1903               	skipnz
  2693     01E3  29E5               	goto	u138_22
  2694     01E4  07B0               	addwf	___flmul@grs+2,f
  2695     01E5                     u138_22:
  2696     01E5  082B               	movf	??___flmul+3,w
  2697     01E6  1103               	clrz
  2698     01E7  1803               	skipnc
  2699     01E8  3E01               	addlw	1
  2700     01E9  1903               	skipnz
  2701     01EA  29EC               	goto	u138_23
  2702     01EB  07B1               	addwf	___flmul@grs+3,f
  2703     01EC                     u138_23:
  2704     01EC                     i1l1259:
  2705     01EC  0821               	movf	___flmul@b+1,w
  2706     01ED  00F0               	movwf	__Umul8_16@multiplicand
  2707     01EE  0826               	movf	___flmul@a+2,w
  2708     01EF  120A  118A  27C7  120A  118A  	fcall	__Umul8_16
  2709     01F4  0871               	movf	?__Umul8_16+1,w
  2710     01F5  1283               	bcf	3,5	;RP0=0, select bank0
  2711     01F6  1303               	bcf	3,6	;RP1=0, select bank0
  2712     01F7  00B9               	movwf	___flmul@temp+1
  2713     01F8  0870               	movf	?__Umul8_16,w
  2714     01F9  00B8               	movwf	___flmul@temp
  2715     01FA  0838               	movf	___flmul@temp,w
  2716     01FB  00A8               	movwf	??___flmul
  2717     01FC  0839               	movf	___flmul@temp+1,w
  2718     01FD  00A9               	movwf	??___flmul+1
  2719     01FE  01AA               	clrf	??___flmul+2
  2720     01FF  01AB               	clrf	??___flmul+3
  2721     0200  0828               	movf	??___flmul,w
  2722     0201  07B4               	addwf	___flmul@prod,f
  2723     0202  0829               	movf	??___flmul+1,w
  2724     0203  1103               	clrz
  2725     0204  1803               	skipnc
  2726     0205  3E01               	addlw	1
  2727     0206  1903               	skipnz
  2728     0207  2A09               	goto	u139_21
  2729     0208  07B5               	addwf	___flmul@prod+1,f
  2730     0209                     u139_21:
  2731     0209  082A               	movf	??___flmul+2,w
  2732     020A  1103               	clrz
  2733     020B  1803               	skipnc
  2734     020C  3E01               	addlw	1
  2735     020D  1903               	skipnz
  2736     020E  2A10               	goto	u139_22
  2737     020F  07B6               	addwf	___flmul@prod+2,f
  2738     0210                     u139_22:
  2739     0210  082B               	movf	??___flmul+3,w
  2740     0211  1103               	clrz
  2741     0212  1803               	skipnc
  2742     0213  3E01               	addlw	1
  2743     0214  1903               	skipnz
  2744     0215  2A17               	goto	u139_23
  2745     0216  07B7               	addwf	___flmul@prod+3,f
  2746     0217                     u139_23:
  2747     0217                     i1l1261:
  2748     0217  0822               	movf	___flmul@b+2,w
  2749     0218  00F0               	movwf	__Umul8_16@multiplicand
  2750     0219  0825               	movf	___flmul@a+1,w
  2751     021A  120A  118A  27C7  120A  118A  	fcall	__Umul8_16
  2752     021F  0871               	movf	?__Umul8_16+1,w
  2753     0220  1283               	bcf	3,5	;RP0=0, select bank0
  2754     0221  1303               	bcf	3,6	;RP1=0, select bank0
  2755     0222  00B9               	movwf	___flmul@temp+1
  2756     0223  0870               	movf	?__Umul8_16,w
  2757     0224  00B8               	movwf	___flmul@temp
  2758     0225                     i1l1263:
  2759     0225  0838               	movf	___flmul@temp,w
  2760     0226  00A8               	movwf	??___flmul
  2761     0227  0839               	movf	___flmul@temp+1,w
  2762     0228  00A9               	movwf	??___flmul+1
  2763     0229  01AA               	clrf	??___flmul+2
  2764     022A  01AB               	clrf	??___flmul+3
  2765     022B  0828               	movf	??___flmul,w
  2766     022C  07B4               	addwf	___flmul@prod,f
  2767     022D  0829               	movf	??___flmul+1,w
  2768     022E  1103               	clrz
  2769     022F  1803               	skipnc
  2770     0230  3E01               	addlw	1
  2771     0231  1903               	skipnz
  2772     0232  2A34               	goto	u140_21
  2773     0233  07B5               	addwf	___flmul@prod+1,f
  2774     0234                     u140_21:
  2775     0234  082A               	movf	??___flmul+2,w
  2776     0235  1103               	clrz
  2777     0236  1803               	skipnc
  2778     0237  3E01               	addlw	1
  2779     0238  1903               	skipnz
  2780     0239  2A3B               	goto	u140_22
  2781     023A  07B6               	addwf	___flmul@prod+2,f
  2782     023B                     u140_22:
  2783     023B  082B               	movf	??___flmul+3,w
  2784     023C  1103               	clrz
  2785     023D  1803               	skipnc
  2786     023E  3E01               	addlw	1
  2787     023F  1903               	skipnz
  2788     0240  2A42               	goto	u140_23
  2789     0241  07B7               	addwf	___flmul@prod+3,f
  2790     0242                     u140_23:
  2791     0242  0822               	movf	___flmul@b+2,w
  2792     0243  00F0               	movwf	__Umul8_16@multiplicand
  2793     0244  0826               	movf	___flmul@a+2,w
  2794     0245  120A  118A  27C7  120A  118A  	fcall	__Umul8_16
  2795     024A  0871               	movf	?__Umul8_16+1,w
  2796     024B  1283               	bcf	3,5	;RP0=0, select bank0
  2797     024C  1303               	bcf	3,6	;RP1=0, select bank0
  2798     024D  00B9               	movwf	___flmul@temp+1
  2799     024E  0870               	movf	?__Umul8_16,w
  2800     024F  00B8               	movwf	___flmul@temp
  2801     0250                     i1l1265:
  2802     0250  0838               	movf	___flmul@temp,w
  2803     0251  00A8               	movwf	??___flmul
  2804     0252  0839               	movf	___flmul@temp+1,w
  2805     0253  00A9               	movwf	??___flmul+1
  2806     0254  01AA               	clrf	??___flmul+2
  2807     0255  01AB               	clrf	??___flmul+3
  2808     0256  3008               	movlw	8
  2809     0257                     u141_25:
  2810     0257  1003               	clrc
  2811     0258  0DA8               	rlf	??___flmul,f
  2812     0259  0DA9               	rlf	??___flmul+1,f
  2813     025A  0DAA               	rlf	??___flmul+2,f
  2814     025B  0DAB               	rlf	??___flmul+3,f
  2815     025C                     u141_20:
  2816     025C  3EFF               	addlw	-1
  2817     025D  1D03               	skipz
  2818     025E  2A57               	goto	u141_25
  2819     025F  0828               	movf	??___flmul,w
  2820     0260  07B4               	addwf	___flmul@prod,f
  2821     0261  0829               	movf	??___flmul+1,w
  2822     0262  1103               	clrz
  2823     0263  1803               	skipnc
  2824     0264  3E01               	addlw	1
  2825     0265  1903               	skipnz
  2826     0266  2A68               	goto	u142_21
  2827     0267  07B5               	addwf	___flmul@prod+1,f
  2828     0268                     u142_21:
  2829     0268  082A               	movf	??___flmul+2,w
  2830     0269  1103               	clrz
  2831     026A  1803               	skipnc
  2832     026B  3E01               	addlw	1
  2833     026C  1903               	skipnz
  2834     026D  2A6F               	goto	u142_22
  2835     026E  07B6               	addwf	___flmul@prod+2,f
  2836     026F                     u142_22:
  2837     026F  082B               	movf	??___flmul+3,w
  2838     0270  1103               	clrz
  2839     0271  1803               	skipnc
  2840     0272  3E01               	addlw	1
  2841     0273  1903               	skipnz
  2842     0274  2A76               	goto	u142_23
  2843     0275  07B7               	addwf	___flmul@prod+3,f
  2844     0276                     u142_23:
  2845     0276                     i1l1267:
  2846     0276  082E               	movf	___flmul@grs,w
  2847     0277  00A8               	movwf	??___flmul
  2848     0278  082F               	movf	___flmul@grs+1,w
  2849     0279  00A9               	movwf	??___flmul+1
  2850     027A  0830               	movf	___flmul@grs+2,w
  2851     027B  00AA               	movwf	??___flmul+2
  2852     027C  0831               	movf	___flmul@grs+3,w
  2853     027D  00AB               	movwf	??___flmul+3
  2854     027E  3018               	movlw	24
  2855     027F                     u143_25:
  2856     027F  1003               	clrc
  2857     0280  0CAB               	rrf	??___flmul+3,f
  2858     0281  0CAA               	rrf	??___flmul+2,f
  2859     0282  0CA9               	rrf	??___flmul+1,f
  2860     0283  0CA8               	rrf	??___flmul,f
  2861     0284                     u143_20:
  2862     0284  3EFF               	addlw	-1
  2863     0285  1D03               	skipz
  2864     0286  2A7F               	goto	u143_25
  2865     0287  0828               	movf	??___flmul,w
  2866     0288  07B4               	addwf	___flmul@prod,f
  2867     0289  0829               	movf	??___flmul+1,w
  2868     028A  1103               	clrz
  2869     028B  1803               	skipnc
  2870     028C  3E01               	addlw	1
  2871     028D  1903               	skipnz
  2872     028E  2A90               	goto	u144_21
  2873     028F  07B5               	addwf	___flmul@prod+1,f
  2874     0290                     u144_21:
  2875     0290  082A               	movf	??___flmul+2,w
  2876     0291  1103               	clrz
  2877     0292  1803               	skipnc
  2878     0293  3E01               	addlw	1
  2879     0294  1903               	skipnz
  2880     0295  2A97               	goto	u144_22
  2881     0296  07B6               	addwf	___flmul@prod+2,f
  2882     0297                     u144_22:
  2883     0297  082B               	movf	??___flmul+3,w
  2884     0298  1103               	clrz
  2885     0299  1803               	skipnc
  2886     029A  3E01               	addlw	1
  2887     029B  1903               	skipnz
  2888     029C  2A9E               	goto	u144_23
  2889     029D  07B7               	addwf	___flmul@prod+3,f
  2890     029E                     u144_23:
  2891     029E                     i1l1269:
  2892     029E  3008               	movlw	8
  2893     029F  00A8               	movwf	??___flmul
  2894     02A0                     u145_25:
  2895     02A0  1003               	clrc
  2896     02A1  0DAE               	rlf	___flmul@grs,f
  2897     02A2  0DAF               	rlf	___flmul@grs+1,f
  2898     02A3  0DB0               	rlf	___flmul@grs+2,f
  2899     02A4  0DB1               	rlf	___flmul@grs+3,f
  2900     02A5  0BA8               	decfsz	??___flmul,f
  2901     02A6  2AA0               	goto	u145_25
  2902     02A7                     i1l1271:
  2903     02A7  0833               	movf	___flmul@bexp,w
  2904     02A8  0732               	addwf	___flmul@aexp,w
  2905     02A9  00A8               	movwf	??___flmul
  2906     02AA  01A9               	clrf	??___flmul+1
  2907     02AB  0DA9               	rlf	??___flmul+1,f
  2908     02AC  0828               	movf	??___flmul,w
  2909     02AD  3E82               	addlw	130
  2910     02AE  00B8               	movwf	___flmul@temp
  2911     02AF  0829               	movf	??___flmul+1,w
  2912     02B0  1803               	skipnc
  2913     02B1  3E01               	addlw	1
  2914     02B2  3EFF               	addlw	255
  2915     02B3  00B9               	movwf	___flmul@temp+1
  2916     02B4  2AD2               	goto	i1l1283
  2917     02B5                     i1l1273:
  2918     02B5  3001               	movlw	1
  2919     02B6  00A8               	movwf	??___flmul
  2920     02B7                     u146_25:
  2921     02B7  1003               	clrc
  2922     02B8  0DB4               	rlf	___flmul@prod,f
  2923     02B9  0DB5               	rlf	___flmul@prod+1,f
  2924     02BA  0DB6               	rlf	___flmul@prod+2,f
  2925     02BB  0DB7               	rlf	___flmul@prod+3,f
  2926     02BC  0BA8               	decfsz	??___flmul,f
  2927     02BD  2AB7               	goto	u146_25
  2928     02BE                     i1l1275:
  2929     02BE  1FB1               	btfss	___flmul@grs+3,7
  2930     02BF  2AC1               	goto	u147_21
  2931     02C0  2AC2               	goto	u147_20
  2932     02C1                     u147_21:
  2933     02C1  2AC3               	goto	i1l1279
  2934     02C2                     u147_20:
  2935     02C2                     i1l1277:
  2936     02C2  1434               	bsf	___flmul@prod,0
  2937     02C3                     i1l1279:
  2938     02C3  3001               	movlw	1
  2939     02C4  00A8               	movwf	??___flmul
  2940     02C5                     u148_25:
  2941     02C5  1003               	clrc
  2942     02C6  0DAE               	rlf	___flmul@grs,f
  2943     02C7  0DAF               	rlf	___flmul@grs+1,f
  2944     02C8  0DB0               	rlf	___flmul@grs+2,f
  2945     02C9  0DB1               	rlf	___flmul@grs+3,f
  2946     02CA  0BA8               	decfsz	??___flmul,f
  2947     02CB  2AC5               	goto	u148_25
  2948     02CC                     i1l1281:
  2949     02CC  30FF               	movlw	255
  2950     02CD  07B8               	addwf	___flmul@temp,f
  2951     02CE  1803               	skipnc
  2952     02CF  0AB9               	incf	___flmul@temp+1,f
  2953     02D0  30FF               	movlw	255
  2954     02D1  07B9               	addwf	___flmul@temp+1,f
  2955     02D2                     i1l1283:
  2956     02D2  1FB6               	btfss	___flmul@prod+2,7
  2957     02D3  2AD5               	goto	u149_21
  2958     02D4  2AD6               	goto	u149_20
  2959     02D5                     u149_21:
  2960     02D5  2AB5               	goto	i1l1273
  2961     02D6                     u149_20:
  2962     02D6                     i1l1285:
  2963     02D6  01B2               	clrf	___flmul@aexp
  2964     02D7                     i1l1287:
  2965     02D7  1FB1               	btfss	___flmul@grs+3,7
  2966     02D8  2ADA               	goto	u150_21
  2967     02D9  2ADB               	goto	u150_20
  2968     02DA                     u150_21:
  2969     02DA  2AF7               	goto	i1l1295
  2970     02DB                     u150_20:
  2971     02DB                     i1l1289:
  2972     02DB  30FF               	movlw	255
  2973     02DC  052E               	andwf	___flmul@grs,w
  2974     02DD  00A8               	movwf	??___flmul
  2975     02DE  30FF               	movlw	255
  2976     02DF  052F               	andwf	___flmul@grs+1,w
  2977     02E0  00A9               	movwf	??___flmul+1
  2978     02E1  30FF               	movlw	255
  2979     02E2  0530               	andwf	___flmul@grs+2,w
  2980     02E3  00AA               	movwf	??___flmul+2
  2981     02E4  307F               	movlw	127
  2982     02E5  0531               	andwf	___flmul@grs+3,w
  2983     02E6  00AB               	movwf	??___flmul+3
  2984     02E7  082B               	movf	??___flmul+3,w
  2985     02E8  042A               	iorwf	??___flmul+2,w
  2986     02E9  0429               	iorwf	??___flmul+1,w
  2987     02EA  0428               	iorwf	??___flmul,w
  2988     02EB  1903               	skipnz
  2989     02EC  2AEE               	goto	u151_21
  2990     02ED  2AEF               	goto	u151_20
  2991     02EE                     u151_21:
  2992     02EE  2AF2               	goto	i1l584
  2993     02EF                     u151_20:
  2994     02EF                     i1l1291:
  2995     02EF  01B2               	clrf	___flmul@aexp
  2996     02F0  0AB2               	incf	___flmul@aexp,f
  2997     02F1  2AF7               	goto	i1l1295
  2998     02F2                     i1l584:
  2999     02F2  1C34               	btfss	___flmul@prod,0
  3000     02F3  2AF5               	goto	u152_21
  3001     02F4  2AF6               	goto	u152_20
  3002     02F5                     u152_21:
  3003     02F5  2AF7               	goto	i1l1295
  3004     02F6                     u152_20:
  3005     02F6  2AEF               	goto	i1l1291
  3006     02F7                     i1l1295:
  3007     02F7  0832               	movf	___flmul@aexp,w
  3008     02F8  1903               	btfsc	3,2
  3009     02F9  2AFB               	goto	u153_21
  3010     02FA  2AFC               	goto	u153_20
  3011     02FB                     u153_21:
  3012     02FB  2B2D               	goto	i1l1305
  3013     02FC                     u153_20:
  3014     02FC                     i1l1297:
  3015     02FC  3001               	movlw	1
  3016     02FD  07B4               	addwf	___flmul@prod,f
  3017     02FE  3000               	movlw	0
  3018     02FF  1803               	skipnc
  3019     0300  3001               	movlw	1
  3020     0301  07B5               	addwf	___flmul@prod+1,f
  3021     0302  3000               	movlw	0
  3022     0303  1803               	skipnc
  3023     0304  3001               	movlw	1
  3024     0305  07B6               	addwf	___flmul@prod+2,f
  3025     0306  3000               	movlw	0
  3026     0307  1803               	skipnc
  3027     0308  3001               	movlw	1
  3028     0309  07B7               	addwf	___flmul@prod+3,f
  3029     030A                     i1l1299:
  3030     030A  1C37               	btfss	___flmul@prod+3,0
  3031     030B  2B0D               	goto	u154_21
  3032     030C  2B0E               	goto	u154_20
  3033     030D                     u154_21:
  3034     030D  2B2D               	goto	i1l1305
  3035     030E                     u154_20:
  3036     030E                     i1l1301:
  3037     030E  0834               	movf	___flmul@prod,w
  3038     030F  00A8               	movwf	??___flmul
  3039     0310  0835               	movf	___flmul@prod+1,w
  3040     0311  00A9               	movwf	??___flmul+1
  3041     0312  0836               	movf	___flmul@prod+2,w
  3042     0313  00AA               	movwf	??___flmul+2
  3043     0314  0837               	movf	___flmul@prod+3,w
  3044     0315  00AB               	movwf	??___flmul+3
  3045     0316  3001               	movlw	1
  3046     0317  00AC               	movwf	??___flmul+4
  3047     0318                     u155_25:
  3048     0318  0D2B               	rlf	??___flmul+3,w
  3049     0319  0CAB               	rrf	??___flmul+3,f
  3050     031A  0CAA               	rrf	??___flmul+2,f
  3051     031B  0CA9               	rrf	??___flmul+1,f
  3052     031C  0CA8               	rrf	??___flmul,f
  3053     031D                     u155_20:
  3054     031D  0BAC               	decfsz	??___flmul+4,f
  3055     031E  2B18               	goto	u155_25
  3056     031F  082B               	movf	??___flmul+3,w
  3057     0320  00B7               	movwf	___flmul@prod+3
  3058     0321  082A               	movf	??___flmul+2,w
  3059     0322  00B6               	movwf	___flmul@prod+2
  3060     0323  0829               	movf	??___flmul+1,w
  3061     0324  00B5               	movwf	___flmul@prod+1
  3062     0325  0828               	movf	??___flmul,w
  3063     0326  00B4               	movwf	___flmul@prod
  3064     0327                     i1l1303:
  3065     0327  3001               	movlw	1
  3066     0328  07B8               	addwf	___flmul@temp,f
  3067     0329  1803               	skipnc
  3068     032A  0AB9               	incf	___flmul@temp+1,f
  3069     032B  3000               	movlw	0
  3070     032C  07B9               	addwf	___flmul@temp+1,f
  3071     032D                     i1l1305:
  3072     032D  0839               	movf	___flmul@temp+1,w
  3073     032E  3A80               	xorlw	128
  3074     032F  00FF               	movwf	btemp+1
  3075     0330  3080               	movlw	128
  3076     0331  027F               	subwf	btemp+1,w
  3077     0332  1D03               	skipz
  3078     0333  2B36               	goto	u156_25
  3079     0334  30FF               	movlw	255
  3080     0335  0238               	subwf	___flmul@temp,w
  3081     0336                     u156_25:
  3082     0336  1C03               	skipc
  3083     0337  2B39               	goto	u156_21
  3084     0338  2B3A               	goto	u156_20
  3085     0339                     u156_21:
  3086     0339  2B45               	goto	i1l1309
  3087     033A                     u156_20:
  3088     033A                     i1l1307:
  3089     033A  307F               	movlw	127
  3090     033B  1283               	bcf	3,5	;RP0=0, select bank0
  3091     033C  1303               	bcf	3,6	;RP1=0, select bank0
  3092     033D  00B7               	movwf	___flmul@prod+3
  3093     033E  3080               	movlw	128
  3094     033F  00B6               	movwf	___flmul@prod+2
  3095     0340  3000               	movlw	0
  3096     0341  00B5               	movwf	___flmul@prod+1
  3097     0342  3000               	movlw	0
  3098     0343  00B4               	movwf	___flmul@prod
  3099     0344  2B76               	goto	i1l1323
  3100     0345                     i1l1309:
  3101     0345  1283               	bcf	3,5	;RP0=0, select bank0
  3102     0346  1303               	bcf	3,6	;RP1=0, select bank0
  3103     0347  0839               	movf	___flmul@temp+1,w
  3104     0348  3A80               	xorlw	128
  3105     0349  00FF               	movwf	btemp+1
  3106     034A  3080               	movlw	128
  3107     034B  027F               	subwf	btemp+1,w
  3108     034C  1D03               	skipz
  3109     034D  2B50               	goto	u157_25
  3110     034E  3001               	movlw	1
  3111     034F  0238               	subwf	___flmul@temp,w
  3112     0350                     u157_25:
  3113     0350  1803               	skipnc
  3114     0351  2B53               	goto	u157_21
  3115     0352  2B54               	goto	u157_20
  3116     0353                     u157_21:
  3117     0353  2B60               	goto	i1l1315
  3118     0354                     u157_20:
  3119     0354                     i1l1311:
  3120     0354  3000               	movlw	0
  3121     0355  1283               	bcf	3,5	;RP0=0, select bank0
  3122     0356  1303               	bcf	3,6	;RP1=0, select bank0
  3123     0357  00B7               	movwf	___flmul@prod+3
  3124     0358  3000               	movlw	0
  3125     0359  00B6               	movwf	___flmul@prod+2
  3126     035A  3000               	movlw	0
  3127     035B  00B5               	movwf	___flmul@prod+1
  3128     035C  3000               	movlw	0
  3129     035D  00B4               	movwf	___flmul@prod
  3130     035E                     i1l1313:
  3131     035E  01AD               	clrf	___flmul@sign
  3132     035F  2B76               	goto	i1l1323
  3133     0360                     i1l1315:
  3134     0360  1283               	bcf	3,5	;RP0=0, select bank0
  3135     0361  1303               	bcf	3,6	;RP1=0, select bank0
  3136     0362  0838               	movf	___flmul@temp,w
  3137     0363  00B3               	movwf	___flmul@bexp
  3138     0364  30FF               	movlw	255
  3139     0365  05B4               	andwf	___flmul@prod,f
  3140     0366  30FF               	movlw	255
  3141     0367  05B5               	andwf	___flmul@prod+1,f
  3142     0368  307F               	movlw	127
  3143     0369  05B6               	andwf	___flmul@prod+2,f
  3144     036A  3000               	movlw	0
  3145     036B  05B7               	andwf	___flmul@prod+3,f
  3146     036C                     i1l1317:
  3147     036C  1C33               	btfss	___flmul@bexp,0
  3148     036D  2B6F               	goto	u158_21
  3149     036E  2B70               	goto	u158_20
  3150     036F                     u158_21:
  3151     036F  2B71               	goto	i1l1321
  3152     0370                     u158_20:
  3153     0370                     i1l1319:
  3154     0370  17B6               	bsf	___flmul@prod+2,7
  3155     0371                     i1l1321:
  3156     0371  0833               	movf	___flmul@bexp,w
  3157     0372  00A8               	movwf	??___flmul
  3158     0373  1003               	clrc
  3159     0374  0C28               	rrf	??___flmul,w
  3160     0375  00B7               	movwf	___flmul@prod+3
  3161     0376                     i1l1323:
  3162     0376  082D               	movf	___flmul@sign,w
  3163     0377  00FF               	movwf	btemp+1
  3164     0378  087F               	movf	btemp+1,w
  3165     0379  04B7               	iorwf	___flmul@prod+3,f
  3166     037A                     i1l1325:
  3167     037A  0837               	movf	___flmul@prod+3,w
  3168     037B  00A3               	movwf	?___flmul+3
  3169     037C  0836               	movf	___flmul@prod+2,w
  3170     037D  00A2               	movwf	?___flmul+2
  3171     037E  0835               	movf	___flmul@prod+1,w
  3172     037F  00A1               	movwf	?___flmul+1
  3173     0380  0834               	movf	___flmul@prod,w
  3174     0381  00A0               	movwf	?___flmul
  3175     0382                     i1l578:
  3176     0382  0008               	return
  3177     0383                     __end_of___flmul:
  3178                           
  3179                           	psect	text11
  3180     07C7                     __ptext11:	
  3181 ;; *************** function __Umul8_16 *****************
  3182 ;; Defined at:
  3183 ;;		line 4 in file "C:\Program Files\Microchip\xc8\v2.45\pic\sources\c99\common\Umul8_16.c"
  3184 ;; Parameters:    Size  Location     Type
  3185 ;;  multiplier      1    wreg     unsigned char 
  3186 ;;  multiplicand    1    0[COMMON] unsigned char 
  3187 ;; Auto vars:     Size  Location     Type
  3188 ;;  multiplier      1    8[COMMON] unsigned char 
  3189 ;;  word_mpld       2    6[COMMON] unsigned short 
  3190 ;;  product         2    4[COMMON] unsigned short 
  3191 ;; Return value:  Size  Location     Type
  3192 ;;                  2    0[COMMON] unsigned int 
  3193 ;; Registers used:
  3194 ;;		wreg, status,2, status,0
  3195 ;; Tracked objects:
  3196 ;;		On entry : 0/0
  3197 ;;		On exit  : 0/0
  3198 ;;		Unchanged: 0/0
  3199 ;; Data sizes:     COMMON   BANK0   BANK1   BANK3   BANK2
  3200 ;;      Params:         2       0       0       0       0
  3201 ;;      Locals:         5       0       0       0       0
  3202 ;;      Temps:          2       0       0       0       0
  3203 ;;      Totals:         9       0       0       0       0
  3204 ;;Total ram usage:        9 bytes
  3205 ;; Hardware stack levels used: 1
  3206 ;; This function calls:
  3207 ;;		Nothing
  3208 ;; This function is called by:
  3209 ;;		___flmul
  3210 ;; This function uses a non-reentrant model
  3211 ;;
  3212                           
  3213     07C7                     __Umul8_16:	
  3214                           ;psect for function __Umul8_16
  3215                           
  3216                           
  3217                           ;incstack = 0
  3218                           ; Regs used in __Umul8_16: [wreg+status,2+status,0]
  3219                           ;__Umul8_16@multiplier stored from wreg
  3220     07C7  00F8               	movwf	__Umul8_16@multiplier
  3221     07C8                     i1l1059:
  3222     07C8  01F4               	clrf	__Umul8_16@product
  3223     07C9  01F5               	clrf	__Umul8_16@product+1
  3224     07CA                     i1l1061:
  3225     07CA  0870               	movf	__Umul8_16@multiplicand,w
  3226     07CB  00F2               	movwf	??__Umul8_16
  3227     07CC  01F3               	clrf	??__Umul8_16+1
  3228     07CD  0872               	movf	??__Umul8_16,w
  3229     07CE  00F6               	movwf	__Umul8_16@word_mpld
  3230     07CF  0873               	movf	??__Umul8_16+1,w
  3231     07D0  00F7               	movwf	__Umul8_16@word_mpld+1
  3232     07D1                     i1l1063:
  3233     07D1  1C78               	btfss	__Umul8_16@multiplier,0
  3234     07D2  2FD4               	goto	u92_21
  3235     07D3  2FD5               	goto	u92_20
  3236     07D4                     u92_21:
  3237     07D4  2FDB               	goto	i1l597
  3238     07D5                     u92_20:
  3239     07D5                     i1l1065:
  3240     07D5  0876               	movf	__Umul8_16@word_mpld,w
  3241     07D6  07F4               	addwf	__Umul8_16@product,f
  3242     07D7  1803               	skipnc
  3243     07D8  0AF5               	incf	__Umul8_16@product+1,f
  3244     07D9  0877               	movf	__Umul8_16@word_mpld+1,w
  3245     07DA  07F5               	addwf	__Umul8_16@product+1,f
  3246     07DB                     i1l597:
  3247     07DB  3001               	movlw	1
  3248     07DC                     u93_25:
  3249     07DC  1003               	clrc
  3250     07DD  0DF6               	rlf	__Umul8_16@word_mpld,f
  3251     07DE  0DF7               	rlf	__Umul8_16@word_mpld+1,f
  3252     07DF  3EFF               	addlw	-1
  3253     07E0  1D03               	skipz
  3254     07E1  2FDC               	goto	u93_25
  3255     07E2  1003               	clrc
  3256     07E3  0CF8               	rrf	__Umul8_16@multiplier,f
  3257     07E4                     i1l1067:
  3258     07E4  0878               	movf	__Umul8_16@multiplier,w
  3259     07E5  1D03               	btfss	3,2
  3260     07E6  2FE8               	goto	u94_21
  3261     07E7  2FE9               	goto	u94_20
  3262     07E8                     u94_21:
  3263     07E8  2FD1               	goto	i1l1063
  3264     07E9                     u94_20:
  3265     07E9                     i1l1069:
  3266     07E9  0875               	movf	__Umul8_16@product+1,w
  3267     07EA  00F1               	movwf	?__Umul8_16+1
  3268     07EB  0874               	movf	__Umul8_16@product,w
  3269     07EC  00F0               	movwf	?__Umul8_16
  3270     07ED                     i1l599:
  3271     07ED  0008               	return
  3272     07EE                     __end_of__Umul8_16:
  3273                           
  3274                           	psect	text12
  3275     061F                     __ptext12:	
  3276 ;; *************** function ___flge *****************
  3277 ;; Defined at:
  3278 ;;		line 4 in file "C:\Program Files\Microchip\xc8\v2.45\pic\sources\c99\common\flge.c"
  3279 ;; Parameters:    Size  Location     Type
  3280 ;;  ff1             4    0[COMMON] unsigned int 
  3281 ;;  ff2             4    4[COMMON] unsigned int 
  3282 ;; Auto vars:     Size  Location     Type
  3283 ;;		None
  3284 ;; Return value:  Size  Location     Type
  3285 ;;		None               void
  3286 ;; Registers used:
  3287 ;;		wreg, status,2, status,0
  3288 ;; Tracked objects:
  3289 ;;		On entry : 0/0
  3290 ;;		On exit  : 0/0
  3291 ;;		Unchanged: 0/0
  3292 ;; Data sizes:     COMMON   BANK0   BANK1   BANK3   BANK2
  3293 ;;      Params:         8       0       0       0       0
  3294 ;;      Locals:         0       0       0       0       0
  3295 ;;      Temps:          4       0       0       0       0
  3296 ;;      Totals:        12       0       0       0       0
  3297 ;;Total ram usage:       12 bytes
  3298 ;; Hardware stack levels used: 1
  3299 ;; This function calls:
  3300 ;;		Nothing
  3301 ;; This function is called by:
  3302 ;;		_InterruptRoutine
  3303 ;; This function uses a non-reentrant model
  3304 ;;
  3305                           
  3306     061F                     ___flge:	
  3307                           ;psect for function ___flge
  3308                           
  3309     061F                     i1l1167:	
  3310                           ;incstack = 0
  3311                           ; Regs used in ___flge: [wreg+status,2+status,0]
  3312                           
  3313     061F  3000               	movlw	0
  3314     0620  0570               	andwf	___flge@ff1,w
  3315     0621  00F8               	movwf	??___flge
  3316     0622  3000               	movlw	0
  3317     0623  0571               	andwf	___flge@ff1+1,w
  3318     0624  00F9               	movwf	??___flge+1
  3319     0625  3080               	movlw	128
  3320     0626  0572               	andwf	___flge@ff1+2,w
  3321     0627  00FA               	movwf	??___flge+2
  3322     0628  307F               	movlw	127
  3323     0629  0573               	andwf	___flge@ff1+3,w
  3324     062A  00FB               	movwf	??___flge+3
  3325     062B  087B               	movf	??___flge+3,w
  3326     062C  047A               	iorwf	??___flge+2,w
  3327     062D  0479               	iorwf	??___flge+1,w
  3328     062E  0478               	iorwf	??___flge,w
  3329     062F  1D03               	skipz
  3330     0630  2E32               	goto	u115_21
  3331     0631  2E33               	goto	u115_20
  3332     0632                     u115_21:
  3333     0632  2E3B               	goto	i1l359
  3334     0633                     u115_20:
  3335     0633                     i1l1169:
  3336     0633  3000               	movlw	0
  3337     0634  00F3               	movwf	___flge@ff1+3
  3338     0635  3000               	movlw	0
  3339     0636  00F2               	movwf	___flge@ff1+2
  3340     0637  3000               	movlw	0
  3341     0638  00F1               	movwf	___flge@ff1+1
  3342     0639  3000               	movlw	0
  3343     063A  00F0               	movwf	___flge@ff1
  3344     063B                     i1l359:
  3345     063B  3000               	movlw	0
  3346     063C  0574               	andwf	___flge@ff2,w
  3347     063D  00F8               	movwf	??___flge
  3348     063E  3000               	movlw	0
  3349     063F  0575               	andwf	___flge@ff2+1,w
  3350     0640  00F9               	movwf	??___flge+1
  3351     0641  3080               	movlw	128
  3352     0642  0576               	andwf	___flge@ff2+2,w
  3353     0643  00FA               	movwf	??___flge+2
  3354     0644  307F               	movlw	127
  3355     0645  0577               	andwf	___flge@ff2+3,w
  3356     0646  00FB               	movwf	??___flge+3
  3357     0647  087B               	movf	??___flge+3,w
  3358     0648  047A               	iorwf	??___flge+2,w
  3359     0649  0479               	iorwf	??___flge+1,w
  3360     064A  0478               	iorwf	??___flge,w
  3361     064B  1D03               	skipz
  3362     064C  2E4E               	goto	u116_21
  3363     064D  2E4F               	goto	u116_20
  3364     064E                     u116_21:
  3365     064E  2E57               	goto	i1l1173
  3366     064F                     u116_20:
  3367     064F                     i1l1171:
  3368     064F  3000               	movlw	0
  3369     0650  00F7               	movwf	___flge@ff2+3
  3370     0651  3000               	movlw	0
  3371     0652  00F6               	movwf	___flge@ff2+2
  3372     0653  3000               	movlw	0
  3373     0654  00F5               	movwf	___flge@ff2+1
  3374     0655  3000               	movlw	0
  3375     0656  00F4               	movwf	___flge@ff2
  3376     0657                     i1l1173:
  3377     0657  1FF3               	btfss	___flge@ff1+3,7
  3378     0658  2E5A               	goto	u117_21
  3379     0659  2E5B               	goto	u117_20
  3380     065A                     u117_21:
  3381     065A  2E7F               	goto	i1l1177
  3382     065B                     u117_20:
  3383     065B                     i1l1175:
  3384     065B  3000               	movlw	0
  3385     065C  00F8               	movwf	??___flge
  3386     065D  3000               	movlw	0
  3387     065E  00F9               	movwf	??___flge+1
  3388     065F  3000               	movlw	0
  3389     0660  00FA               	movwf	??___flge+2
  3390     0661  3080               	movlw	128
  3391     0662  00FB               	movwf	??___flge+3
  3392     0663  0870               	movf	___flge@ff1,w
  3393     0664  02F8               	subwf	??___flge,f
  3394     0665  0871               	movf	___flge@ff1+1,w
  3395     0666  1C03               	skipc
  3396     0667  0F71               	incfsz	___flge@ff1+1,w
  3397     0668  2E6A               	goto	u118_21
  3398     0669  2E6B               	goto	u118_22
  3399     066A                     u118_21:
  3400     066A  02F9               	subwf	??___flge+1,f
  3401     066B                     u118_22:
  3402     066B  0872               	movf	___flge@ff1+2,w
  3403     066C  1C03               	skipc
  3404     066D  0F72               	incfsz	___flge@ff1+2,w
  3405     066E  2E70               	goto	u118_23
  3406     066F  2E71               	goto	u118_24
  3407     0670                     u118_23:
  3408     0670  02FA               	subwf	??___flge+2,f
  3409     0671                     u118_24:
  3410     0671  0873               	movf	___flge@ff1+3,w
  3411     0672  1C03               	skipc
  3412     0673  0F73               	incfsz	___flge@ff1+3,w
  3413     0674  2E76               	goto	u118_25
  3414     0675  2E77               	goto	u118_26
  3415     0676                     u118_25:
  3416     0676  02FB               	subwf	??___flge+3,f
  3417     0677                     u118_26:
  3418     0677  087B               	movf	??___flge+3,w
  3419     0678  00F3               	movwf	___flge@ff1+3
  3420     0679  087A               	movf	??___flge+2,w
  3421     067A  00F2               	movwf	___flge@ff1+2
  3422     067B  0879               	movf	??___flge+1,w
  3423     067C  00F1               	movwf	___flge@ff1+1
  3424     067D  0878               	movf	??___flge,w
  3425     067E  00F0               	movwf	___flge@ff1
  3426     067F                     i1l1177:
  3427     067F  1FF7               	btfss	___flge@ff2+3,7
  3428     0680  2E82               	goto	u119_21
  3429     0681  2E83               	goto	u119_20
  3430     0682                     u119_21:
  3431     0682  2EA7               	goto	i1l362
  3432     0683                     u119_20:
  3433     0683                     i1l1179:
  3434     0683  3000               	movlw	0
  3435     0684  00F8               	movwf	??___flge
  3436     0685  3000               	movlw	0
  3437     0686  00F9               	movwf	??___flge+1
  3438     0687  3000               	movlw	0
  3439     0688  00FA               	movwf	??___flge+2
  3440     0689  3080               	movlw	128
  3441     068A  00FB               	movwf	??___flge+3
  3442     068B  0874               	movf	___flge@ff2,w
  3443     068C  02F8               	subwf	??___flge,f
  3444     068D  0875               	movf	___flge@ff2+1,w
  3445     068E  1C03               	skipc
  3446     068F  0F75               	incfsz	___flge@ff2+1,w
  3447     0690  2E92               	goto	u120_21
  3448     0691  2E93               	goto	u120_22
  3449     0692                     u120_21:
  3450     0692  02F9               	subwf	??___flge+1,f
  3451     0693                     u120_22:
  3452     0693  0876               	movf	___flge@ff2+2,w
  3453     0694  1C03               	skipc
  3454     0695  0F76               	incfsz	___flge@ff2+2,w
  3455     0696  2E98               	goto	u120_23
  3456     0697  2E99               	goto	u120_24
  3457     0698                     u120_23:
  3458     0698  02FA               	subwf	??___flge+2,f
  3459     0699                     u120_24:
  3460     0699  0877               	movf	___flge@ff2+3,w
  3461     069A  1C03               	skipc
  3462     069B  0F77               	incfsz	___flge@ff2+3,w
  3463     069C  2E9E               	goto	u120_25
  3464     069D  2E9F               	goto	u120_26
  3465     069E                     u120_25:
  3466     069E  02FB               	subwf	??___flge+3,f
  3467     069F                     u120_26:
  3468     069F  087B               	movf	??___flge+3,w
  3469     06A0  00F7               	movwf	___flge@ff2+3
  3470     06A1  087A               	movf	??___flge+2,w
  3471     06A2  00F6               	movwf	___flge@ff2+2
  3472     06A3  0879               	movf	??___flge+1,w
  3473     06A4  00F5               	movwf	___flge@ff2+1
  3474     06A5  0878               	movf	??___flge,w
  3475     06A6  00F4               	movwf	___flge@ff2
  3476     06A7                     i1l362:
  3477     06A7  3080               	movlw	128
  3478     06A8  06F3               	xorwf	___flge@ff1+3,f
  3479     06A9  3080               	movlw	128
  3480     06AA  06F7               	xorwf	___flge@ff2+3,f
  3481     06AB  0877               	movf	___flge@ff2+3,w
  3482     06AC  0273               	subwf	___flge@ff1+3,w
  3483     06AD  1D03               	skipz
  3484     06AE  2EB9               	goto	u121_25
  3485     06AF  0876               	movf	___flge@ff2+2,w
  3486     06B0  0272               	subwf	___flge@ff1+2,w
  3487     06B1  1D03               	skipz
  3488     06B2  2EB9               	goto	u121_25
  3489     06B3  0875               	movf	___flge@ff2+1,w
  3490     06B4  0271               	subwf	___flge@ff1+1,w
  3491     06B5  1D03               	skipz
  3492     06B6  2EB9               	goto	u121_25
  3493     06B7  0874               	movf	___flge@ff2,w
  3494     06B8  0270               	subwf	___flge@ff1,w
  3495     06B9                     u121_25:
  3496     06B9  1803               	skipnc
  3497     06BA  2EBC               	goto	u121_21
  3498     06BB  2EBD               	goto	u121_20
  3499     06BC                     u121_21:
  3500     06BC  2EBF               	goto	i1l1183
  3501     06BD                     u121_20:
  3502     06BD                     i1l1181:
  3503     06BD  1003               	clrc
  3504     06BE  2EC0               	goto	i1l367
  3505     06BF                     i1l1183:
  3506     06BF  1403               	setc
  3507     06C0                     i1l367:
  3508     06C0  0008               	return
  3509     06C1                     __end_of___flge:
  3510     007E                     btemp	set	126	;btemp
  3511     007E                     wtemp0	set	126
  3512                           
  3513                           	psect	config
  3514                           
  3515                           ;Config register CONFIG @ 0x2007
  3516                           ;	Oscillator Selection bits
  3517                           ;	FOSC = HS, HS oscillator
  3518                           ;	Watchdog Timer Enable bit
  3519                           ;	WDTE = OFF, WDT disabled
  3520                           ;	Power-up Timer Enable bit
  3521                           ;	PWRTE = OFF, PWRT disabled
  3522                           ;	Brown-out Reset Enable bit
  3523                           ;	BOREN = OFF, BOR disabled
  3524                           ;	Low-Voltage (Single-Supply) In-Circuit Serial Programming Enable bit
  3525                           ;	LVP = ON, RB3/PGM pin has PGM function; low-voltage programming enabled
  3526                           ;	Data EEPROM Memory Code Protection bit
  3527                           ;	CPD = OFF, Data EEPROM code protection off
  3528                           ;	Flash Program Memory Write Enable bits
  3529                           ;	WRT = OFF, Write protection off; all program memory may be written to by EECON control
  3530                           ;	In-Circuit Debugger Mode bit
  3531                           ;	DEBUG = 0x1, unprogrammed default
  3532                           ;	Flash Program Memory Code Protection bit
  3533                           ;	CP = OFF, Code protection off
  3534     2007                     	org	8199
  3535     2007  3FBA               	dw	16314

Data Sizes:
    Strings     39
    Constant    0
    Data        4
    BSS         15
    Persistent  0
    Stack       0

Auto Spaces:
    Space          Size  Autos    Used
    COMMON           14     14      14
    BANK0            80     32      51
    BANK1            80     18      18
    BANK3            96      0       0
    BANK2            96      0       0

Pointer List with Targets:

    colors	PTR const unsigned char [4] size(1) Largest target is 6
		 -> STR_1(CODE[6]), STR_2(CODE[5]), STR_3(CODE[5]), STR_4(CODE[6]), 

    lcd_string@str	PTR const unsigned char  size(1) Largest target is 9
		 -> STR_1(CODE[6]), STR_2(CODE[5]), STR_3(CODE[5]), STR_4(CODE[6]), 
		 -> STR_5(CODE[8]), STR_6(CODE[9]), 


Critical Paths under _main in COMMON

    None.

Critical Paths under _InterruptRoutine in COMMON

    _InterruptRoutine->___xxtofl
    ___flmul->___xxtofl

Critical Paths under _main in BANK0

    _main->_lcd_command
    _main->_lcd_data
    _lcd_string->_lcd_data
    _lcd_initialize->_lcd_command

Critical Paths under _InterruptRoutine in BANK0

    _InterruptRoutine->___flmul

Critical Paths under _main in BANK1

    _main->___awdiv

Critical Paths under _InterruptRoutine in BANK1

    None.

Critical Paths under _main in BANK3

    None.

Critical Paths under _InterruptRoutine in BANK3

    None.

Critical Paths under _main in BANK2

    None.

Critical Paths under _InterruptRoutine in BANK2

    None.

Call Graph Tables:

 ---------------------------------------------------------------------------------
 (Depth) Function   	        Calls       Base Space   Used Autos Params    Refs
 ---------------------------------------------------------------------------------
 (0) _main                                                10    10      0    1603
                                              8 BANK1     10    10      0
                           _ADC_Init
                            ___awdiv
                            ___awmod
                        _lcd_command
                           _lcd_data
                     _lcd_initialize
                         _lcd_string
 ---------------------------------------------------------------------------------
 (1) _lcd_string                                           1     1      0     204
                                              0 BANK1      1     1      0
                           _lcd_data
 ---------------------------------------------------------------------------------
 (2) _lcd_data                                             3     3      0      31
                                             29 BANK0      3     3      0
 ---------------------------------------------------------------------------------
 (1) _lcd_initialize                                       0     0      0      31
                        _lcd_command
 ---------------------------------------------------------------------------------
 (2) _lcd_command                                          3     3      0      31
                                             29 BANK0      3     3      0
 ---------------------------------------------------------------------------------
 (1) ___awmod                                              6     2      4     613
                                             29 BANK0      2     2      0
                                              0 BANK1      4     0      4
 ---------------------------------------------------------------------------------
 (1) ___awdiv                                              8     4      4     625
                                              0 BANK1      8     4      4
 ---------------------------------------------------------------------------------
 (1) _ADC_Init                                             0     0      0       0
 ---------------------------------------------------------------------------------
 Estimated maximum stack depth 2
 ---------------------------------------------------------------------------------
 (Depth) Function   	        Calls       Base Space   Used Autos Params    Refs
 ---------------------------------------------------------------------------------
 (3) _InterruptRoutine                                     3     3      0    3909
                                             26 BANK0      3     3      0
                             ___flge
                            ___flmul
                           ___xxtofl
 ---------------------------------------------------------------------------------
 (4) ___xxtofl                                            14    10      4     398
                                              0 COMMON    14    10      4
 ---------------------------------------------------------------------------------
 (4) ___flmul                                             26    18      8    2417
                                              0 BANK0     26    18      8
                          __Umul8_16
                           ___xxtofl (ARG)
 ---------------------------------------------------------------------------------
 (5) __Umul8_16                                            9     7      2     799
                                              0 COMMON     9     7      2
 ---------------------------------------------------------------------------------
 (4) ___flge                                              12     4      8    1094
                                              0 COMMON    12     4      8
 ---------------------------------------------------------------------------------
 Estimated maximum stack depth 5
 ---------------------------------------------------------------------------------

 Call Graph Graphs:

 _main (ROOT)
   _ADC_Init
   ___awdiv
   ___awmod
   _lcd_command
   _lcd_data
   _lcd_initialize
     _lcd_command
   _lcd_string
     _lcd_data

 _InterruptRoutine (ROOT)
   ___flge
   ___flmul
     __Umul8_16
     ___xxtofl (ARG)
   ___xxtofl

 Address spaces:
Name               Size   Autos  Total    Cost      Usage
BANK3               60      0       0       9        0.0%
BITBANK3            60      0       0       8        0.0%
SFR3                 0      0       0       4        0.0%
BITSFR3              0      0       0       4        0.0%
BANK2               60      0       0      11        0.0%
BITBANK2            60      0       0      10        0.0%
SFR2                 0      0       0       5        0.0%
BITSFR2              0      0       0       5        0.0%
BANK1               50     12      12       7       22.5%
BITBANK1            50      0       0       6        0.0%
SFR1                 0      0       0       2        0.0%
BITSFR1              0      0       0       2        0.0%
BANK0               50     20      33       5       63.7%
BITBANK0            50      0       0       4        0.0%
SFR0                 0      0       0       1        0.0%
BITSFR0              0      0       0       1        0.0%
COMMON               E      E       E       1      100.0%
BITCOMMON            E      0       0       0        0.0%
CODE                 0      0       0       0        0.0%
DATA                 0      0      53      12        0.0%
ABS                  0      0      53       3        0.0%
NULL                 0      0       0       0        0.0%
STACK                0      0       0       2        0.0%
EEDATA             100      0       0       0        0.0%


Microchip Technology PIC Macro Assembler V2.45 build 20230818022343 
Symbol Table                                                                                   Wed May 22 23:37:04 2024

                       pc 0002              lcd_data@data 003F         ?_InterruptRoutine 0070  
                      l60 049D                        l71 0FDC                        l80 0FFF  
                      l74 0FC3                        l58 0499                        l83 0FAD  
                      l68 07F6              ___awdiv@sign 00A5                        fsr 0004  
      ??_InterruptRoutine 003A       __Umul8_16@word_mpld 0076                       l334 0799  
                     l347 0730                       fsr0 0004                       indf 0000  
            ___awmod@sign 003E              ___flmul@aexp 0032              ___flmul@bexp 0033  
            ___flmul@sign 002D              ___flmul@temp 0038              ___flmul@prod 0034  
                    l1501 075E                      l1511 077E                      l1503 0762  
                    l1513 0785                      l1505 0766                      l1601 050A  
                    l1507 0777                      l1515 078B                      l1531 06D3  
                    l1523 06C1                      l1603 052A                      l1517 0790  
                    l1509 077D                      l1541 06F0                      l1533 06D9  
                    l1525 06C4                      l1461 0FB1                      l1605 0548  
                    l1519 0795                      l1551 0715                      l1543 06F6  
                    l1535 06DE                      l1527 06CA                      l1455 0F9B  
                    l1463 0FB4                      l1471 0FE0                      l1607 054F  
                    l1481 0734                      l1545 06FC                      l1537 06E4  
                    l1553 071D                      l1529 06CF                      l1457 0F9E  
                    l1465 0FC0                      l1473 0FE1                      l1609 0558  
                    l1561 0478                      l1491 0748                      l1483 0738  
                    l1555 0723                      l1547 0708                      l1539 06E9  
                    l1459 0FAA                      l1467 0FC4                      l1475 0FED  
                    l1571 048A                      l1563 0486                      l1469 07EE  
                    l1493 074C                      l1485 073D                      l1557 072A  
                    l1549 070E                      l1477 0FF3                      l1581 04A1  
                    l1573 048B                      l1565 0487                      l1495 074E  
                    l1487 073F                      l1479 0731                      l1591 04E6  
                    l1583 04AF                      l1575 048C                      l1567 0488  
                    l1497 0754                      l1489 0743                      l1593 04EC  
                    l1585 04B5                      l1577 0491                      l1569 0489  
                    l1499 0757                      l1595 04F2                      l1587 04BB  
                    l1579 0496                      l1597 04FE                      l1589 04E0  
                    l1599 0504                      STR_1 07B1                      STR_2 07BD  
                    STR_3 07C2                      STR_4 07B7                      STR_5 07A9  
                    STR_6 07A0                      u2010 071D                      u2011 071C  
                    u2020 0723                      u2021 0722                      u2005 070F  
                    u2030 049D                      u2031 049C                      u2040 04A1  
                    u2041 04A0                      u2050 04B5                      u2051 04B4  
                    u2067 04A9                      u2077 055E                      u2087 0FBC  
                    u2097 0FA6                      u1900 0777                      u1901 0776  
                    u1830 0FFF                      u1831 0FFE                      u1920 078B  
                    u1840 0738                      u1921 078A                      u1905 0773  
                    u1841 0737                      u1930 0790                      u1850 0743  
                    u1931 078F                      u1915 077F                      u1851 0742  
                    u1860 0754                      u1940 06CA                      u1861 0753  
                    u1941 06C9                      u1950 06D9                      u1951 06D8  
                    u1880 0766                      u1960 06E4                      u1881 0765  
                    u1961 06E3                      u1875 0758                      u1980 06FC  
                    u1981 06FB                      u1990 0708                      u1895 0767  
                    u1991 0707                      u1975 06EA                      u1995 0704  
                    i1l95 046F                      _main 0478                      btemp 007E  
        __end_of_ADC_Init 07F7                      start 0010                     ?_main 0070  
         __end_of___awdiv 079A           __end_of___awmod 0731           __end_of___flmul 0383  
         ___awdiv@divisor 00A0                     i1l362 06A7                     i1l622 0589  
                   i1l367 06C0                     i1l359 063B                     i1l624 061E  
                   i1l635 05E8                     i1l636 05F4                     i1l584 02F2  
                   i1l578 0382                     i1l597 07DB                     i1l599 07ED  
         ___awdiv@counter 00A4                     _PORTD 0008                     _TRISD 0088  
                   u92_20 07D5                     u92_21 07D4                     u93_25 07DC  
                   u94_20 07E9                     u94_21 07E8                     main@a 00AE  
                   main@b 00B0                     pclath 000A                     status 0003  
                   wtemp0 007E           __initialization 0013              __end_of_main 0567  
                  ??_main 00A8            lcd_command@cmd 003F                    _ADCON0 001F  
                  _ADCON1 009F                    _ADRESH 001E                    _ADRESL 009E  
        ___awdiv@dividend 00A2                    i1l1201 005E                    i1l1211 0075  
                  i1l1203 0060                    i1l1061 07CA                    i1l1301 030E  
                  i1l1221 008A                    i1l1213 0076                    i1l1205 0068  
                  i1l1063 07D1                    i1l1311 0354                    i1l1303 0327  
                  i1l1231 00A5                    i1l1223 0092                    i1l1215 007B  
                  i1l1207 006D                    i1l1065 07D5                    i1l1321 0371  
                  i1l1313 035E                    i1l1305 032D                    i1l1241 0121  
                  i1l1233 00B3                    i1l1225 0097                    i1l1217 0080  
                  i1l1209 0071                    i1l1171 064F                    i1l1067 07E4  
                  i1l1059 07C8                    i1l1315 0360                    i1l1323 0376  
                  i1l1307 033A                    i1l1251 018D                    i1l1243 013D  
                  i1l1235 00C0                    i1l1227 009C                    i1l1219 0088  
                  i1l1331 056D                    i1l1181 06BD                    i1l1173 0657  
                  i1l1069 07E9                    i1l1325 037A                    i1l1317 036C  
                  i1l1309 0345                    i1l1261 0217                    i1l1253 019B  
                  i1l1245 0159                    i1l1237 00DB                    i1l1341 059A  
                  i1l1333 0571                    i1l1183 06BF                    i1l1175 065B  
                  i1l1167 061F                    i1l1319 0370                    i1l1271 02A7  
                  i1l1263 0225                    i1l1255 01B8                    i1l1247 0162  
                  i1l1239 00F7                    i1l1191 0047                    i1l1351 05B5  
                  i1l1343 059D                    i1l1335 0581                    i1l1431 038F  
                  u120_21 0692                    i1l1177 067F                    i1l1169 0633  
                  i1l1281 02CC                    i1l1273 02B5                    i1l1265 0250  
                  i1l1257 01CF                    i1l1249 0170                    i1l1193 004B  
                  i1l1361 05E2                    i1l1353 05C3                    i1l1345 05A1  
                  i1l1337 0591                    i1l1329 0568                    i1l1441 040F  
                  i1l1433 03BC                    u120_22 0693                    u120_23 0698  
                  i1l1179 0683                    i1l1291 02EF                    i1l1275 02BE  
                  i1l1283 02D2                    i1l1267 0276                    i1l1259 01EC  
                  i1l1195 004C                    i1l1187 003E                    i1l1371 0615  
                  i1l1363 05EC                    i1l1355 05CC                    i1l1347 05AA  
                  i1l1451 046A                    i1l1443 042A                    i1l1435 03D5  
                  i1l1427 0383                    u120_24 0699                    u120_25 069E  
                  i1l1285 02D6                    i1l1277 02C2                    i1l1269 029E  
                  i1l1197 0051                    i1l1189 0043                    i1l1373 0616  
                  i1l1365 05F6                    i1l1357 05D3                    i1l1349 05B1  
                  i1l1445 042F                    i1l1453 046E                    i1l1437 03F0  
                  i1l1429 0387                    u120_26 069F                    i1l1295 02F7  
                  i1l1287 02D7                    i1l1279 02C3                    i1l1199 0056  
                  i1l1367 060C                    i1l1359 05DE                    i1l1447 044A  
                  i1l1439 03F4                    u121_20 06BD                    u121_21 06BC  
                  i1l1297 02FC                    i1l1289 02DB                    i1l1369 0611  
                  i1l1449 0465                    i1l1299 030A                    u121_25 06B9  
                  u122_20 004B                    u130_21 00E9                    u122_21 004A  
                  u130_22 00F0                    u130_23 00F7                    u115_20 0633  
                  u123_20 0051                    u115_21 0632                    u131_21 0105  
                  u123_21 0050                    u131_22 010C                    u131_23 0113  
                  u116_20 064F                    u124_20 0056                    u116_21 064E  
                  u140_21 0234                    u132_21 012F                    u124_21 0055  
                  u140_22 023B                    u132_22 0136                    u140_23 0242  
                  u132_23 013D                    u117_20 065B                    u141_20 025C  
                  u125_20 0075                    u117_21 065A                    u133_21 014B  
                  u125_21 0074                    u133_22 0152                    u133_23 0159  
                  u141_25 0257                    u150_20 02DB                    u126_20 007B  
                  u118_21 066A                    u150_21 02DA                    u142_21 0268  
                  u126_21 007A                    u118_22 066B                    u142_22 026F  
                  u118_23 0670                    u142_23 0276                    u118_24 0671  
                  u118_25 0676                    u134_25 015B                    u118_26 0677  
                  u119_20 0683                    u151_20 02EF                    u143_20 0284  
                  u127_20 0080                    u119_21 0682                    u151_21 02EE  
                  u135_21 017F                    u127_21 007F                    u135_22 0186  
                  u135_23 018D                    u143_25 027F                    u152_20 02F6  
                  u128_20 0097                    u160_20 0571                    u152_21 02F5  
                  u144_21 0290                    u136_21 01AA                    u128_21 0096  
                  u160_21 0570                    u144_22 0297                    u136_22 01B1  
                  u144_23 029E                    u136_23 01B8                    u153_20 02FC  
                  u129_20 009C                    u161_20 0591                    _INTCON 000B  
                  u153_21 02FB                    u129_21 009B                    u161_21 0590  
                  u145_25 02A0                    u137_25 01BA                    u154_20 030E  
                  u170_20 0601                    u154_21 030D                    u138_21 01DE  
                  u138_22 01E5                    u138_23 01EC                    u146_25 02B7  
                  u170_25 05FC                    u162_25 05A2                    u155_20 031D  
                  u147_20 02C2                    u171_20 0611                    u163_20 05B0  
                  u147_21 02C1                    u139_21 0209                    u171_21 0610  
                  u163_21 05AF                    u139_22 0210                    u139_23 0217  
                  u155_25 0318                    u156_20 033A                    u172_20 0615  
                  u180_20 042A                    u156_21 0339                    u172_21 0614  
                  u180_21 0429                    u156_25 0336                    u148_25 02C5  
                  u164_25 05C4                    u157_20 0354                    u149_20 02D6  
                  u165_20 05D2                    u181_20 044A                    u157_21 0353  
                  u149_21 02D5                    u165_21 05D1                    u181_21 0449  
                  u157_25 0350                    u158_20 0370                    u182_20 0465  
                  u158_21 036F                    u182_21 0464                    u166_25 05D7  
                  u167_20 05E2                    u159_20 056D                    u167_21 05E1  
                  u159_21 056C                    u168_20 05E8                    u176_20 0387  
                  u168_21 05E7                    u176_21 0386                    u169_20 05EC  
                  u177_20 03D5                    u169_21 05EB                    u177_21 03D4  
                  u178_20 03F0                    u178_21 03EF                    u179_20 040F  
                  u179_21 040E          __end_of___xxtofl 061F          __end_of_lcd_data 0FC4  
                  ___flge 061F                 ??___awdiv 003D                 ??___awmod 003D  
               ??___flmul 0028                    _colors 004F          ___awdiv@quotient 00A6  
         ___awmod@divisor 00A0           ___awmod@counter 003D                 ?_ADC_Init 0070  
                  saved_w 007E          ??_lcd_initialize 0040                ___flge@ff1 0070  
              ___flge@ff2 0074              ___xxtofl@arg 007A             lcd_string@str 00A0  
            ___xxtofl@exp 0079              ___xxtofl@val 0070   __end_of__initialization 003A  
          __pcstackCOMMON 0070              __pidataBANK0 07F7                ??_ADC_Init 003D  
              __pbssBANK0 0040         __end_of__Umul8_16 07EE                __pmaintext 0478  
                 ?___flge 0070                __pintentry 0004                 ?___xxtofl 0070  
              _colorIndex 004C                 ?_lcd_data 0070                _lcd_string 0FDD  
              __stringtab 079A                   ___awdiv 0731                   ___awmod 06C1  
                 ___flmul 003E                   __ptext1 0FDD                   __ptext2 0FAE  
                 __ptext3 0FC4                   __ptext4 0F98                   __ptext5 06C1  
                 __ptext6 0731                   __ptext7 07EE                   __ptext8 0383  
                 __ptext9 0567                ??___xxtofl 0074          ___awmod@dividend 00A2  
                 _numbers 0040                   _tension 0048                ??_lcd_data 003D  
    end_of_initialization 003A                 _PORTBbits 0006                 _PORTCbits 0007  
           ___xxtofl@sign 0078                 _TRISBbits 0086                 _TRISCbits 0087  
             ?_lcd_string 0070          _InterruptRoutine 0383               ___flmul@grs 002E  
           ??_lcd_command 003D            __end_of___flge 06C1       start_initialization 0013  
                ??___flge 0078       __end_of_lcd_command 0FAE                 __Umul8_16 07C7  
             __pdataBANK0 004F                 ___flmul@a 0024                 ___flmul@b 0020  
               ___latbits 0002             __pcstackBANK0 0020             __pcstackBANK1 00A0  
                ?___awdiv 00A0                  ?___awmod 00A0                  ?___flmul 0020  
              ?__Umul8_16 0070                 __pstrings 079A                  _ADC_Init 07EE  
       interrupt_function 0004                  _PIE1bits 008C               _lcd_command 0F98  
               _valeurADC 004D                  _PIR1bits 000C  __end_of_InterruptRoutine 0478  
              _ADCON0bits 001F               __stringbase 079F              ??_lcd_string 0040  
             ??__Umul8_16 0072        __end_of_lcd_string 1000        __end_of__stringtab 07A0  
                ___xxtofl 0567                  __ptext10 003E                  __ptext11 07C7  
                __ptext12 061F                  _lcd_data 0FAE            _lcd_initialize 0FC4  
                intlevel1 0000    __end_of_lcd_initialize 0FDD                 stringcode 079A  
  __Umul8_16@multiplicand 0070                _OPTION_REG 0081                  stringdir 079A  
                stringtab 079A           ?_lcd_initialize 0070      __Umul8_16@multiplier 0078  
            ?_lcd_command 0070         __Umul8_16@product 0074  
