

Microchip MPLAB XC8 Assembler V2.45 build 20230818022343 
                                                                                               Wed May 22 23:42:45 2024

Microchip MPLAB XC8 C Compiler v2.45 (Free license) build 20230818022343 Og1 
     1                           	processor	16F877A
     2                           	pagewidth 120
     3                           	opt	flic
     4                           	psect	idataBANK0,global,class=CODE,delta=2,noexec
     5                           	psect	strings,global,class=STRING,delta=2,noexec
     6                           	psect	cinit,global,class=CODE,merge=1,delta=2
     7                           	psect	bssBANK0,global,class=BANK0,space=1,delta=1,noexec
     8                           	psect	dataBANK0,global,class=BANK0,space=1,delta=1,noexec
     9                           	psect	cstackBANK1,global,class=BANK1,space=1,delta=1,noexec
    10                           	psect	cstackCOMMON,global,class=COMMON,space=1,delta=1,noexec
    11                           	psect	cstackBANK0,global,class=BANK0,space=1,delta=1,noexec
    12                           	psect	maintext,global,class=CODE,split=1,delta=2
    13                           	psect	text1,local,class=CODE,merge=1,delta=2
    14                           	psect	text2,local,class=CODE,merge=1,delta=2
    15                           	psect	text3,local,class=CODE,merge=1,delta=2
    16                           	psect	text4,local,class=CODE,merge=1,delta=2
    17                           	psect	text5,local,class=CODE,merge=1,delta=2,group=1
    18                           	psect	text6,local,class=CODE,merge=1,delta=2,group=1
    19                           	psect	text7,local,class=CODE,merge=1,delta=2
    20                           	psect	text8,local,class=CODE,merge=1,delta=2
    21                           	psect	intentry,global,class=CODE,delta=2
    22                           	psect	text9,local,class=CODE,merge=1,delta=2,group=1
    23                           	psect	text10,local,class=CODE,merge=1,delta=2,group=1
    24                           	psect	text11,local,class=CODE,merge=1,delta=2,group=1
    25                           	psect	text12,local,class=CODE,merge=1,delta=2,group=1
    26                           	psect	config,global,abs,ovrld,class=CONFIG,space=4,delta=2,noexec
    27                           	dabs	1,0x7E,2
    28     0000                     
    29                           ; Generated 22/03/2023 GMT
    30                           ; 
    31                           ; Copyright © 2023, Microchip Technology Inc. and its subsidiaries ("Microchip")
    32                           ; All rights reserved.
    33                           ; 
    34                           ; This software is developed by Microchip Technology Inc. and its subsidiaries ("Microch
      +                          ip").
    35                           ; 
    36                           ; Redistribution and use in source and binary forms, with or without modification, are
    37                           ; permitted provided that the following conditions are met:
    38                           ; 
    39                           ;     1. Redistributions of source code must retain the above copyright notice, this lis
      +                          t of
    40                           ;        conditions and the following disclaimer.
    41                           ; 
    42                           ;     2. Redistributions in binary form must reproduce the above copyright notice, this 
      +                          list
    43                           ;        of conditions and the following disclaimer in the documentation and/or other
    44                           ;        materials provided with the distribution. Publication is not required when
    45                           ;        this file is used in an embedded application.
    46                           ; 
    47                           ;     3. Microchip's name may not be used to endorse or promote products derived from th
      +                          is
    48                           ;        software without specific prior written permission.
    49                           ; 
    50                           ; THIS SOFTWARE IS PROVIDED BY MICROCHIP "AS IS" AND ANY EXPRESS OR IMPLIED WARRANTIES,
    51                           ; INCLUDING, BUT NOT LIMITED TO, THE IMPLIED WARRANTIES OF MERCHANTABILITY AND FITNESS F
      +                          OR
    52                           ; PURPOSE ARE DISCLAIMED.  IN NO EVENT SHALL MICROCHIP BE LIABLE FOR ANY DIRECT, INDIREC
      +                          T,
    53                           ; INCIDENTAL, SPECIAL, EXEMPLARY, OR CONSEQUENTIAL DAMAGES (INCLUDING BUT NOT LIMITED TO
    54                           ; PROCUREMENT OF SUBSTITUTE GOODS OR SERVICES; LOSS OF USE, DATA OR PROFITS; OR BUSINESS
    55                           ; INTERRUPTION) HOWSOEVER CAUSED AND ON ANY THEORY OF LIABILITY, WHETHER IN CONTRACT, ST
      +                          RICT
    56                           ; LIABILITY, OR TORT (INCLUDING NEGLIGENCE OR OTHERWISE) ARISING IN ANY WAY OUT OF THE U
      +                          SE OF
    57                           ; THIS SOFTWARE, EVEN IF ADVISED OF THE POSSIBILITY OF SUCH DAMAGE.
    58                           ; 
    59                           ; 
    60                           ; Code-generator required, PIC16F877A Definitions
    61                           ; 
    62                           ; SFR Addresses
    63     0000                     	;# 
    64     0001                     	;# 
    65     0002                     	;# 
    66     0003                     	;# 
    67     0004                     	;# 
    68     0005                     	;# 
    69     0006                     	;# 
    70     0007                     	;# 
    71     0008                     	;# 
    72     0009                     	;# 
    73     000A                     	;# 
    74     000B                     	;# 
    75     000C                     	;# 
    76     000D                     	;# 
    77     000E                     	;# 
    78     000E                     	;# 
    79     000F                     	;# 
    80     0010                     	;# 
    81     0011                     	;# 
    82     0012                     	;# 
    83     0013                     	;# 
    84     0014                     	;# 
    85     0015                     	;# 
    86     0015                     	;# 
    87     0016                     	;# 
    88     0017                     	;# 
    89     0018                     	;# 
    90     0019                     	;# 
    91     001A                     	;# 
    92     001B                     	;# 
    93     001B                     	;# 
    94     001C                     	;# 
    95     001D                     	;# 
    96     001E                     	;# 
    97     001F                     	;# 
    98     0081                     	;# 
    99     0085                     	;# 
   100     0086                     	;# 
   101     0087                     	;# 
   102     0088                     	;# 
   103     0089                     	;# 
   104     008C                     	;# 
   105     008D                     	;# 
   106     008E                     	;# 
   107     0091                     	;# 
   108     0092                     	;# 
   109     0093                     	;# 
   110     0094                     	;# 
   111     0098                     	;# 
   112     0099                     	;# 
   113     009C                     	;# 
   114     009D                     	;# 
   115     009E                     	;# 
   116     009F                     	;# 
   117     010C                     	;# 
   118     010D                     	;# 
   119     010E                     	;# 
   120     010F                     	;# 
   121     018C                     	;# 
   122     018D                     	;# 
   123     0000                     	;# 
   124     0001                     	;# 
   125     0002                     	;# 
   126     0003                     	;# 
   127     0004                     	;# 
   128     0005                     	;# 
   129     0006                     	;# 
   130     0007                     	;# 
   131     0008                     	;# 
   132     0009                     	;# 
   133     000A                     	;# 
   134     000B                     	;# 
   135     000C                     	;# 
   136     000D                     	;# 
   137     000E                     	;# 
   138     000E                     	;# 
   139     000F                     	;# 
   140     0010                     	;# 
   141     0011                     	;# 
   142     0012                     	;# 
   143     0013                     	;# 
   144     0014                     	;# 
   145     0015                     	;# 
   146     0015                     	;# 
   147     0016                     	;# 
   148     0017                     	;# 
   149     0018                     	;# 
   150     0019                     	;# 
   151     001A                     	;# 
   152     001B                     	;# 
   153     001B                     	;# 
   154     001C                     	;# 
   155     001D                     	;# 
   156     001E                     	;# 
   157     001F                     	;# 
   158     0081                     	;# 
   159     0085                     	;# 
   160     0086                     	;# 
   161     0087                     	;# 
   162     0088                     	;# 
   163     0089                     	;# 
   164     008C                     	;# 
   165     008D                     	;# 
   166     008E                     	;# 
   167     0091                     	;# 
   168     0092                     	;# 
   169     0093                     	;# 
   170     0094                     	;# 
   171     0098                     	;# 
   172     0099                     	;# 
   173     009C                     	;# 
   174     009D                     	;# 
   175     009E                     	;# 
   176     009F                     	;# 
   177     010C                     	;# 
   178     010D                     	;# 
   179     010E                     	;# 
   180     010F                     	;# 
   181     018C                     	;# 
   182     018D                     	;# 
   183                           
   184                           	psect	idataBANK0
   185     07F7                     __pidataBANK0:
   186                           
   187                           ;initializer for _colors
   188     07F7  341E               	retlw	low ((STR_1-__stringbase)| (0+32768))
   189     07F8  3412               	retlw	low ((STR_2-__stringbase)| (0+32768))
   190     07F9  3418               	retlw	low ((STR_3-__stringbase)| (0+32768))
   191     07FA  3424               	retlw	low ((STR_4-__stringbase)| (0+32768))
   192     001E                     _ADRESH	set	30
   193     000C                     _PIR1bits	set	12
   194     0008                     _PORTD	set	8
   195     0007                     _PORTCbits	set	7
   196     0006                     _PORTBbits	set	6
   197     001F                     _ADCON0bits	set	31
   198     001F                     _ADCON0	set	31
   199     000B                     _INTCON	set	11
   200     009E                     _ADRESL	set	158
   201     0087                     _TRISCbits	set	135
   202     0088                     _TRISD	set	136
   203     0086                     _TRISBbits	set	134
   204     008C                     _PIE1bits	set	140
   205     009F                     _ADCON1	set	159
   206     0081                     _OPTION_REG	set	129
   207                           
   208                           	psect	strings
   209     07BF                     __pstrings:
   210     07BF                     stringtab:
   211     07BF                     __stringtab:
   212     07BF                     stringcode:	
   213                           ;	String table - string pointers are 1 byte each
   214                           
   215     07BF                     stringdir:
   216     07BF  3007               	movlw	high stringdir
   217     07C0  008A               	movwf	10
   218     07C1  0804               	movf	4,w
   219     07C2  0A84               	incf	4,f
   220     07C3  0782               	addwf	2,f
   221     07C4                     __stringbase:
   222     07C4  3400               	retlw	0
   223     07C5                     __end_of__stringtab:
   224     07C5                     STR_6:
   225     07C5  344E               	retlw	78	;'N'
   226     07C6  3475               	retlw	117	;'u'
   227     07C7  346D               	retlw	109	;'m'
   228     07C8  3462               	retlw	98	;'b'
   229     07C9  3465               	retlw	101	;'e'
   230     07CA  3472               	retlw	114	;'r'
   231     07CB  343A               	retlw	58	;':'
   232     07CC  3420               	retlw	32	;' '
   233     07CD  3400               	retlw	0
   234     07CE                     STR_5:
   235     07CE  3443               	retlw	67	;'C'
   236     07CF  346F               	retlw	111	;'o'
   237     07D0  346C               	retlw	108	;'l'
   238     07D1  346F               	retlw	111	;'o'
   239     07D2  3472               	retlw	114	;'r'
   240     07D3  343A               	retlw	58	;':'
   241     07D4  3420               	retlw	32	;' '
   242     07D5  3400               	retlw	0
   243     07D6                     STR_2:
   244     07D6  3452               	retlw	82	;'R'
   245     07D7  346F               	retlw	111	;'o'
   246     07D8  3473               	retlw	115	;'s'
   247     07D9  3465               	retlw	101	;'e'
   248     07DA  3420               	retlw	32	;' '
   249     07DB  3400               	retlw	0
   250     07DC                     STR_3:
   251     07DC  3442               	retlw	66	;'B'
   252     07DD  346C               	retlw	108	;'l'
   253     07DE  3475               	retlw	117	;'u'
   254     07DF  3465               	retlw	101	;'e'
   255     07E0  3420               	retlw	32	;' '
   256     07E1  3400               	retlw	0
   257     07E2                     STR_1:
   258     07E2  3457               	retlw	87	;'W'
   259     07E3  3468               	retlw	104	;'h'
   260     07E4  3469               	retlw	105	;'i'
   261     07E5  3474               	retlw	116	;'t'
   262     07E6  3465               	retlw	101	;'e'
   263     07E7  3400               	retlw	0
   264     07E8                     STR_4:
   265     07E8  3442               	retlw	66	;'B'
   266     07E9  346C               	retlw	108	;'l'
   267     07EA  3461               	retlw	97	;'a'
   268     07EB  3463               	retlw	99	;'c'
   269     07EC  346B               	retlw	107	;'k'
   270     07ED  3400               	retlw	0
   271                           
   272                           	psect	cinit
   273     0013                     start_initialization:	
   274                           ; #config settings
   275                           
   276     0013                     __initialization:
   277                           
   278                           ; Initialize objects allocated to BANK0
   279     0013  120A  118A  27F7  120A  118A  	fcall	__pidataBANK0	;fetch initializer
   280     0018  00CF               	movwf	__pdataBANK0& (0+127)
   281     0019  120A  118A  27F8  120A  118A  	fcall	__pidataBANK0+1	;fetch initializer
   282     001E  00D0               	movwf	(__pdataBANK0+1)& (0+127)
   283     001F  120A  118A  27F9  120A  118A  	fcall	__pidataBANK0+2	;fetch initializer
   284     0024  00D1               	movwf	(__pdataBANK0+2)& (0+127)
   285     0025  120A  118A  27FA  120A  118A  	fcall	__pidataBANK0+3	;fetch initializer
   286     002A  00D2               	movwf	(__pdataBANK0+3)& (0+127)
   287                           
   288                           ; Clear objects allocated to BANK0
   289     002B  01C0               	clrf	__pbssBANK0& (0+127)
   290     002C  01C1               	clrf	(__pbssBANK0+1)& (0+127)
   291     002D  01C2               	clrf	(__pbssBANK0+2)& (0+127)
   292     002E  01C3               	clrf	(__pbssBANK0+3)& (0+127)
   293     002F  01C4               	clrf	(__pbssBANK0+4)& (0+127)
   294     0030  01C5               	clrf	(__pbssBANK0+5)& (0+127)
   295     0031  01C6               	clrf	(__pbssBANK0+6)& (0+127)
   296     0032  01C7               	clrf	(__pbssBANK0+7)& (0+127)
   297     0033  01C8               	clrf	(__pbssBANK0+8)& (0+127)
   298     0034  01C9               	clrf	(__pbssBANK0+9)& (0+127)
   299     0035  01CA               	clrf	(__pbssBANK0+10)& (0+127)
   300     0036  01CB               	clrf	(__pbssBANK0+11)& (0+127)
   301     0037  01CC               	clrf	(__pbssBANK0+12)& (0+127)
   302     0038  01CD               	clrf	(__pbssBANK0+13)& (0+127)
   303     0039  01CE               	clrf	(__pbssBANK0+14)& (0+127)
   304     003A                     end_of_initialization:	
   305                           ;End of C runtime variable initialization code
   306                           
   307     003A                     __end_of__initialization:
   308     003A  0183               	clrf	3
   309     003B  120A  118A  2B83   	ljmp	_main	;jump to C main() function
   310                           
   311                           	psect	bssBANK0
   312     0040                     __pbssBANK0:
   313     0040                     _numbers:
   314     0040                     	ds	8
   315     0048                     _tension:
   316     0048                     	ds	4
   317     004C                     _colorIndex:
   318     004C                     	ds	1
   319     004D                     _valeurADC:
   320     004D                     	ds	2
   321                           
   322                           	psect	dataBANK0
   323     004F                     __pdataBANK0:
   324     004F                     _colors:
   325     004F                     	ds	4
   326                           
   327                           	psect	cstackBANK1
   328     00A0                     __pcstackBANK1:
   329     00A0                     ?___awdiv:
   330     00A0                     ?___awmod:	
   331                           ; 2 bytes @ 0x0
   332                           
   333     00A0                     lcd_string@str:	
   334                           ; 2 bytes @ 0x0
   335                           
   336     00A0                     ___awdiv@divisor:	
   337                           ; 1 bytes @ 0x0
   338                           
   339     00A0                     ___awmod@divisor:	
   340                           ; 2 bytes @ 0x0
   341                           
   342                           
   343                           ; 2 bytes @ 0x0
   344     00A0                     	ds	2
   345     00A2                     ___awdiv@dividend:
   346     00A2                     ___awmod@dividend:	
   347                           ; 2 bytes @ 0x2
   348                           
   349                           
   350                           ; 2 bytes @ 0x2
   351     00A2                     	ds	2
   352     00A4                     ___awdiv@counter:
   353                           
   354                           ; 1 bytes @ 0x4
   355     00A4                     	ds	1
   356     00A5                     ___awdiv@sign:
   357                           
   358                           ; 1 bytes @ 0x5
   359     00A5                     	ds	1
   360     00A6                     ___awdiv@quotient:
   361                           
   362                           ; 2 bytes @ 0x6
   363     00A6                     	ds	2
   364     00A8                     ??_main:
   365                           
   366                           ; 1 bytes @ 0x8
   367     00A8                     	ds	6
   368     00AE                     main@a:
   369                           
   370                           ; 2 bytes @ 0xE
   371     00AE                     	ds	2
   372     00B0                     main@b:
   373                           
   374                           ; 2 bytes @ 0x10
   375     00B0                     	ds	2
   376                           
   377                           	psect	cstackCOMMON
   378     0070                     __pcstackCOMMON:
   379     0070                     ?___flge:
   380     0070                     ?_lcd_initialize:	
   381                           ; 1 bit 
   382                           
   383     0070                     ?_ADC_Init:	
   384                           ; 1 bytes @ 0x0
   385                           
   386     0070                     ?_lcd_command:	
   387                           ; 1 bytes @ 0x0
   388                           
   389     0070                     ?_lcd_string:	
   390                           ; 1 bytes @ 0x0
   391                           
   392     0070                     ?_lcd_data:	
   393                           ; 1 bytes @ 0x0
   394                           
   395     0070                     ?_main:	
   396                           ; 1 bytes @ 0x0
   397                           
   398     0070                     ?_InterruptRoutine:	
   399                           ; 1 bytes @ 0x0
   400                           
   401     0070                     ?__Umul8_16:	
   402                           ; 1 bytes @ 0x0
   403                           
   404     0070                     ?___xxtofl:	
   405                           ; 2 bytes @ 0x0
   406                           
   407     0070                     __Umul8_16@multiplicand:	
   408                           ; 4 bytes @ 0x0
   409                           
   410     0070                     ___flge@ff1:	
   411                           ; 1 bytes @ 0x0
   412                           
   413     0070                     ___xxtofl@val:	
   414                           ; 4 bytes @ 0x0
   415                           
   416                           
   417                           ; 4 bytes @ 0x0
   418     0070                     	ds	2
   419     0072                     ??__Umul8_16:
   420                           
   421                           ; 1 bytes @ 0x2
   422     0072                     	ds	2
   423     0074                     ??___xxtofl:
   424     0074                     __Umul8_16@product:	
   425                           ; 1 bytes @ 0x4
   426                           
   427     0074                     ___flge@ff2:	
   428                           ; 2 bytes @ 0x4
   429                           
   430                           
   431                           ; 4 bytes @ 0x4
   432     0074                     	ds	2
   433     0076                     __Umul8_16@word_mpld:
   434                           
   435                           ; 2 bytes @ 0x6
   436     0076                     	ds	2
   437     0078                     ??___flge:
   438     0078                     __Umul8_16@multiplier:	
   439                           ; 1 bytes @ 0x8
   440                           
   441     0078                     ___xxtofl@sign:	
   442                           ; 1 bytes @ 0x8
   443                           
   444                           
   445                           ; 1 bytes @ 0x8
   446     0078                     	ds	1
   447     0079                     ___xxtofl@exp:
   448                           
   449                           ; 1 bytes @ 0x9
   450     0079                     	ds	1
   451     007A                     ___xxtofl@arg:
   452                           
   453                           ; 4 bytes @ 0xA
   454     007A                     	ds	4
   455                           
   456                           	psect	cstackBANK0
   457     0020                     __pcstackBANK0:
   458     0020                     ?___flmul:
   459     0020                     ___flmul@b:	
   460                           ; 4 bytes @ 0x0
   461                           
   462                           
   463                           ; 4 bytes @ 0x0
   464     0020                     	ds	4
   465     0024                     ___flmul@a:
   466                           
   467                           ; 4 bytes @ 0x4
   468     0024                     	ds	4
   469     0028                     ??___flmul:
   470                           
   471                           ; 1 bytes @ 0x8
   472     0028                     	ds	5
   473     002D                     ___flmul@sign:
   474                           
   475                           ; 1 bytes @ 0xD
   476     002D                     	ds	1
   477     002E                     ___flmul@grs:
   478                           
   479                           ; 4 bytes @ 0xE
   480     002E                     	ds	4
   481     0032                     ___flmul@aexp:
   482                           
   483                           ; 1 bytes @ 0x12
   484     0032                     	ds	1
   485     0033                     ___flmul@bexp:
   486                           
   487                           ; 1 bytes @ 0x13
   488     0033                     	ds	1
   489     0034                     ___flmul@prod:
   490                           
   491                           ; 4 bytes @ 0x14
   492     0034                     	ds	4
   493     0038                     ___flmul@temp:
   494                           
   495                           ; 2 bytes @ 0x18
   496     0038                     	ds	2
   497     003A                     ??_InterruptRoutine:
   498                           
   499                           ; 1 bytes @ 0x1A
   500     003A                     	ds	3
   501     003D                     ??_ADC_Init:
   502     003D                     ??_lcd_command:	
   503                           ; 1 bytes @ 0x1D
   504                           
   505     003D                     ??_lcd_data:	
   506                           ; 1 bytes @ 0x1D
   507                           
   508     003D                     ??___awdiv:	
   509                           ; 1 bytes @ 0x1D
   510                           
   511     003D                     ??___awmod:	
   512                           ; 1 bytes @ 0x1D
   513                           
   514     003D                     ___awmod@counter:	
   515                           ; 1 bytes @ 0x1D
   516                           
   517                           
   518                           ; 1 bytes @ 0x1D
   519     003D                     	ds	1
   520     003E                     ___awmod@sign:
   521                           
   522                           ; 1 bytes @ 0x1E
   523     003E                     	ds	1
   524     003F                     lcd_data@data:
   525     003F                     lcd_command@cmd:	
   526                           ; 1 bytes @ 0x1F
   527                           
   528                           
   529                           ; 1 bytes @ 0x1F
   530     003F                     	ds	1
   531     0040                     ??_lcd_initialize:
   532     0040                     ??_lcd_string:	
   533                           ; 1 bytes @ 0x20
   534                           
   535                           
   536                           	psect	maintext
   537     0383                     __pmaintext:	
   538                           ; 1 bytes @ 0x20
   539 ;;
   540 ;;Main: autosize = 0, tempsize = 6, incstack = 0, save=0
   541 ;;
   542 ;; *************** function _main *****************
   543 ;; Defined at:
   544 ;;		line 31 in file "main.c"
   545 ;; Parameters:    Size  Location     Type
   546 ;;		None
   547 ;; Auto vars:     Size  Location     Type
   548 ;;  b               2   16[BANK1 ] int 
   549 ;;  a               2   14[BANK1 ] int 
   550 ;; Return value:  Size  Location     Type
   551 ;;                  1    wreg      void 
   552 ;; Registers used:
   553 ;;		wreg, fsr0l, fsr0h, status,2, status,0, btemp+1, pclath, cstack
   554 ;; Tracked objects:
   555 ;;		On entry : B00/0
   556 ;;		On exit  : 0/0
   557 ;;		Unchanged: 0/0
   558 ;; Data sizes:     COMMON   BANK0   BANK1   BANK3   BANK2
   559 ;;      Params:         0       0       0       0       0
   560 ;;      Locals:         0       0       4       0       0
   561 ;;      Temps:          0       0       6       0       0
   562 ;;      Totals:         0       0      10       0       0
   563 ;;Total ram usage:       10 bytes
   564 ;; Hardware stack levels required when called: 5
   565 ;; This function calls:
   566 ;;		_ADC_Init
   567 ;;		___awdiv
   568 ;;		___awmod
   569 ;;		_lcd_command
   570 ;;		_lcd_data
   571 ;;		_lcd_initialize
   572 ;;		_lcd_string
   573 ;; This function is called by:
   574 ;;		Startup code after reset
   575 ;; This function uses a non-reentrant model
   576 ;;
   577                           
   578     0383                     _main:	
   579                           ;psect for function _main
   580                           
   581     0383                     l1566:	
   582                           ;incstack = 0
   583                           ; Regs used in _main: [wreg-fsr0h+status,2+status,0+btemp+1+pclath+cstack]
   584                           
   585                           
   586                           ;main.c: 32: 
   587     0383  3040               	movlw	64
   588     0384  1683               	bsf	3,5	;RP0=1, select bank1
   589     0385  1303               	bcf	3,6	;RP1=0, select bank1
   590     0386  0081               	movwf	1	;volatile
   591                           
   592                           ;main.c: 33:     while (1) {
   593     0387  30D0               	movlw	208
   594     0388  008B               	movwf	11	;volatile
   595                           
   596                           ;main.c: 34:         ADCON0bits.GO = 1;
   597     0389  30C1               	movlw	193
   598     038A  1283               	bcf	3,5	;RP0=0, select bank0
   599     038B  1303               	bcf	3,6	;RP1=0, select bank0
   600     038C  009F               	movwf	31	;volatile
   601                           
   602                           ;main.c: 35:         while (ADCON0bits.GO_nDONE);
   603     038D  308E               	movlw	142
   604     038E  1683               	bsf	3,5	;RP0=1, select bank1
   605     038F  1303               	bcf	3,6	;RP1=0, select bank1
   606     0390  009F               	movwf	31	;volatile
   607     0391                     l1568:
   608                           
   609                           ;main.c: 36: 
   610     0391  170C               	bsf	12,6	;volatile
   611     0392                     l1570:
   612                           
   613                           ;main.c: 37:         if (PORTBbits.RB1 == 1) {
   614     0392  1486               	bsf	6,1	;volatile
   615     0393                     l1572:
   616                           
   617                           ;main.c: 39:             if (PORTBbits.RB1 == 1) {
   618     0393  0188               	clrf	8	;volatile
   619     0394                     l1574:
   620                           
   621                           ;main.c: 40:                 lcd_command(0x01);
   622     0394  1287               	bcf	7,5	;volatile
   623     0395                     l1576:
   624                           
   625                           ;main.c: 41:                 numbers[colorIndex] = numbers[colorIndex] + 1;
   626     0395  1307               	bcf	7,6	;volatile
   627     0396                     l1578:
   628                           
   629                           ;main.c: 42:                 if (numbers[colorIndex] > 100) numbers[colorIndex] = 0;
   630     0396  1387               	bcf	7,7	;volatile
   631     0397                     l1580:
   632                           
   633                           ;main.c: 44:         }
   634     0397  120A  158A  279D  120A  118A  	fcall	_lcd_initialize
   635     039C                     l1582:
   636                           
   637                           ;main.c: 45: 
   638     039C  120A  118A  27EE  120A  118A  	fcall	_ADC_Init
   639     03A1                     l1584:
   640                           
   641                           ;main.c: 48:         lcd_string(colors[colorIndex]);
   642     03A1  1283               	bcf	3,5	;RP0=0, select bank0
   643     03A2  1303               	bcf	3,6	;RP1=0, select bank0
   644     03A3  151F               	bsf	31,2	;volatile
   645     03A4                     l58:	
   646                           ;main.c: 49:         lcd_command(0xC0);
   647                           
   648     03A4  191F               	btfsc	31,2	;volatile
   649     03A5  2BA7               	goto	u2051
   650     03A6  2BA8               	goto	u2050
   651     03A7                     u2051:
   652     03A7  2BA4               	goto	l58
   653     03A8                     u2050:
   654     03A8                     l60:
   655                           
   656                           ;main.c: 51:         int a = numbers[colorIndex] / 10;
   657     03A8  1C86               	btfss	6,1	;volatile
   658     03A9  2BAB               	goto	u2061
   659     03AA  2BAC               	goto	u2060
   660     03AB                     u2061:
   661     03AB  2C13               	goto	l1598
   662     03AC                     u2060:
   663     03AC                     l1586:
   664                           
   665                           ;main.c: 52:         int b = numbers[colorIndex] % 10;
   666     03AC  3002               	movlw	2
   667     03AD  1683               	bsf	3,5	;RP0=1, select bank1
   668     03AE  1303               	bcf	3,6	;RP1=0, select bank1
   669     03AF  00AA               	movwf	(??_main^(0+128)+2)
   670     03B0  3045               	movlw	69
   671     03B1  00A9               	movwf	(??_main^(0+128)+1)
   672     03B2  30A9               	movlw	169
   673     03B3  00A8               	movwf	??_main^(0+128)
   674     03B4                     u2097:
   675     03B4  0BA8               	decfsz	??_main^(0+128),f
   676     03B5  2BB4               	goto	u2097
   677     03B6  0BA9               	decfsz	(??_main^(0+128)+1),f
   678     03B7  2BB4               	goto	u2097
   679     03B8  0BAA               	decfsz	(??_main^(0+128)+2),f
   680     03B9  2BB4               	goto	u2097
   681     03BA                     l1588:
   682                           
   683                           ;main.c: 53:         lcd_data(a + '0');
   684     03BA  1283               	bcf	3,5	;RP0=0, select bank0
   685     03BB  1303               	bcf	3,6	;RP1=0, select bank0
   686     03BC  1C86               	btfss	6,1	;volatile
   687     03BD  2BBF               	goto	u2071
   688     03BE  2BC0               	goto	u2070
   689     03BF                     u2071:
   690     03BF  2C13               	goto	l1598
   691     03C0                     u2070:
   692     03C0                     l1590:
   693                           
   694                           ;main.c: 54:         lcd_data(b + '0');
   695     03C0  3001               	movlw	1
   696     03C1  120A  158A  2771  120A  118A  	fcall	_lcd_command
   697     03C6                     l1592:
   698                           
   699                           ;main.c: 55: 
   700     03C6  1283               	bcf	3,5	;RP0=0, select bank0
   701     03C7  1303               	bcf	3,6	;RP1=0, select bank0
   702     03C8  084C               	movf	_colorIndex,w
   703     03C9  1683               	bsf	3,5	;RP0=1, select bank1
   704     03CA  1303               	bcf	3,6	;RP1=0, select bank1
   705     03CB  00A8               	movwf	??_main^(0+128)
   706     03CC  0728               	addwf	??_main^(0+128),w
   707     03CD  3E40               	addlw	(low (_numbers| 0))& (0+255)
   708     03CE  0084               	movwf	4
   709     03CF  1383               	bcf	3,7	;select IRP bank0
   710     03D0  0800               	movf	0,w
   711     03D1  00A9               	movwf	(??_main+1)^(0+128)
   712     03D2  0A84               	incf	4,f
   713     03D3  0800               	movf	0,w
   714     03D4  00AA               	movwf	((??_main+1)^(0+128)+1)
   715     03D5  0829               	movf	(??_main+1)^(0+128),w
   716     03D6  3E01               	addlw	1
   717     03D7  00AB               	movwf	(??_main+3)^(0+128)
   718     03D8  082A               	movf	(??_main+2)^(0+128),w
   719     03D9  1803               	skipnc
   720     03DA  3E01               	addlw	1
   721     03DB  3E00               	addlw	0
   722     03DC  00AC               	movwf	(??_main+4)^(0+128)
   723     03DD  1283               	bcf	3,5	;RP0=0, select bank0
   724     03DE  1303               	bcf	3,6	;RP1=0, select bank0
   725     03DF  084C               	movf	_colorIndex,w
   726     03E0  1683               	bsf	3,5	;RP0=1, select bank1
   727     03E1  1303               	bcf	3,6	;RP1=0, select bank1
   728     03E2  00AD               	movwf	(??_main+5)^(0+128)
   729     03E3  072D               	addwf	(??_main+5)^(0+128),w
   730     03E4  3E40               	addlw	(low (_numbers| 0))& (0+255)
   731     03E5  0084               	movwf	4
   732     03E6  082B               	movf	(??_main+3)^(0+128),w
   733     03E7  0080               	movwf	0
   734     03E8  0A84               	incf	4,f
   735     03E9  082C               	movf	(??_main+4)^(0+128),w
   736     03EA  0080               	movwf	0
   737     03EB                     l1594:
   738                           
   739                           ;main.c: 56:         _delay((unsigned long)((50)*(20000000/4000.0)));
   740     03EB  1283               	bcf	3,5	;RP0=0, select bank0
   741     03EC  1303               	bcf	3,6	;RP1=0, select bank0
   742     03ED  084C               	movf	_colorIndex,w
   743     03EE  1683               	bsf	3,5	;RP0=1, select bank1
   744     03EF  1303               	bcf	3,6	;RP1=0, select bank1
   745     03F0  00A8               	movwf	??_main^(0+128)
   746     03F1  0728               	addwf	??_main^(0+128),w
   747     03F2  3E40               	addlw	(low (_numbers| 0))& (0+255)
   748     03F3  0084               	movwf	4
   749     03F4  0800               	movf	0,w
   750     03F5  00A9               	movwf	(??_main+1)^(0+128)
   751     03F6  0A84               	incf	4,f
   752     03F7  0800               	movf	0,w
   753     03F8  00AA               	movwf	((??_main+1)^(0+128)+1)
   754     03F9  082A               	movf	(??_main+2)^(0+128),w
   755     03FA  3A80               	xorlw	128
   756     03FB  00FF               	movwf	btemp+1
   757     03FC  3080               	movlw	128
   758     03FD  027F               	subwf	btemp+1,w
   759     03FE  1D03               	skipz
   760     03FF  2C02               	goto	u2085
   761     0400  3065               	movlw	101
   762     0401  0229               	subwf	(??_main+1)^(0+128),w
   763     0402                     u2085:
   764     0402  1C03               	skipc
   765     0403  2C05               	goto	u2081
   766     0404  2C06               	goto	u2080
   767     0405                     u2081:
   768     0405  2C13               	goto	l1598
   769     0406                     u2080:
   770     0406                     l1596:
   771     0406  1283               	bcf	3,5	;RP0=0, select bank0
   772     0407  1303               	bcf	3,6	;RP1=0, select bank0
   773     0408  084C               	movf	_colorIndex,w
   774     0409  1683               	bsf	3,5	;RP0=1, select bank1
   775     040A  1303               	bcf	3,6	;RP1=0, select bank1
   776     040B  00A8               	movwf	??_main^(0+128)
   777     040C  0728               	addwf	??_main^(0+128),w
   778     040D  3E40               	addlw	(low (_numbers| 0))& (0+255)
   779     040E  0084               	movwf	4
   780     040F  1383               	bcf	3,7	;select IRP bank0
   781     0410  0180               	clrf	0
   782     0411  0A84               	incf	4,f
   783     0412  0180               	clrf	0
   784     0413                     l1598:
   785                           
   786                           ;main.c: 60: }
   787     0413  3080               	movlw	128
   788     0414  120A  158A  2771  120A  118A  	fcall	_lcd_command
   789     0419                     l1600:
   790                           
   791                           ;main.c: 61: 
   792     0419  300A               	movlw	(low ((STR_5-__stringbase)| (0+32768)))& (0+255)
   793     041A  120A  158A  27B6  120A  118A  	fcall	_lcd_string
   794     041F                     l1602:
   795                           
   796                           ;main.c: 62: void ADC_Init(void) {
   797     041F  1283               	bcf	3,5	;RP0=0, select bank0
   798     0420  1303               	bcf	3,6	;RP1=0, select bank0
   799     0421  084C               	movf	_colorIndex,w
   800     0422  3E4F               	addlw	(low (_colors| 0))& (0+255)
   801     0423  0084               	movwf	4
   802     0424  1383               	bcf	3,7	;select IRP bank0
   803     0425  0800               	movf	0,w
   804     0426  120A  158A  27B6  120A  118A  	fcall	_lcd_string
   805     042B                     l1604:
   806                           
   807                           ;main.c: 63:     ADCON0 = 0b10000001;
   808     042B  30C0               	movlw	192
   809     042C  120A  158A  2771  120A  118A  	fcall	_lcd_command
   810     0431                     l1606:
   811                           
   812                           ;main.c: 64:     ADCON1 = 0b10001110;
   813     0431  3001               	movlw	(low ((STR_6-__stringbase)| (0+32768)))& (0+255)
   814     0432  120A  158A  27B6  120A  118A  	fcall	_lcd_string
   815     0437                     l1608:
   816                           
   817                           ;main.c: 65: }
   818     0437  300A               	movlw	10
   819     0438  1683               	bsf	3,5	;RP0=1, select bank1
   820     0439  1303               	bcf	3,6	;RP1=0, select bank1
   821     043A  00A0               	movwf	___awdiv@divisor^(0+128)
   822     043B  3000               	movlw	0
   823     043C  00A1               	movwf	(___awdiv@divisor^(0+128)+1)
   824     043D  1283               	bcf	3,5	;RP0=0, select bank0
   825     043E  1303               	bcf	3,6	;RP1=0, select bank0
   826     043F  084C               	movf	_colorIndex,w
   827     0440  1683               	bsf	3,5	;RP0=1, select bank1
   828     0441  1303               	bcf	3,6	;RP1=0, select bank1
   829     0442  00A8               	movwf	??_main^(0+128)
   830     0443  0728               	addwf	??_main^(0+128),w
   831     0444  3E40               	addlw	(low (_numbers| 0))& (0+255)
   832     0445  0084               	movwf	4
   833     0446  1383               	bcf	3,7	;select IRP bank0
   834     0447  0800               	movf	0,w
   835     0448  00A2               	movwf	___awdiv@dividend^(0+128)
   836     0449  0A84               	incf	4,f
   837     044A  0800               	movf	0,w
   838     044B  00A3               	movwf	(___awdiv@dividend+1)^(0+128)
   839     044C  120A  118A  2756  120A  118A  	fcall	___awdiv
   840     0451  1683               	bsf	3,5	;RP0=1, select bank1
   841     0452  1303               	bcf	3,6	;RP1=0, select bank1
   842     0453  0821               	movf	(?___awdiv+1)^(0+128),w
   843     0454  00AF               	movwf	(main@a+1)^(0+128)
   844     0455  0820               	movf	?___awdiv^(0+128),w
   845     0456  00AE               	movwf	main@a^(0+128)
   846     0457                     l1610:
   847                           
   848                           ;main.c: 66: 
   849     0457  300A               	movlw	10
   850     0458  00A0               	movwf	___awmod@divisor^(0+128)
   851     0459  3000               	movlw	0
   852     045A  00A1               	movwf	(___awmod@divisor^(0+128)+1)
   853     045B  1283               	bcf	3,5	;RP0=0, select bank0
   854     045C  1303               	bcf	3,6	;RP1=0, select bank0
   855     045D  084C               	movf	_colorIndex,w
   856     045E  1683               	bsf	3,5	;RP0=1, select bank1
   857     045F  1303               	bcf	3,6	;RP1=0, select bank1
   858     0460  00A8               	movwf	??_main^(0+128)
   859     0461  0728               	addwf	??_main^(0+128),w
   860     0462  3E40               	addlw	(low (_numbers| 0))& (0+255)
   861     0463  0084               	movwf	4
   862     0464  1383               	bcf	3,7	;select IRP bank0
   863     0465  0800               	movf	0,w
   864     0466  00A2               	movwf	___awmod@dividend^(0+128)
   865     0467  0A84               	incf	4,f
   866     0468  0800               	movf	0,w
   867     0469  00A3               	movwf	(___awmod@dividend+1)^(0+128)
   868     046A  120A  118A  26E6  120A  118A  	fcall	___awmod
   869     046F  1683               	bsf	3,5	;RP0=1, select bank1
   870     0470  1303               	bcf	3,6	;RP1=0, select bank1
   871     0471  0821               	movf	(?___awmod+1)^(0+128),w
   872     0472  00B1               	movwf	(main@b+1)^(0+128)
   873     0473  0820               	movf	?___awmod^(0+128),w
   874     0474  00B0               	movwf	main@b^(0+128)
   875     0475                     l1612:
   876                           
   877                           ;main.c: 67: void lcd_initialize() {
   878     0475  082E               	movf	main@a^(0+128),w
   879     0476  3E30               	addlw	48
   880     0477  120A  158A  2787  120A  118A  	fcall	_lcd_data
   881     047C                     l1614:
   882                           
   883                           ;main.c: 68:     lcd_command(0x38);
   884     047C  1683               	bsf	3,5	;RP0=1, select bank1
   885     047D  1303               	bcf	3,6	;RP1=0, select bank1
   886     047E  0830               	movf	main@b^(0+128),w
   887     047F  3E30               	addlw	48
   888     0480  120A  158A  2787  120A  118A  	fcall	_lcd_data
   889     0485                     l1616:
   890                           
   891                           ;main.c: 70:     lcd_command(0x0C);
   892     0485  3002               	movlw	2
   893     0486  1683               	bsf	3,5	;RP0=1, select bank1
   894     0487  1303               	bcf	3,6	;RP1=0, select bank1
   895     0488  00AA               	movwf	(??_main^(0+128)+2)
   896     0489  3045               	movlw	69
   897     048A  00A9               	movwf	(??_main^(0+128)+1)
   898     048B  30A9               	movlw	169
   899     048C  00A8               	movwf	??_main^(0+128)
   900     048D                     u2107:
   901     048D  0BA8               	decfsz	??_main^(0+128),f
   902     048E  2C8D               	goto	u2107
   903     048F  0BA9               	decfsz	(??_main^(0+128)+1),f
   904     0490  2C8D               	goto	u2107
   905     0491  0BAA               	decfsz	(??_main^(0+128)+2),f
   906     0492  2C8D               	goto	u2107
   907     0493  2BA1               	goto	l1584
   908     0494  120A  118A  2810   	ljmp	start
   909     0497                     __end_of_main:
   910                           
   911                           	psect	text1
   912     0FB6                     __ptext1:	
   913 ;; *************** function _lcd_string *****************
   914 ;; Defined at:
   915 ;;		line 97 in file "main.c"
   916 ;; Parameters:    Size  Location     Type
   917 ;;  str             1    wreg     PTR const unsigned char 
   918 ;;		 -> STR_6(9), STR_5(8), STR_4(6), STR_3(6), 
   919 ;;		 -> STR_2(6), STR_1(6), 
   920 ;; Auto vars:     Size  Location     Type
   921 ;;  str             1    0[BANK1 ] PTR const unsigned char 
   922 ;;		 -> STR_6(9), STR_5(8), STR_4(6), STR_3(6), 
   923 ;;		 -> STR_2(6), STR_1(6), 
   924 ;; Return value:  Size  Location     Type
   925 ;;                  1    wreg      void 
   926 ;; Registers used:
   927 ;;		wreg, fsr0l, fsr0h, status,2, status,0, btemp+1, pclath, cstack
   928 ;; Tracked objects:
   929 ;;		On entry : 0/0
   930 ;;		On exit  : 0/0
   931 ;;		Unchanged: 0/0
   932 ;; Data sizes:     COMMON   BANK0   BANK1   BANK3   BANK2
   933 ;;      Params:         0       0       0       0       0
   934 ;;      Locals:         0       0       1       0       0
   935 ;;      Temps:          0       0       0       0       0
   936 ;;      Totals:         0       0       1       0       0
   937 ;;Total ram usage:        1 bytes
   938 ;; Hardware stack levels used: 1
   939 ;; Hardware stack levels required when called: 4
   940 ;; This function calls:
   941 ;;		_lcd_data
   942 ;; This function is called by:
   943 ;;		_main
   944 ;; This function uses a non-reentrant model
   945 ;;
   946                           
   947     0FB6                     _lcd_string:	
   948                           ;psect for function _lcd_string
   949                           
   950                           
   951                           ;incstack = 0
   952                           ; Regs used in _lcd_string: [wreg-fsr0h+status,2+status,0+btemp+1+pclath+cstack]
   953                           ;lcd_string@str stored from wreg
   954     0FB6  1683               	bsf	3,5	;RP0=1, select bank1
   955     0FB7  1303               	bcf	3,6	;RP1=0, select bank1
   956     0FB8  00A0               	movwf	lcd_string@str^(0+128)
   957     0FB9                     l1476:
   958                           
   959                           ;main.c: 98: void __attribute__((picinterrupt(("")))) InterruptRoutine(void) {
   960     0FB9  2FCC               	goto	l1482
   961     0FBA                     l1478:
   962                           
   963                           ;main.c: 99:     if (PIR1bits.ADIF == 1) {
   964     0FBA  0820               	movf	lcd_string@str^(0+128),w
   965     0FBB  0084               	movwf	4
   966     0FBC  120A  118A  27BF  120A  158A  	fcall	stringdir
   967     0FC1  120A  158A  2787  120A  158A  	fcall	_lcd_data
   968     0FC6                     l1480:
   969     0FC6  3001               	movlw	1
   970     0FC7  00FF               	movwf	btemp+1
   971     0FC8  087F               	movf	btemp+1,w
   972     0FC9  1683               	bsf	3,5	;RP0=1, select bank1
   973     0FCA  1303               	bcf	3,6	;RP1=0, select bank1
   974     0FCB  07A0               	addwf	lcd_string@str^(0+128),f
   975     0FCC                     l1482:
   976                           
   977                           ;main.c: 98: void __attribute__((picinterrupt(("")))) InterruptRoutine(void) {
   978     0FCC  0820               	movf	lcd_string@str^(0+128),w
   979     0FCD  0084               	movwf	4
   980     0FCE  120A  118A  27BF  120A  158A  	fcall	stringdir
   981     0FD3  3A00               	xorlw	0
   982     0FD4  1D03               	skipz
   983     0FD5  2FD7               	goto	u1851
   984     0FD6  2FD8               	goto	u1850
   985     0FD7                     u1851:
   986     0FD7  2FBA               	goto	l1478
   987     0FD8                     u1850:
   988     0FD8                     l81:
   989     0FD8  0008               	return
   990     0FD9                     __end_of_lcd_string:
   991                           
   992                           	psect	text2
   993     0F87                     __ptext2:	
   994 ;; *************** function _lcd_data *****************
   995 ;; Defined at:
   996 ;;		line 88 in file "main.c"
   997 ;; Parameters:    Size  Location     Type
   998 ;;  data            1    wreg     unsigned char 
   999 ;; Auto vars:     Size  Location     Type
  1000 ;;  data            1   31[BANK0 ] unsigned char 
  1001 ;; Return value:  Size  Location     Type
  1002 ;;                  1    wreg      void 
  1003 ;; Registers used:
  1004 ;;		wreg
  1005 ;; Tracked objects:
  1006 ;;		On entry : 0/0
  1007 ;;		On exit  : 0/0
  1008 ;;		Unchanged: 0/0
  1009 ;; Data sizes:     COMMON   BANK0   BANK1   BANK3   BANK2
  1010 ;;      Params:         0       0       0       0       0
  1011 ;;      Locals:         0       1       0       0       0
  1012 ;;      Temps:          0       2       0       0       0
  1013 ;;      Totals:         0       3       0       0       0
  1014 ;;Total ram usage:        3 bytes
  1015 ;; Hardware stack levels used: 1
  1016 ;; Hardware stack levels required when called: 3
  1017 ;; This function calls:
  1018 ;;		Nothing
  1019 ;; This function is called by:
  1020 ;;		_main
  1021 ;;		_lcd_string
  1022 ;; This function uses a non-reentrant model
  1023 ;;
  1024                           
  1025     0F87                     _lcd_data:	
  1026                           ;psect for function _lcd_data
  1027                           
  1028                           
  1029                           ;incstack = 0
  1030                           ; Regs used in _lcd_data: [wreg]
  1031                           ;lcd_data@data stored from wreg
  1032     0F87  1283               	bcf	3,5	;RP0=0, select bank0
  1033     0F88  1303               	bcf	3,6	;RP1=0, select bank0
  1034     0F89  00BF               	movwf	lcd_data@data
  1035     0F8A                     l1466:
  1036                           
  1037                           ;main.c: 89: void lcd_command(unsigned char cmd) {
  1038     0F8A  1687               	bsf	7,5	;volatile
  1039                           
  1040                           ;main.c: 90:     PORTCbits.RC5 = 0;
  1041     0F8B  1307               	bcf	7,6	;volatile
  1042                           
  1043                           ;main.c: 91:     PORTCbits.RC6 = 0;
  1044     0F8C  1787               	bsf	7,7	;volatile
  1045     0F8D                     l1468:
  1046                           
  1047                           ;main.c: 92:     PORTCbits.RC7 = 1;
  1048     0F8D  083F               	movf	lcd_data@data,w
  1049     0F8E  0088               	movwf	8	;volatile
  1050                           
  1051                           ;main.c: 93:     PORTD = cmd;
  1052     0F8F  300D               	movlw	13
  1053     0F90  1283               	bcf	3,5	;RP0=0, select bank0
  1054     0F91  1303               	bcf	3,6	;RP1=0, select bank0
  1055     0F92  00BE               	movwf	??_lcd_data+1
  1056     0F93  30FB               	movlw	251
  1057     0F94  00BD               	movwf	??_lcd_data
  1058     0F95                     u2117:
  1059     0F95  0BBD               	decfsz	??_lcd_data,f
  1060     0F96  2F95               	goto	u2117
  1061     0F97  0BBE               	decfsz	??_lcd_data+1,f
  1062     0F98  2F95               	goto	u2117
  1063     0F99                     l1470:
  1064                           
  1065                           ;main.c: 94:     _delay((unsigned long)((2)*(20000000/4000.0)));
  1066     0F99  1283               	bcf	3,5	;RP0=0, select bank0
  1067     0F9A  1303               	bcf	3,6	;RP1=0, select bank0
  1068     0F9B  1387               	bcf	7,7	;volatile
  1069     0F9C                     l75:
  1070     0F9C  0008               	return
  1071     0F9D                     __end_of_lcd_data:
  1072                           
  1073                           	psect	text3
  1074     0F9D                     __ptext3:	
  1075 ;; *************** function _lcd_initialize *****************
  1076 ;; Defined at:
  1077 ;;		line 81 in file "main.c"
  1078 ;; Parameters:    Size  Location     Type
  1079 ;;		None
  1080 ;; Auto vars:     Size  Location     Type
  1081 ;;		None
  1082 ;; Return value:  Size  Location     Type
  1083 ;;                  1    wreg      void 
  1084 ;; Registers used:
  1085 ;;		wreg, status,2, status,0, pclath, cstack
  1086 ;; Tracked objects:
  1087 ;;		On entry : 0/0
  1088 ;;		On exit  : 0/0
  1089 ;;		Unchanged: 0/0
  1090 ;; Data sizes:     COMMON   BANK0   BANK1   BANK3   BANK2
  1091 ;;      Params:         0       0       0       0       0
  1092 ;;      Locals:         0       0       0       0       0
  1093 ;;      Temps:          0       0       0       0       0
  1094 ;;      Totals:         0       0       0       0       0
  1095 ;;Total ram usage:        0 bytes
  1096 ;; Hardware stack levels used: 1
  1097 ;; Hardware stack levels required when called: 4
  1098 ;; This function calls:
  1099 ;;		_lcd_command
  1100 ;; This function is called by:
  1101 ;;		_main
  1102 ;; This function uses a non-reentrant model
  1103 ;;
  1104                           
  1105     0F9D                     _lcd_initialize:	
  1106                           ;psect for function _lcd_initialize
  1107                           
  1108     0F9D                     l1472:	
  1109                           ;incstack = 0
  1110                           ; Regs used in _lcd_initialize: [wreg+status,2+status,0+pclath+cstack]
  1111                           
  1112                           
  1113                           ;main.c: 82: 
  1114     0F9D  3038               	movlw	56
  1115     0F9E  120A  158A  2771  120A  158A  	fcall	_lcd_command
  1116                           
  1117                           ;main.c: 83: void lcd_string(const char *str) {
  1118     0FA3  3006               	movlw	6
  1119     0FA4  120A  158A  2771  120A  158A  	fcall	_lcd_command
  1120                           
  1121                           ;main.c: 84:     while (*str) {
  1122     0FA9  300C               	movlw	12
  1123     0FAA  120A  158A  2771  120A  158A  	fcall	_lcd_command
  1124                           
  1125                           ;main.c: 85:         lcd_data(*str++);
  1126     0FAF  3001               	movlw	1
  1127     0FB0  120A  158A  2771  120A  158A  	fcall	_lcd_command
  1128     0FB5                     l72:
  1129     0FB5  0008               	return
  1130     0FB6                     __end_of_lcd_initialize:
  1131                           
  1132                           	psect	text4
  1133     0F71                     __ptext4:	
  1134 ;; *************** function _lcd_command *****************
  1135 ;; Defined at:
  1136 ;;		line 103 in file "main.c"
  1137 ;; Parameters:    Size  Location     Type
  1138 ;;  cmd             1    wreg     unsigned char 
  1139 ;; Auto vars:     Size  Location     Type
  1140 ;;  cmd             1   31[BANK0 ] unsigned char 
  1141 ;; Return value:  Size  Location     Type
  1142 ;;                  1    wreg      void 
  1143 ;; Registers used:
  1144 ;;		wreg
  1145 ;; Tracked objects:
  1146 ;;		On entry : 0/0
  1147 ;;		On exit  : 0/0
  1148 ;;		Unchanged: 0/0
  1149 ;; Data sizes:     COMMON   BANK0   BANK1   BANK3   BANK2
  1150 ;;      Params:         0       0       0       0       0
  1151 ;;      Locals:         0       1       0       0       0
  1152 ;;      Temps:          0       2       0       0       0
  1153 ;;      Totals:         0       3       0       0       0
  1154 ;;Total ram usage:        3 bytes
  1155 ;; Hardware stack levels used: 1
  1156 ;; Hardware stack levels required when called: 3
  1157 ;; This function calls:
  1158 ;;		Nothing
  1159 ;; This function is called by:
  1160 ;;		_main
  1161 ;;		_lcd_initialize
  1162 ;; This function uses a non-reentrant model
  1163 ;;
  1164                           
  1165     0F71                     _lcd_command:	
  1166                           ;psect for function _lcd_command
  1167                           
  1168                           
  1169                           ;incstack = 0
  1170                           ; Regs used in _lcd_command: [wreg]
  1171                           ;lcd_command@cmd stored from wreg
  1172     0F71  1283               	bcf	3,5	;RP0=0, select bank0
  1173     0F72  1303               	bcf	3,6	;RP1=0, select bank0
  1174     0F73  00BF               	movwf	lcd_command@cmd
  1175     0F74                     l1460:
  1176                           
  1177                           ;main.c: 104:         else if (tension > 2.5 && tension <= 3.75) colorIndex = 2;
  1178     0F74  1287               	bcf	7,5	;volatile
  1179                           
  1180                           ;main.c: 105:         else colorIndex = 3;
  1181     0F75  1307               	bcf	7,6	;volatile
  1182                           
  1183                           ;main.c: 106:         PIR1bits.ADIF = 0;
  1184     0F76  1787               	bsf	7,7	;volatile
  1185     0F77                     l1462:
  1186                           
  1187                           ;main.c: 107:     }
  1188     0F77  083F               	movf	lcd_command@cmd,w
  1189     0F78  0088               	movwf	8	;volatile
  1190                           
  1191                           ;main.c: 108: 
  1192     0F79  300D               	movlw	13
  1193     0F7A  1283               	bcf	3,5	;RP0=0, select bank0
  1194     0F7B  1303               	bcf	3,6	;RP1=0, select bank0
  1195     0F7C  00BE               	movwf	??_lcd_command+1
  1196     0F7D  30FB               	movlw	251
  1197     0F7E  00BD               	movwf	??_lcd_command
  1198     0F7F                     u2127:
  1199     0F7F  0BBD               	decfsz	??_lcd_command,f
  1200     0F80  2F7F               	goto	u2127
  1201     0F81  0BBE               	decfsz	??_lcd_command+1,f
  1202     0F82  2F7F               	goto	u2127
  1203     0F83                     l1464:
  1204                           
  1205                           ;main.c: 109: 
  1206     0F83  1283               	bcf	3,5	;RP0=0, select bank0
  1207     0F84  1303               	bcf	3,6	;RP1=0, select bank0
  1208     0F85  1387               	bcf	7,7	;volatile
  1209     0F86                     l84:
  1210     0F86  0008               	return
  1211     0F87                     __end_of_lcd_command:
  1212                           
  1213                           	psect	text5
  1214     06E6                     __ptext5:	
  1215 ;; *************** function ___awmod *****************
  1216 ;; Defined at:
  1217 ;;		line 5 in file "C:\Program Files\Microchip\xc8\v2.45\pic\sources\c99\common\awmod.c"
  1218 ;; Parameters:    Size  Location     Type
  1219 ;;  divisor         2    0[BANK1 ] int 
  1220 ;;  dividend        2    2[BANK1 ] int 
  1221 ;; Auto vars:     Size  Location     Type
  1222 ;;  sign            1   30[BANK0 ] unsigned char 
  1223 ;;  counter         1   29[BANK0 ] unsigned char 
  1224 ;; Return value:  Size  Location     Type
  1225 ;;                  2    0[BANK1 ] int 
  1226 ;; Registers used:
  1227 ;;		wreg, status,2, status,0, btemp+1
  1228 ;; Tracked objects:
  1229 ;;		On entry : 0/0
  1230 ;;		On exit  : 0/0
  1231 ;;		Unchanged: 0/0
  1232 ;; Data sizes:     COMMON   BANK0   BANK1   BANK3   BANK2
  1233 ;;      Params:         0       0       4       0       0
  1234 ;;      Locals:         0       2       0       0       0
  1235 ;;      Temps:          0       0       0       0       0
  1236 ;;      Totals:         0       2       4       0       0
  1237 ;;Total ram usage:        6 bytes
  1238 ;; Hardware stack levels used: 1
  1239 ;; Hardware stack levels required when called: 3
  1240 ;; This function calls:
  1241 ;;		Nothing
  1242 ;; This function is called by:
  1243 ;;		_main
  1244 ;; This function uses a non-reentrant model
  1245 ;;
  1246                           
  1247     06E6                     ___awmod:	
  1248                           ;psect for function ___awmod
  1249                           
  1250     06E6                     l1528:	
  1251                           ;incstack = 0
  1252                           ; Regs used in ___awmod: [wreg+status,2+status,0+btemp+1]
  1253                           
  1254     06E6  1283               	bcf	3,5	;RP0=0, select bank0
  1255     06E7  1303               	bcf	3,6	;RP1=0, select bank0
  1256     06E8  01BE               	clrf	___awmod@sign
  1257     06E9                     l1530:
  1258     06E9  1683               	bsf	3,5	;RP0=1, select bank1
  1259     06EA  1303               	bcf	3,6	;RP1=0, select bank1
  1260     06EB  1FA3               	btfss	(___awmod@dividend+1)^(0+128),7
  1261     06EC  2EEE               	goto	u1961
  1262     06ED  2EEF               	goto	u1960
  1263     06EE                     u1961:
  1264     06EE  2EF8               	goto	l1536
  1265     06EF                     u1960:
  1266     06EF                     l1532:
  1267     06EF  09A2               	comf	___awmod@dividend^(0+128),f
  1268     06F0  09A3               	comf	(___awmod@dividend+1)^(0+128),f
  1269     06F1  0AA2               	incf	___awmod@dividend^(0+128),f
  1270     06F2  1903               	skipnz
  1271     06F3  0AA3               	incf	(___awmod@dividend+1)^(0+128),f
  1272     06F4                     l1534:
  1273     06F4  1283               	bcf	3,5	;RP0=0, select bank0
  1274     06F5  1303               	bcf	3,6	;RP1=0, select bank0
  1275     06F6  01BE               	clrf	___awmod@sign
  1276     06F7  0ABE               	incf	___awmod@sign,f
  1277     06F8                     l1536:
  1278     06F8  1683               	bsf	3,5	;RP0=1, select bank1
  1279     06F9  1303               	bcf	3,6	;RP1=0, select bank1
  1280     06FA  1FA1               	btfss	(___awmod@divisor+1)^(0+128),7
  1281     06FB  2EFD               	goto	u1971
  1282     06FC  2EFE               	goto	u1970
  1283     06FD                     u1971:
  1284     06FD  2F03               	goto	l1540
  1285     06FE                     u1970:
  1286     06FE                     l1538:
  1287     06FE  09A0               	comf	___awmod@divisor^(0+128),f
  1288     06FF  09A1               	comf	(___awmod@divisor+1)^(0+128),f
  1289     0700  0AA0               	incf	___awmod@divisor^(0+128),f
  1290     0701  1903               	skipnz
  1291     0702  0AA1               	incf	(___awmod@divisor+1)^(0+128),f
  1292     0703                     l1540:
  1293     0703  0820               	movf	___awmod@divisor^(0+128),w
  1294     0704  0421               	iorwf	(___awmod@divisor+1)^(0+128),w
  1295     0705  1903               	btfsc	3,2
  1296     0706  2F08               	goto	u1981
  1297     0707  2F09               	goto	u1980
  1298     0708                     u1981:
  1299     0708  2F42               	goto	l1558
  1300     0709                     u1980:
  1301     0709                     l1542:
  1302     0709  1283               	bcf	3,5	;RP0=0, select bank0
  1303     070A  1303               	bcf	3,6	;RP1=0, select bank0
  1304     070B  01BD               	clrf	___awmod@counter
  1305     070C  0ABD               	incf	___awmod@counter,f
  1306     070D  2F1B               	goto	l1548
  1307     070E                     l1544:
  1308     070E  3001               	movlw	1
  1309     070F                     u1995:
  1310     070F  1003               	clrc
  1311     0710  0DA0               	rlf	___awmod@divisor^(0+128),f
  1312     0711  0DA1               	rlf	(___awmod@divisor+1)^(0+128),f
  1313     0712  3EFF               	addlw	-1
  1314     0713  1D03               	skipz
  1315     0714  2F0F               	goto	u1995
  1316     0715                     l1546:
  1317     0715  3001               	movlw	1
  1318     0716  00FF               	movwf	btemp+1
  1319     0717  087F               	movf	btemp+1,w
  1320     0718  1283               	bcf	3,5	;RP0=0, select bank0
  1321     0719  1303               	bcf	3,6	;RP1=0, select bank0
  1322     071A  07BD               	addwf	___awmod@counter,f
  1323     071B                     l1548:
  1324     071B  1683               	bsf	3,5	;RP0=1, select bank1
  1325     071C  1303               	bcf	3,6	;RP1=0, select bank1
  1326     071D  1FA1               	btfss	(___awmod@divisor+1)^(0+128),7
  1327     071E  2F20               	goto	u2001
  1328     071F  2F21               	goto	u2000
  1329     0720                     u2001:
  1330     0720  2F0E               	goto	l1544
  1331     0721                     u2000:
  1332     0721                     l1550:
  1333     0721  1683               	bsf	3,5	;RP0=1, select bank1
  1334     0722  1303               	bcf	3,6	;RP1=0, select bank1
  1335     0723  0821               	movf	(___awmod@divisor+1)^(0+128),w
  1336     0724  0223               	subwf	(___awmod@dividend+1)^(0+128),w
  1337     0725  1D03               	skipz
  1338     0726  2F29               	goto	u2015
  1339     0727  0820               	movf	___awmod@divisor^(0+128),w
  1340     0728  0222               	subwf	___awmod@dividend^(0+128),w
  1341     0729                     u2015:
  1342     0729  1C03               	skipc
  1343     072A  2F2C               	goto	u2011
  1344     072B  2F2D               	goto	u2010
  1345     072C                     u2011:
  1346     072C  2F33               	goto	l1554
  1347     072D                     u2010:
  1348     072D                     l1552:
  1349     072D  0820               	movf	___awmod@divisor^(0+128),w
  1350     072E  02A2               	subwf	___awmod@dividend^(0+128),f
  1351     072F  0821               	movf	(___awmod@divisor+1)^(0+128),w
  1352     0730  1C03               	skipc
  1353     0731  03A3               	decf	(___awmod@dividend+1)^(0+128),f
  1354     0732  02A3               	subwf	(___awmod@dividend+1)^(0+128),f
  1355     0733                     l1554:
  1356     0733  3001               	movlw	1
  1357     0734                     u2025:
  1358     0734  1003               	clrc
  1359     0735  0CA1               	rrf	(___awmod@divisor+1)^(0+128),f
  1360     0736  0CA0               	rrf	___awmod@divisor^(0+128),f
  1361     0737  3EFF               	addlw	-1
  1362     0738  1D03               	skipz
  1363     0739  2F34               	goto	u2025
  1364     073A                     l1556:
  1365     073A  3001               	movlw	1
  1366     073B  1283               	bcf	3,5	;RP0=0, select bank0
  1367     073C  1303               	bcf	3,6	;RP1=0, select bank0
  1368     073D  02BD               	subwf	___awmod@counter,f
  1369     073E  1D03               	btfss	3,2
  1370     073F  2F41               	goto	u2031
  1371     0740  2F42               	goto	u2030
  1372     0741                     u2031:
  1373     0741  2F21               	goto	l1550
  1374     0742                     u2030:
  1375     0742                     l1558:
  1376     0742  1283               	bcf	3,5	;RP0=0, select bank0
  1377     0743  083E               	movf	___awmod@sign,w
  1378     0744  1903               	btfsc	3,2
  1379     0745  2F47               	goto	u2041
  1380     0746  2F48               	goto	u2040
  1381     0747                     u2041:
  1382     0747  2F4F               	goto	l1562
  1383     0748                     u2040:
  1384     0748                     l1560:
  1385     0748  1683               	bsf	3,5	;RP0=1, select bank1
  1386     0749  1303               	bcf	3,6	;RP1=0, select bank1
  1387     074A  09A2               	comf	___awmod@dividend^(0+128),f
  1388     074B  09A3               	comf	(___awmod@dividend+1)^(0+128),f
  1389     074C  0AA2               	incf	___awmod@dividend^(0+128),f
  1390     074D  1903               	skipnz
  1391     074E  0AA3               	incf	(___awmod@dividend+1)^(0+128),f
  1392     074F                     l1562:
  1393     074F  1683               	bsf	3,5	;RP0=1, select bank1
  1394     0750  1303               	bcf	3,6	;RP1=0, select bank1
  1395     0751  0823               	movf	(___awmod@dividend+1)^(0+128),w
  1396     0752  00A1               	movwf	(?___awmod+1)^(0+128)
  1397     0753  0822               	movf	___awmod@dividend^(0+128),w
  1398     0754  00A0               	movwf	?___awmod^(0+128)
  1399     0755                     l348:
  1400     0755  0008               	return
  1401     0756                     __end_of___awmod:
  1402                           
  1403                           	psect	text6
  1404     0756                     __ptext6:	
  1405 ;; *************** function ___awdiv *****************
  1406 ;; Defined at:
  1407 ;;		line 5 in file "C:\Program Files\Microchip\xc8\v2.45\pic\sources\c99\common\awdiv.c"
  1408 ;; Parameters:    Size  Location     Type
  1409 ;;  divisor         2    0[BANK1 ] int 
  1410 ;;  dividend        2    2[BANK1 ] int 
  1411 ;; Auto vars:     Size  Location     Type
  1412 ;;  quotient        2    6[BANK1 ] int 
  1413 ;;  sign            1    5[BANK1 ] unsigned char 
  1414 ;;  counter         1    4[BANK1 ] unsigned char 
  1415 ;; Return value:  Size  Location     Type
  1416 ;;                  2    0[BANK1 ] int 
  1417 ;; Registers used:
  1418 ;;		wreg, status,2, status,0, btemp+1
  1419 ;; Tracked objects:
  1420 ;;		On entry : 0/0
  1421 ;;		On exit  : 0/0
  1422 ;;		Unchanged: 0/0
  1423 ;; Data sizes:     COMMON   BANK0   BANK1   BANK3   BANK2
  1424 ;;      Params:         0       0       4       0       0
  1425 ;;      Locals:         0       0       4       0       0
  1426 ;;      Temps:          0       0       0       0       0
  1427 ;;      Totals:         0       0       8       0       0
  1428 ;;Total ram usage:        8 bytes
  1429 ;; Hardware stack levels used: 1
  1430 ;; Hardware stack levels required when called: 3
  1431 ;; This function calls:
  1432 ;;		Nothing
  1433 ;; This function is called by:
  1434 ;;		_main
  1435 ;; This function uses a non-reentrant model
  1436 ;;
  1437                           
  1438     0756                     ___awdiv:	
  1439                           ;psect for function ___awdiv
  1440                           
  1441     0756                     l1484:	
  1442                           ;incstack = 0
  1443                           ; Regs used in ___awdiv: [wreg+status,2+status,0+btemp+1]
  1444                           
  1445     0756  1683               	bsf	3,5	;RP0=1, select bank1
  1446     0757  1303               	bcf	3,6	;RP1=0, select bank1
  1447     0758  01A5               	clrf	___awdiv@sign^(0+128)
  1448     0759                     l1486:
  1449     0759  1FA1               	btfss	(___awdiv@divisor+1)^(0+128),7
  1450     075A  2F5C               	goto	u1861
  1451     075B  2F5D               	goto	u1860
  1452     075C                     u1861:
  1453     075C  2F64               	goto	l1492
  1454     075D                     u1860:
  1455     075D                     l1488:
  1456     075D  09A0               	comf	___awdiv@divisor^(0+128),f
  1457     075E  09A1               	comf	(___awdiv@divisor+1)^(0+128),f
  1458     075F  0AA0               	incf	___awdiv@divisor^(0+128),f
  1459     0760  1903               	skipnz
  1460     0761  0AA1               	incf	(___awdiv@divisor+1)^(0+128),f
  1461     0762                     l1490:
  1462     0762  01A5               	clrf	___awdiv@sign^(0+128)
  1463     0763  0AA5               	incf	___awdiv@sign^(0+128),f
  1464     0764                     l1492:
  1465     0764  1FA3               	btfss	(___awdiv@dividend+1)^(0+128),7
  1466     0765  2F67               	goto	u1871
  1467     0766  2F68               	goto	u1870
  1468     0767                     u1871:
  1469     0767  2F71               	goto	l1498
  1470     0768                     u1870:
  1471     0768                     l1494:
  1472     0768  09A2               	comf	___awdiv@dividend^(0+128),f
  1473     0769  09A3               	comf	(___awdiv@dividend+1)^(0+128),f
  1474     076A  0AA2               	incf	___awdiv@dividend^(0+128),f
  1475     076B  1903               	skipnz
  1476     076C  0AA3               	incf	(___awdiv@dividend+1)^(0+128),f
  1477     076D                     l1496:
  1478     076D  3001               	movlw	1
  1479     076E  00FF               	movwf	btemp+1
  1480     076F  087F               	movf	btemp+1,w
  1481     0770  06A5               	xorwf	___awdiv@sign^(0+128),f
  1482     0771                     l1498:
  1483     0771  01A6               	clrf	___awdiv@quotient^(0+128)
  1484     0772  01A7               	clrf	(___awdiv@quotient+1)^(0+128)
  1485     0773                     l1500:
  1486     0773  0820               	movf	___awdiv@divisor^(0+128),w
  1487     0774  0421               	iorwf	(___awdiv@divisor+1)^(0+128),w
  1488     0775  1903               	btfsc	3,2
  1489     0776  2F78               	goto	u1881
  1490     0777  2F79               	goto	u1880
  1491     0778                     u1881:
  1492     0778  2FB0               	goto	l1520
  1493     0779                     u1880:
  1494     0779                     l1502:
  1495     0779  01A4               	clrf	___awdiv@counter^(0+128)
  1496     077A  0AA4               	incf	___awdiv@counter^(0+128),f
  1497     077B  2F87               	goto	l1508
  1498     077C                     l1504:
  1499     077C  3001               	movlw	1
  1500     077D                     u1895:
  1501     077D  1003               	clrc
  1502     077E  0DA0               	rlf	___awdiv@divisor^(0+128),f
  1503     077F  0DA1               	rlf	(___awdiv@divisor+1)^(0+128),f
  1504     0780  3EFF               	addlw	-1
  1505     0781  1D03               	skipz
  1506     0782  2F7D               	goto	u1895
  1507     0783                     l1506:
  1508     0783  3001               	movlw	1
  1509     0784  00FF               	movwf	btemp+1
  1510     0785  087F               	movf	btemp+1,w
  1511     0786  07A4               	addwf	___awdiv@counter^(0+128),f
  1512     0787                     l1508:
  1513     0787  1FA1               	btfss	(___awdiv@divisor+1)^(0+128),7
  1514     0788  2F8A               	goto	u1901
  1515     0789  2F8B               	goto	u1900
  1516     078A                     u1901:
  1517     078A  2F7C               	goto	l1504
  1518     078B                     u1900:
  1519     078B                     l1510:
  1520     078B  3001               	movlw	1
  1521     078C                     u1915:
  1522     078C  1003               	clrc
  1523     078D  0DA6               	rlf	___awdiv@quotient^(0+128),f
  1524     078E  0DA7               	rlf	(___awdiv@quotient+1)^(0+128),f
  1525     078F  3EFF               	addlw	-1
  1526     0790  1D03               	skipz
  1527     0791  2F8C               	goto	u1915
  1528     0792  0821               	movf	(___awdiv@divisor+1)^(0+128),w
  1529     0793  0223               	subwf	(___awdiv@dividend+1)^(0+128),w
  1530     0794  1D03               	skipz
  1531     0795  2F98               	goto	u1925
  1532     0796  0820               	movf	___awdiv@divisor^(0+128),w
  1533     0797  0222               	subwf	___awdiv@dividend^(0+128),w
  1534     0798                     u1925:
  1535     0798  1C03               	skipc
  1536     0799  2F9B               	goto	u1921
  1537     079A  2F9C               	goto	u1920
  1538     079B                     u1921:
  1539     079B  2FA3               	goto	l1516
  1540     079C                     u1920:
  1541     079C                     l1512:
  1542     079C  0820               	movf	___awdiv@divisor^(0+128),w
  1543     079D  02A2               	subwf	___awdiv@dividend^(0+128),f
  1544     079E  0821               	movf	(___awdiv@divisor+1)^(0+128),w
  1545     079F  1C03               	skipc
  1546     07A0  03A3               	decf	(___awdiv@dividend+1)^(0+128),f
  1547     07A1  02A3               	subwf	(___awdiv@dividend+1)^(0+128),f
  1548     07A2                     l1514:
  1549     07A2  1426               	bsf	___awdiv@quotient^(0+128),0
  1550     07A3                     l1516:
  1551     07A3  3001               	movlw	1
  1552     07A4                     u1935:
  1553     07A4  1003               	clrc
  1554     07A5  0CA1               	rrf	(___awdiv@divisor+1)^(0+128),f
  1555     07A6  0CA0               	rrf	___awdiv@divisor^(0+128),f
  1556     07A7  3EFF               	addlw	-1
  1557     07A8  1D03               	skipz
  1558     07A9  2FA4               	goto	u1935
  1559     07AA                     l1518:
  1560     07AA  3001               	movlw	1
  1561     07AB  02A4               	subwf	___awdiv@counter^(0+128),f
  1562     07AC  1D03               	btfss	3,2
  1563     07AD  2FAF               	goto	u1941
  1564     07AE  2FB0               	goto	u1940
  1565     07AF                     u1941:
  1566     07AF  2F8B               	goto	l1510
  1567     07B0                     u1940:
  1568     07B0                     l1520:
  1569     07B0  0825               	movf	___awdiv@sign^(0+128),w
  1570     07B1  1903               	btfsc	3,2
  1571     07B2  2FB4               	goto	u1951
  1572     07B3  2FB5               	goto	u1950
  1573     07B4                     u1951:
  1574     07B4  2FBA               	goto	l1524
  1575     07B5                     u1950:
  1576     07B5                     l1522:
  1577     07B5  09A6               	comf	___awdiv@quotient^(0+128),f
  1578     07B6  09A7               	comf	(___awdiv@quotient+1)^(0+128),f
  1579     07B7  0AA6               	incf	___awdiv@quotient^(0+128),f
  1580     07B8  1903               	skipnz
  1581     07B9  0AA7               	incf	(___awdiv@quotient+1)^(0+128),f
  1582     07BA                     l1524:
  1583     07BA  0827               	movf	(___awdiv@quotient+1)^(0+128),w
  1584     07BB  00A1               	movwf	(?___awdiv+1)^(0+128)
  1585     07BC  0826               	movf	___awdiv@quotient^(0+128),w
  1586     07BD  00A0               	movwf	?___awdiv^(0+128)
  1587     07BE                     l335:
  1588     07BE  0008               	return
  1589     07BF                     __end_of___awdiv:
  1590                           
  1591                           	psect	text7
  1592     07EE                     __ptext7:	
  1593 ;; *************** function _ADC_Init *****************
  1594 ;; Defined at:
  1595 ;;		line 76 in file "main.c"
  1596 ;; Parameters:    Size  Location     Type
  1597 ;;		None
  1598 ;; Auto vars:     Size  Location     Type
  1599 ;;		None
  1600 ;; Return value:  Size  Location     Type
  1601 ;;                  1    wreg      void 
  1602 ;; Registers used:
  1603 ;;		wreg
  1604 ;; Tracked objects:
  1605 ;;		On entry : 0/0
  1606 ;;		On exit  : 0/0
  1607 ;;		Unchanged: 0/0
  1608 ;; Data sizes:     COMMON   BANK0   BANK1   BANK3   BANK2
  1609 ;;      Params:         0       0       0       0       0
  1610 ;;      Locals:         0       0       0       0       0
  1611 ;;      Temps:          0       0       0       0       0
  1612 ;;      Totals:         0       0       0       0       0
  1613 ;;Total ram usage:        0 bytes
  1614 ;; Hardware stack levels used: 1
  1615 ;; Hardware stack levels required when called: 3
  1616 ;; This function calls:
  1617 ;;		Nothing
  1618 ;; This function is called by:
  1619 ;;		_main
  1620 ;; This function uses a non-reentrant model
  1621 ;;
  1622                           
  1623     07EE                     _ADC_Init:	
  1624                           ;psect for function _ADC_Init
  1625                           
  1626     07EE                     l1474:	
  1627                           ;incstack = 0
  1628                           ; Regs used in _ADC_Init: [wreg]
  1629                           
  1630                           
  1631                           ;main.c: 77:     PORTCbits.RC7 = 1;
  1632     07EE  3081               	movlw	129
  1633     07EF  1283               	bcf	3,5	;RP0=0, select bank0
  1634     07F0  1303               	bcf	3,6	;RP1=0, select bank0
  1635     07F1  009F               	movwf	31	;volatile
  1636                           
  1637                           ;main.c: 78:     PORTD = data;
  1638     07F2  308E               	movlw	142
  1639     07F3  1683               	bsf	3,5	;RP0=1, select bank1
  1640     07F4  1303               	bcf	3,6	;RP1=0, select bank1
  1641     07F5  009F               	movwf	31	;volatile
  1642     07F6                     l69:
  1643     07F6  0008               	return
  1644     07F7                     __end_of_ADC_Init:
  1645                           
  1646                           	psect	text8
  1647     0497                     __ptext8:	
  1648 ;; *************** function _InterruptRoutine *****************
  1649 ;; Defined at:
  1650 ;;		line 112 in file "main.c"
  1651 ;; Parameters:    Size  Location     Type
  1652 ;;		None
  1653 ;; Auto vars:     Size  Location     Type
  1654 ;;		None
  1655 ;; Return value:  Size  Location     Type
  1656 ;;                  1    wreg      void 
  1657 ;; Registers used:
  1658 ;;		wreg, status,2, status,0, btemp+1, pclath, cstack
  1659 ;; Tracked objects:
  1660 ;;		On entry : 0/0
  1661 ;;		On exit  : 0/0
  1662 ;;		Unchanged: 0/0
  1663 ;; Data sizes:     COMMON   BANK0   BANK1   BANK3   BANK2
  1664 ;;      Params:         0       0       0       0       0
  1665 ;;      Locals:         0       0       0       0       0
  1666 ;;      Temps:          0       3       0       0       0
  1667 ;;      Totals:         0       3       0       0       0
  1668 ;;Total ram usage:        3 bytes
  1669 ;; Hardware stack levels used: 1
  1670 ;; Hardware stack levels required when called: 2
  1671 ;; This function calls:
  1672 ;;		___flge
  1673 ;;		___flmul
  1674 ;;		___xxtofl
  1675 ;; This function is called by:
  1676 ;;		Interrupt level 1
  1677 ;; This function uses a non-reentrant model
  1678 ;;
  1679                           
  1680     0497                     _InterruptRoutine:	
  1681                           ;psect for function _InterruptRoutine
  1682                           
  1683     0497                     i1l1432:
  1684                           
  1685                           ;main.c: 113: 
  1686     0497  1F0C               	btfss	12,6	;volatile
  1687     0498  2C9A               	goto	u178_21
  1688     0499  2C9B               	goto	u178_20
  1689     049A                     u178_21:
  1690     049A  2D83               	goto	i1l96
  1691     049B                     u178_20:
  1692     049B                     i1l1434:
  1693                           
  1694                           ;main.c: 114: }
  1695     049B  081E               	movf	30,w	;volatile
  1696     049C  00CE               	movwf	_valeurADC+1
  1697     049D  1683               	bsf	3,5	;RP0=1, select bank1
  1698     049E  1303               	bcf	3,6	;RP1=0, select bank1
  1699     049F  081E               	movf	30,w	;volatile
  1700     04A0  1283               	bcf	3,5	;RP0=0, select bank0
  1701     04A1  1303               	bcf	3,6	;RP1=0, select bank0
  1702     04A2  00CD               	movwf	_valeurADC
  1703     04A3                     i1l1436:
  1704     04A3  303B               	movlw	59
  1705     04A4  00A3               	movwf	___flmul@b+3
  1706     04A5  30A0               	movlw	160
  1707     04A6  00A2               	movwf	___flmul@b+2
  1708     04A7  3028               	movlw	40
  1709     04A8  00A1               	movwf	___flmul@b+1
  1710     04A9  300A               	movlw	10
  1711     04AA  00A0               	movwf	___flmul@b
  1712     04AB  084D               	movf	_valeurADC,w
  1713     04AC  00F0               	movwf	___xxtofl@val
  1714     04AD  084E               	movf	_valeurADC+1,w
  1715     04AE  00F1               	movwf	___xxtofl@val+1
  1716     04AF  01F2               	clrf	___xxtofl@val+2
  1717     04B0  01F3               	clrf	___xxtofl@val+3
  1718     04B1  3000               	movlw	0
  1719     04B2  120A  118A  258C  120A  118A  	fcall	___xxtofl
  1720     04B7  0873               	movf	?___xxtofl+3,w
  1721     04B8  1283               	bcf	3,5	;RP0=0, select bank0
  1722     04B9  1303               	bcf	3,6	;RP1=0, select bank0
  1723     04BA  00A7               	movwf	___flmul@a+3
  1724     04BB  0872               	movf	?___xxtofl+2,w
  1725     04BC  00A6               	movwf	___flmul@a+2
  1726     04BD  0871               	movf	?___xxtofl+1,w
  1727     04BE  00A5               	movwf	___flmul@a+1
  1728     04BF  0870               	movf	?___xxtofl,w
  1729     04C0  00A4               	movwf	___flmul@a
  1730     04C1  120A  118A  203E  120A  118A  	fcall	___flmul
  1731     04C6  1283               	bcf	3,5	;RP0=0, select bank0
  1732     04C7  1303               	bcf	3,6	;RP1=0, select bank0
  1733     04C8  0823               	movf	?___flmul+3,w
  1734     04C9  00CB               	movwf	_tension+3
  1735     04CA  0822               	movf	?___flmul+2,w
  1736     04CB  00CA               	movwf	_tension+2
  1737     04CC  0821               	movf	?___flmul+1,w
  1738     04CD  00C9               	movwf	_tension+1
  1739     04CE  0820               	movf	?___flmul,w
  1740     04CF  00C8               	movwf	_tension
  1741     04D0                     i1l1438:
  1742     04D0  084B               	movf	_tension+3,w
  1743     04D1  00F3               	movwf	___flge@ff1+3
  1744     04D2  084A               	movf	_tension+2,w
  1745     04D3  00F2               	movwf	___flge@ff1+2
  1746     04D4  0849               	movf	_tension+1,w
  1747     04D5  00F1               	movwf	___flge@ff1+1
  1748     04D6  0848               	movf	_tension,w
  1749     04D7  00F0               	movwf	___flge@ff1
  1750     04D8  3000               	movlw	0
  1751     04D9  00F7               	movwf	___flge@ff2+3
  1752     04DA  3000               	movlw	0
  1753     04DB  00F6               	movwf	___flge@ff2+2
  1754     04DC  3000               	movlw	0
  1755     04DD  00F5               	movwf	___flge@ff2+1
  1756     04DE  3000               	movlw	0
  1757     04DF  00F4               	movwf	___flge@ff2
  1758     04E0  120A  118A  2644  120A  118A  	fcall	___flge
  1759     04E5  1C03               	btfss	3,0
  1760     04E6  2CE8               	goto	u179_21
  1761     04E7  2CE9               	goto	u179_20
  1762     04E8                     u179_21:
  1763     04E8  2D08               	goto	i1l1444
  1764     04E9                     u179_20:
  1765     04E9                     i1l1440:
  1766     04E9  303F               	movlw	63
  1767     04EA  00F3               	movwf	___flge@ff1+3
  1768     04EB  30A0               	movlw	160
  1769     04EC  00F2               	movwf	___flge@ff1+2
  1770     04ED  3000               	movlw	0
  1771     04EE  00F1               	movwf	___flge@ff1+1
  1772     04EF  3000               	movlw	0
  1773     04F0  00F0               	movwf	___flge@ff1
  1774     04F1  1283               	bcf	3,5	;RP0=0, select bank0
  1775     04F2  1303               	bcf	3,6	;RP1=0, select bank0
  1776     04F3  084B               	movf	_tension+3,w
  1777     04F4  00F7               	movwf	___flge@ff2+3
  1778     04F5  084A               	movf	_tension+2,w
  1779     04F6  00F6               	movwf	___flge@ff2+2
  1780     04F7  0849               	movf	_tension+1,w
  1781     04F8  00F5               	movwf	___flge@ff2+1
  1782     04F9  0848               	movf	_tension,w
  1783     04FA  00F4               	movwf	___flge@ff2
  1784     04FB  120A  118A  2644  120A  118A  	fcall	___flge
  1785     0500  1C03               	btfss	3,0
  1786     0501  2D03               	goto	u180_21
  1787     0502  2D04               	goto	u180_20
  1788     0503                     u180_21:
  1789     0503  2D08               	goto	i1l1444
  1790     0504                     u180_20:
  1791     0504                     i1l1442:
  1792     0504  1283               	bcf	3,5	;RP0=0, select bank0
  1793     0505  1303               	bcf	3,6	;RP1=0, select bank0
  1794     0506  01CC               	clrf	_colorIndex
  1795     0507  2D82               	goto	i1l1458
  1796     0508                     i1l1444:
  1797     0508  303F               	movlw	63
  1798     0509  00F3               	movwf	___flge@ff1+3
  1799     050A  30A0               	movlw	160
  1800     050B  00F2               	movwf	___flge@ff1+2
  1801     050C  3000               	movlw	0
  1802     050D  00F1               	movwf	___flge@ff1+1
  1803     050E  3000               	movlw	0
  1804     050F  00F0               	movwf	___flge@ff1
  1805     0510  1283               	bcf	3,5	;RP0=0, select bank0
  1806     0511  1303               	bcf	3,6	;RP1=0, select bank0
  1807     0512  084B               	movf	_tension+3,w
  1808     0513  00F7               	movwf	___flge@ff2+3
  1809     0514  084A               	movf	_tension+2,w
  1810     0515  00F6               	movwf	___flge@ff2+2
  1811     0516  0849               	movf	_tension+1,w
  1812     0517  00F5               	movwf	___flge@ff2+1
  1813     0518  0848               	movf	_tension,w
  1814     0519  00F4               	movwf	___flge@ff2
  1815     051A  120A  118A  2644  120A  118A  	fcall	___flge
  1816     051F  1803               	btfsc	3,0
  1817     0520  2D22               	goto	u181_21
  1818     0521  2D23               	goto	u181_20
  1819     0522                     u181_21:
  1820     0522  2D43               	goto	i1l1450
  1821     0523                     u181_20:
  1822     0523                     i1l1446:
  1823     0523  3040               	movlw	64
  1824     0524  00F3               	movwf	___flge@ff1+3
  1825     0525  3020               	movlw	32
  1826     0526  00F2               	movwf	___flge@ff1+2
  1827     0527  3000               	movlw	0
  1828     0528  00F1               	movwf	___flge@ff1+1
  1829     0529  3000               	movlw	0
  1830     052A  00F0               	movwf	___flge@ff1
  1831     052B  1283               	bcf	3,5	;RP0=0, select bank0
  1832     052C  1303               	bcf	3,6	;RP1=0, select bank0
  1833     052D  084B               	movf	_tension+3,w
  1834     052E  00F7               	movwf	___flge@ff2+3
  1835     052F  084A               	movf	_tension+2,w
  1836     0530  00F6               	movwf	___flge@ff2+2
  1837     0531  0849               	movf	_tension+1,w
  1838     0532  00F5               	movwf	___flge@ff2+1
  1839     0533  0848               	movf	_tension,w
  1840     0534  00F4               	movwf	___flge@ff2
  1841     0535  120A  118A  2644  120A  118A  	fcall	___flge
  1842     053A  1C03               	btfss	3,0
  1843     053B  2D3D               	goto	u182_21
  1844     053C  2D3E               	goto	u182_20
  1845     053D                     u182_21:
  1846     053D  2D43               	goto	i1l1450
  1847     053E                     u182_20:
  1848     053E                     i1l1448:
  1849     053E  1283               	bcf	3,5	;RP0=0, select bank0
  1850     053F  1303               	bcf	3,6	;RP1=0, select bank0
  1851     0540  01CC               	clrf	_colorIndex
  1852     0541  0ACC               	incf	_colorIndex,f
  1853     0542  2D82               	goto	i1l1458
  1854     0543                     i1l1450:
  1855     0543  3040               	movlw	64
  1856     0544  00F3               	movwf	___flge@ff1+3
  1857     0545  3020               	movlw	32
  1858     0546  00F2               	movwf	___flge@ff1+2
  1859     0547  3000               	movlw	0
  1860     0548  00F1               	movwf	___flge@ff1+1
  1861     0549  3000               	movlw	0
  1862     054A  00F0               	movwf	___flge@ff1
  1863     054B  1283               	bcf	3,5	;RP0=0, select bank0
  1864     054C  1303               	bcf	3,6	;RP1=0, select bank0
  1865     054D  084B               	movf	_tension+3,w
  1866     054E  00F7               	movwf	___flge@ff2+3
  1867     054F  084A               	movf	_tension+2,w
  1868     0550  00F6               	movwf	___flge@ff2+2
  1869     0551  0849               	movf	_tension+1,w
  1870     0552  00F5               	movwf	___flge@ff2+1
  1871     0553  0848               	movf	_tension,w
  1872     0554  00F4               	movwf	___flge@ff2
  1873     0555  120A  118A  2644  120A  118A  	fcall	___flge
  1874     055A  1803               	btfsc	3,0
  1875     055B  2D5D               	goto	u183_21
  1876     055C  2D5E               	goto	u183_20
  1877     055D                     u183_21:
  1878     055D  2D7E               	goto	i1l1456
  1879     055E                     u183_20:
  1880     055E                     i1l1452:
  1881     055E  3040               	movlw	64
  1882     055F  00F3               	movwf	___flge@ff1+3
  1883     0560  3070               	movlw	112
  1884     0561  00F2               	movwf	___flge@ff1+2
  1885     0562  3000               	movlw	0
  1886     0563  00F1               	movwf	___flge@ff1+1
  1887     0564  3000               	movlw	0
  1888     0565  00F0               	movwf	___flge@ff1
  1889     0566  1283               	bcf	3,5	;RP0=0, select bank0
  1890     0567  1303               	bcf	3,6	;RP1=0, select bank0
  1891     0568  084B               	movf	_tension+3,w
  1892     0569  00F7               	movwf	___flge@ff2+3
  1893     056A  084A               	movf	_tension+2,w
  1894     056B  00F6               	movwf	___flge@ff2+2
  1895     056C  0849               	movf	_tension+1,w
  1896     056D  00F5               	movwf	___flge@ff2+1
  1897     056E  0848               	movf	_tension,w
  1898     056F  00F4               	movwf	___flge@ff2
  1899     0570  120A  118A  2644  120A  118A  	fcall	___flge
  1900     0575  1C03               	btfss	3,0
  1901     0576  2D78               	goto	u184_21
  1902     0577  2D79               	goto	u184_20
  1903     0578                     u184_21:
  1904     0578  2D7E               	goto	i1l1456
  1905     0579                     u184_20:
  1906     0579                     i1l1454:
  1907     0579  3002               	movlw	2
  1908     057A  1283               	bcf	3,5	;RP0=0, select bank0
  1909     057B  1303               	bcf	3,6	;RP1=0, select bank0
  1910     057C  00CC               	movwf	_colorIndex
  1911     057D  2D82               	goto	i1l1458
  1912     057E                     i1l1456:
  1913     057E  3003               	movlw	3
  1914     057F  1283               	bcf	3,5	;RP0=0, select bank0
  1915     0580  1303               	bcf	3,6	;RP1=0, select bank0
  1916     0581  00CC               	movwf	_colorIndex
  1917     0582                     i1l1458:
  1918     0582  130C               	bcf	12,6	;volatile
  1919     0583                     i1l96:
  1920     0583  083C               	movf	??_InterruptRoutine+2,w
  1921     0584  00FF               	movwf	btemp+1
  1922     0585  083B               	movf	??_InterruptRoutine+1,w
  1923     0586  008A               	movwf	10
  1924     0587  0E3A               	swapf	??_InterruptRoutine,w
  1925     0588  0083               	movwf	3
  1926     0589  0EFE               	swapf	btemp,f
  1927     058A  0E7E               	swapf	btemp,w
  1928     058B  0009               	retfie
  1929     058C                     __end_of_InterruptRoutine:
  1930                           
  1931                           	psect	intentry
  1932     0004                     __pintentry:	
  1933                           ;incstack = 0
  1934                           ; Regs used in _InterruptRoutine: [wreg+status,2+status,0+btemp+1+pclath+cstack]
  1935                           
  1936     0004                     interrupt_function:
  1937     007E                     saved_w	set	btemp
  1938     0004  00FE               	movwf	btemp
  1939     0005  0E03               	swapf	3,w
  1940     0006  1283               	bcf	3,5	;RP0=0, select bank0
  1941     0007  1303               	bcf	3,6	;RP1=0, select bank0
  1942     0008  00BA               	movwf	??_InterruptRoutine
  1943     0009  080A               	movf	10,w
  1944     000A  00BB               	movwf	??_InterruptRoutine+1
  1945     000B  087F               	movf	btemp+1,w
  1946     000C  00BC               	movwf	??_InterruptRoutine+2
  1947     000D  120A  118A  2C97   	ljmp	_InterruptRoutine
  1948                           
  1949                           	psect	text9
  1950     058C                     __ptext9:	
  1951 ;; *************** function ___xxtofl *****************
  1952 ;; Defined at:
  1953 ;;		line 10 in file "C:\Program Files\Microchip\xc8\v2.45\pic\sources\c99\common\xxtofl.c"
  1954 ;; Parameters:    Size  Location     Type
  1955 ;;  sign            1    wreg     unsigned char 
  1956 ;;  val             4    0[COMMON] long 
  1957 ;; Auto vars:     Size  Location     Type
  1958 ;;  sign            1    8[COMMON] unsigned char 
  1959 ;;  arg             4   10[COMMON] unsigned long 
  1960 ;;  exp             1    9[COMMON] unsigned char 
  1961 ;; Return value:  Size  Location     Type
  1962 ;;                  4    0[COMMON] unsigned char 
  1963 ;; Registers used:
  1964 ;;		wreg, status,2, status,0, btemp+1
  1965 ;; Tracked objects:
  1966 ;;		On entry : 0/0
  1967 ;;		On exit  : 0/0
  1968 ;;		Unchanged: 0/0
  1969 ;; Data sizes:     COMMON   BANK0   BANK1   BANK3   BANK2
  1970 ;;      Params:         4       0       0       0       0
  1971 ;;      Locals:         6       0       0       0       0
  1972 ;;      Temps:          4       0       0       0       0
  1973 ;;      Totals:        14       0       0       0       0
  1974 ;;Total ram usage:       14 bytes
  1975 ;; Hardware stack levels used: 1
  1976 ;; This function calls:
  1977 ;;		Nothing
  1978 ;; This function is called by:
  1979 ;;		_InterruptRoutine
  1980 ;; This function uses a non-reentrant model
  1981 ;;
  1982                           
  1983     058C                     ___xxtofl:	
  1984                           ;psect for function ___xxtofl
  1985                           
  1986                           
  1987                           ;incstack = 0
  1988                           ; Regs used in ___xxtofl: [wreg+status,2+status,0+btemp+1]
  1989                           ;___xxtofl@sign stored from wreg
  1990     058C  00F8               	movwf	___xxtofl@sign
  1991     058D                     i1l1332:
  1992     058D  0878               	movf	___xxtofl@sign,w
  1993     058E  1903               	btfsc	3,2
  1994     058F  2D91               	goto	u160_21
  1995     0590  2D92               	goto	u160_20
  1996     0591                     u160_21:
  1997     0591  2DA6               	goto	i1l1338
  1998     0592                     u160_20:
  1999     0592                     i1l1334:
  2000     0592  1FF3               	btfss	___xxtofl@val+3,7
  2001     0593  2D95               	goto	u161_21
  2002     0594  2D96               	goto	u161_20
  2003     0595                     u161_21:
  2004     0595  2DA6               	goto	i1l1338
  2005     0596                     u161_20:
  2006     0596                     i1l1336:
  2007     0596  0970               	comf	___xxtofl@val,w
  2008     0597  00FA               	movwf	___xxtofl@arg
  2009     0598  0971               	comf	___xxtofl@val+1,w
  2010     0599  00FB               	movwf	___xxtofl@arg+1
  2011     059A  0972               	comf	___xxtofl@val+2,w
  2012     059B  00FC               	movwf	___xxtofl@arg+2
  2013     059C  0973               	comf	___xxtofl@val+3,w
  2014     059D  00FD               	movwf	___xxtofl@arg+3
  2015     059E  0AFA               	incf	___xxtofl@arg,f
  2016     059F  1903               	skipnz
  2017     05A0  0AFB               	incf	___xxtofl@arg+1,f
  2018     05A1  1903               	skipnz
  2019     05A2  0AFC               	incf	___xxtofl@arg+2,f
  2020     05A3  1903               	skipnz
  2021     05A4  0AFD               	incf	___xxtofl@arg+3,f
  2022     05A5  2DAE               	goto	i1l623
  2023     05A6                     i1l1338:
  2024     05A6  0873               	movf	___xxtofl@val+3,w
  2025     05A7  00FD               	movwf	___xxtofl@arg+3
  2026     05A8  0872               	movf	___xxtofl@val+2,w
  2027     05A9  00FC               	movwf	___xxtofl@arg+2
  2028     05AA  0871               	movf	___xxtofl@val+1,w
  2029     05AB  00FB               	movwf	___xxtofl@arg+1
  2030     05AC  0870               	movf	___xxtofl@val,w
  2031     05AD  00FA               	movwf	___xxtofl@arg
  2032     05AE                     i1l623:
  2033     05AE  0873               	movf	___xxtofl@val+3,w
  2034     05AF  0472               	iorwf	___xxtofl@val+2,w
  2035     05B0  0471               	iorwf	___xxtofl@val+1,w
  2036     05B1  0470               	iorwf	___xxtofl@val,w
  2037     05B2  1D03               	skipz
  2038     05B3  2DB5               	goto	u162_21
  2039     05B4  2DB6               	goto	u162_20
  2040     05B5                     u162_21:
  2041     05B5  2DBF               	goto	i1l1344
  2042     05B6                     u162_20:
  2043     05B6                     i1l1340:
  2044     05B6  3000               	movlw	0
  2045     05B7  00F3               	movwf	?___xxtofl+3
  2046     05B8  3000               	movlw	0
  2047     05B9  00F2               	movwf	?___xxtofl+2
  2048     05BA  3000               	movlw	0
  2049     05BB  00F1               	movwf	?___xxtofl+1
  2050     05BC  3000               	movlw	0
  2051     05BD  00F0               	movwf	?___xxtofl
  2052     05BE  2E43               	goto	i1l625
  2053     05BF                     i1l1344:
  2054     05BF  3096               	movlw	150
  2055     05C0  00F9               	movwf	___xxtofl@exp
  2056     05C1  2DCF               	goto	i1l1350
  2057     05C2                     i1l1346:
  2058     05C2  3001               	movlw	1
  2059     05C3  00FF               	movwf	btemp+1
  2060     05C4  087F               	movf	btemp+1,w
  2061     05C5  07F9               	addwf	___xxtofl@exp,f
  2062     05C6                     i1l1348:
  2063     05C6  3001               	movlw	1
  2064     05C7                     u163_25:
  2065     05C7  1003               	clrc
  2066     05C8  0CFD               	rrf	___xxtofl@arg+3,f
  2067     05C9  0CFC               	rrf	___xxtofl@arg+2,f
  2068     05CA  0CFB               	rrf	___xxtofl@arg+1,f
  2069     05CB  0CFA               	rrf	___xxtofl@arg,f
  2070     05CC  3EFF               	addlw	-1
  2071     05CD  1D03               	skipz
  2072     05CE  2DC7               	goto	u163_25
  2073     05CF                     i1l1350:
  2074     05CF  30FE               	movlw	254
  2075     05D0  057D               	andwf	___xxtofl@arg+3,w
  2076     05D1  1D03               	btfss	3,2
  2077     05D2  2DD4               	goto	u164_21
  2078     05D3  2DD5               	goto	u164_20
  2079     05D4                     u164_21:
  2080     05D4  2DC2               	goto	i1l1346
  2081     05D5                     u164_20:
  2082     05D5  2DF1               	goto	i1l1358
  2083     05D6                     i1l1352:
  2084     05D6  3001               	movlw	1
  2085     05D7  00FF               	movwf	btemp+1
  2086     05D8  087F               	movf	btemp+1,w
  2087     05D9  07F9               	addwf	___xxtofl@exp,f
  2088     05DA                     i1l1354:
  2089     05DA  3001               	movlw	1
  2090     05DB  07FA               	addwf	___xxtofl@arg,f
  2091     05DC  3000               	movlw	0
  2092     05DD  1803               	skipnc
  2093     05DE  3001               	movlw	1
  2094     05DF  07FB               	addwf	___xxtofl@arg+1,f
  2095     05E0  3000               	movlw	0
  2096     05E1  1803               	skipnc
  2097     05E2  3001               	movlw	1
  2098     05E3  07FC               	addwf	___xxtofl@arg+2,f
  2099     05E4  3000               	movlw	0
  2100     05E5  1803               	skipnc
  2101     05E6  3001               	movlw	1
  2102     05E7  07FD               	addwf	___xxtofl@arg+3,f
  2103     05E8                     i1l1356:
  2104     05E8  3001               	movlw	1
  2105     05E9                     u165_25:
  2106     05E9  1003               	clrc
  2107     05EA  0CFD               	rrf	___xxtofl@arg+3,f
  2108     05EB  0CFC               	rrf	___xxtofl@arg+2,f
  2109     05EC  0CFB               	rrf	___xxtofl@arg+1,f
  2110     05ED  0CFA               	rrf	___xxtofl@arg,f
  2111     05EE  3EFF               	addlw	-1
  2112     05EF  1D03               	skipz
  2113     05F0  2DE9               	goto	u165_25
  2114     05F1                     i1l1358:
  2115     05F1  30FF               	movlw	255
  2116     05F2  057D               	andwf	___xxtofl@arg+3,w
  2117     05F3  1D03               	btfss	3,2
  2118     05F4  2DF6               	goto	u166_21
  2119     05F5  2DF7               	goto	u166_20
  2120     05F6                     u166_21:
  2121     05F6  2DD6               	goto	i1l1352
  2122     05F7                     u166_20:
  2123     05F7  2E03               	goto	i1l1362
  2124     05F8                     i1l1360:
  2125     05F8  3001               	movlw	1
  2126     05F9  02F9               	subwf	___xxtofl@exp,f
  2127     05FA  3001               	movlw	1
  2128     05FB  00F4               	movwf	??___xxtofl
  2129     05FC                     u167_25:
  2130     05FC  1003               	clrc
  2131     05FD  0DFA               	rlf	___xxtofl@arg,f
  2132     05FE  0DFB               	rlf	___xxtofl@arg+1,f
  2133     05FF  0DFC               	rlf	___xxtofl@arg+2,f
  2134     0600  0DFD               	rlf	___xxtofl@arg+3,f
  2135     0601  0BF4               	decfsz	??___xxtofl,f
  2136     0602  2DFC               	goto	u167_25
  2137     0603                     i1l1362:
  2138     0603  1BFC               	btfsc	___xxtofl@arg+2,7
  2139     0604  2E06               	goto	u168_21
  2140     0605  2E07               	goto	u168_20
  2141     0606                     u168_21:
  2142     0606  2E0D               	goto	i1l636
  2143     0607                     u168_20:
  2144     0607                     i1l1364:
  2145     0607  3002               	movlw	2
  2146     0608  0279               	subwf	___xxtofl@exp,w
  2147     0609  1803               	skipnc
  2148     060A  2E0C               	goto	u169_21
  2149     060B  2E0D               	goto	u169_20
  2150     060C                     u169_21:
  2151     060C  2DF8               	goto	i1l1360
  2152     060D                     u169_20:
  2153     060D                     i1l636:
  2154     060D  1879               	btfsc	___xxtofl@exp,0
  2155     060E  2E10               	goto	u170_21
  2156     060F  2E11               	goto	u170_20
  2157     0610                     u170_21:
  2158     0610  2E19               	goto	i1l637
  2159     0611                     u170_20:
  2160     0611                     i1l1366:
  2161     0611  30FF               	movlw	255
  2162     0612  05FA               	andwf	___xxtofl@arg,f
  2163     0613  30FF               	movlw	255
  2164     0614  05FB               	andwf	___xxtofl@arg+1,f
  2165     0615  307F               	movlw	127
  2166     0616  05FC               	andwf	___xxtofl@arg+2,f
  2167     0617  30FF               	movlw	255
  2168     0618  05FD               	andwf	___xxtofl@arg+3,f
  2169     0619                     i1l637:
  2170     0619  1003               	clrc
  2171     061A  0CF9               	rrf	___xxtofl@exp,f
  2172     061B                     i1l1368:
  2173     061B  0879               	movf	___xxtofl@exp,w
  2174     061C  00F4               	movwf	??___xxtofl
  2175     061D  01F5               	clrf	??___xxtofl+1
  2176     061E  01F6               	clrf	??___xxtofl+2
  2177     061F  01F7               	clrf	??___xxtofl+3
  2178     0620  3018               	movlw	24
  2179     0621                     u171_25:
  2180     0621  1003               	clrc
  2181     0622  0DF4               	rlf	??___xxtofl,f
  2182     0623  0DF5               	rlf	??___xxtofl+1,f
  2183     0624  0DF6               	rlf	??___xxtofl+2,f
  2184     0625  0DF7               	rlf	??___xxtofl+3,f
  2185     0626                     u171_20:
  2186     0626  3EFF               	addlw	-1
  2187     0627  1D03               	skipz
  2188     0628  2E21               	goto	u171_25
  2189     0629  0874               	movf	??___xxtofl,w
  2190     062A  04FA               	iorwf	___xxtofl@arg,f
  2191     062B  0875               	movf	??___xxtofl+1,w
  2192     062C  04FB               	iorwf	___xxtofl@arg+1,f
  2193     062D  0876               	movf	??___xxtofl+2,w
  2194     062E  04FC               	iorwf	___xxtofl@arg+2,f
  2195     062F  0877               	movf	??___xxtofl+3,w
  2196     0630  04FD               	iorwf	___xxtofl@arg+3,f
  2197     0631                     i1l1370:
  2198     0631  0878               	movf	___xxtofl@sign,w
  2199     0632  1903               	btfsc	3,2
  2200     0633  2E35               	goto	u172_21
  2201     0634  2E36               	goto	u172_20
  2202     0635                     u172_21:
  2203     0635  2E3B               	goto	i1l1376
  2204     0636                     u172_20:
  2205     0636                     i1l1372:
  2206     0636  1FF3               	btfss	___xxtofl@val+3,7
  2207     0637  2E39               	goto	u173_21
  2208     0638  2E3A               	goto	u173_20
  2209     0639                     u173_21:
  2210     0639  2E3B               	goto	i1l1376
  2211     063A                     u173_20:
  2212     063A                     i1l1374:
  2213     063A  17FD               	bsf	___xxtofl@arg+3,7
  2214     063B                     i1l1376:
  2215     063B  087D               	movf	___xxtofl@arg+3,w
  2216     063C  00F3               	movwf	?___xxtofl+3
  2217     063D  087C               	movf	___xxtofl@arg+2,w
  2218     063E  00F2               	movwf	?___xxtofl+2
  2219     063F  087B               	movf	___xxtofl@arg+1,w
  2220     0640  00F1               	movwf	?___xxtofl+1
  2221     0641  087A               	movf	___xxtofl@arg,w
  2222     0642  00F0               	movwf	?___xxtofl
  2223     0643                     i1l625:
  2224     0643  0008               	return
  2225     0644                     __end_of___xxtofl:
  2226                           
  2227                           	psect	text10
  2228     003E                     __ptext10:	
  2229 ;; *************** function ___flmul *****************
  2230 ;; Defined at:
  2231 ;;		line 8 in file "C:\Program Files\Microchip\xc8\v2.45\pic\sources\c99\common\sprcmul.c"
  2232 ;; Parameters:    Size  Location     Type
  2233 ;;  b               4    0[BANK0 ] unsigned char 
  2234 ;;  a               4    4[BANK0 ] unsigned char 
  2235 ;; Auto vars:     Size  Location     Type
  2236 ;;  prod            4   20[BANK0 ] struct .
  2237 ;;  grs             4   14[BANK0 ] unsigned long 
  2238 ;;  temp            2   24[BANK0 ] struct .
  2239 ;;  bexp            1   19[BANK0 ] unsigned char 
  2240 ;;  aexp            1   18[BANK0 ] unsigned char 
  2241 ;;  sign            1   13[BANK0 ] unsigned char 
  2242 ;; Return value:  Size  Location     Type
  2243 ;;                  4    0[BANK0 ] unsigned char 
  2244 ;; Registers used:
  2245 ;;		wreg, status,2, status,0, btemp+1, pclath, cstack
  2246 ;; Tracked objects:
  2247 ;;		On entry : 0/0
  2248 ;;		On exit  : 0/0
  2249 ;;		Unchanged: 0/0
  2250 ;; Data sizes:     COMMON   BANK0   BANK1   BANK3   BANK2
  2251 ;;      Params:         0       8       0       0       0
  2252 ;;      Locals:         0      13       0       0       0
  2253 ;;      Temps:          0       5       0       0       0
  2254 ;;      Totals:         0      26       0       0       0
  2255 ;;Total ram usage:       26 bytes
  2256 ;; Hardware stack levels used: 1
  2257 ;; Hardware stack levels required when called: 1
  2258 ;; This function calls:
  2259 ;;		__Umul8_16
  2260 ;; This function is called by:
  2261 ;;		_InterruptRoutine
  2262 ;; This function uses a non-reentrant model
  2263 ;;
  2264                           
  2265     003E                     ___flmul:	
  2266                           ;psect for function ___flmul
  2267                           
  2268     003E                     i1l1190:	
  2269                           ;incstack = 0
  2270                           ; Regs used in ___flmul: [wreg+status,2+status,0+btemp+1+pclath+cstack]
  2271                           
  2272     003E  1283               	bcf	3,5	;RP0=0, select bank0
  2273     003F  1303               	bcf	3,6	;RP1=0, select bank0
  2274     0040  0823               	movf	___flmul@b+3,w
  2275     0041  3980               	andlw	128
  2276     0042  00AD               	movwf	___flmul@sign
  2277     0043                     i1l1192:
  2278     0043  0823               	movf	___flmul@b+3,w
  2279     0044  00A8               	movwf	??___flmul
  2280     0045  0728               	addwf	??___flmul,w
  2281     0046  00B3               	movwf	___flmul@bexp
  2282     0047                     i1l1194:
  2283     0047  1FA2               	btfss	___flmul@b+2,7
  2284     0048  284A               	goto	u123_21
  2285     0049  284B               	goto	u123_20
  2286     004A                     u123_21:
  2287     004A  284C               	goto	i1l1198
  2288     004B                     u123_20:
  2289     004B                     i1l1196:
  2290     004B  1433               	bsf	___flmul@bexp,0
  2291     004C                     i1l1198:
  2292     004C  0833               	movf	___flmul@bexp,w
  2293     004D  1903               	btfsc	3,2
  2294     004E  2850               	goto	u124_21
  2295     004F  2851               	goto	u124_20
  2296     0050                     u124_21:
  2297     0050  2860               	goto	i1l1206
  2298     0051                     u124_20:
  2299     0051                     i1l1200:
  2300     0051  0A33               	incf	___flmul@bexp,w
  2301     0052  1D03               	btfss	3,2
  2302     0053  2855               	goto	u125_21
  2303     0054  2856               	goto	u125_20
  2304     0055                     u125_21:
  2305     0055  285E               	goto	i1l1204
  2306     0056                     u125_20:
  2307     0056                     i1l1202:
  2308     0056  3000               	movlw	0
  2309     0057  00A3               	movwf	___flmul@b+3
  2310     0058  3000               	movlw	0
  2311     0059  00A2               	movwf	___flmul@b+2
  2312     005A  3000               	movlw	0
  2313     005B  00A1               	movwf	___flmul@b+1
  2314     005C  3000               	movlw	0
  2315     005D  00A0               	movwf	___flmul@b
  2316     005E                     i1l1204:
  2317     005E  17A2               	bsf	___flmul@b+2,7
  2318     005F  2868               	goto	i1l1208
  2319     0060                     i1l1206:
  2320     0060  3000               	movlw	0
  2321     0061  00A3               	movwf	___flmul@b+3
  2322     0062  3000               	movlw	0
  2323     0063  00A2               	movwf	___flmul@b+2
  2324     0064  3000               	movlw	0
  2325     0065  00A1               	movwf	___flmul@b+1
  2326     0066  3000               	movlw	0
  2327     0067  00A0               	movwf	___flmul@b
  2328     0068                     i1l1208:
  2329     0068  0827               	movf	___flmul@a+3,w
  2330     0069  3980               	andlw	128
  2331     006A  00FF               	movwf	btemp+1
  2332     006B  087F               	movf	btemp+1,w
  2333     006C  06AD               	xorwf	___flmul@sign,f
  2334     006D                     i1l1210:
  2335     006D  0827               	movf	___flmul@a+3,w
  2336     006E  00A8               	movwf	??___flmul
  2337     006F  0728               	addwf	??___flmul,w
  2338     0070  00B2               	movwf	___flmul@aexp
  2339     0071                     i1l1212:
  2340     0071  1FA6               	btfss	___flmul@a+2,7
  2341     0072  2874               	goto	u126_21
  2342     0073  2875               	goto	u126_20
  2343     0074                     u126_21:
  2344     0074  2876               	goto	i1l1216
  2345     0075                     u126_20:
  2346     0075                     i1l1214:
  2347     0075  1432               	bsf	___flmul@aexp,0
  2348     0076                     i1l1216:
  2349     0076  0832               	movf	___flmul@aexp,w
  2350     0077  1903               	btfsc	3,2
  2351     0078  287A               	goto	u127_21
  2352     0079  287B               	goto	u127_20
  2353     007A                     u127_21:
  2354     007A  288A               	goto	i1l1224
  2355     007B                     u127_20:
  2356     007B                     i1l1218:
  2357     007B  0A32               	incf	___flmul@aexp,w
  2358     007C  1D03               	btfss	3,2
  2359     007D  287F               	goto	u128_21
  2360     007E  2880               	goto	u128_20
  2361     007F                     u128_21:
  2362     007F  2888               	goto	i1l1222
  2363     0080                     u128_20:
  2364     0080                     i1l1220:
  2365     0080  3000               	movlw	0
  2366     0081  00A7               	movwf	___flmul@a+3
  2367     0082  3000               	movlw	0
  2368     0083  00A6               	movwf	___flmul@a+2
  2369     0084  3000               	movlw	0
  2370     0085  00A5               	movwf	___flmul@a+1
  2371     0086  3000               	movlw	0
  2372     0087  00A4               	movwf	___flmul@a
  2373     0088                     i1l1222:
  2374     0088  17A6               	bsf	___flmul@a+2,7
  2375     0089  2892               	goto	i1l1226
  2376     008A                     i1l1224:
  2377     008A  3000               	movlw	0
  2378     008B  00A7               	movwf	___flmul@a+3
  2379     008C  3000               	movlw	0
  2380     008D  00A6               	movwf	___flmul@a+2
  2381     008E  3000               	movlw	0
  2382     008F  00A5               	movwf	___flmul@a+1
  2383     0090  3000               	movlw	0
  2384     0091  00A4               	movwf	___flmul@a
  2385     0092                     i1l1226:
  2386     0092  0832               	movf	___flmul@aexp,w
  2387     0093  1903               	btfsc	3,2
  2388     0094  2896               	goto	u129_21
  2389     0095  2897               	goto	u129_20
  2390     0096                     u129_21:
  2391     0096  289C               	goto	i1l1230
  2392     0097                     u129_20:
  2393     0097                     i1l1228:
  2394     0097  0833               	movf	___flmul@bexp,w
  2395     0098  1D03               	btfss	3,2
  2396     0099  289B               	goto	u130_21
  2397     009A  289C               	goto	u130_20
  2398     009B                     u130_21:
  2399     009B  28A5               	goto	i1l1234
  2400     009C                     u130_20:
  2401     009C                     i1l1230:
  2402     009C  3000               	movlw	0
  2403     009D  00A3               	movwf	?___flmul+3
  2404     009E  3000               	movlw	0
  2405     009F  00A2               	movwf	?___flmul+2
  2406     00A0  3000               	movlw	0
  2407     00A1  00A1               	movwf	?___flmul+1
  2408     00A2  3000               	movlw	0
  2409     00A3  00A0               	movwf	?___flmul
  2410     00A4  2B82               	goto	i1l579
  2411     00A5                     i1l1234:
  2412     00A5  0820               	movf	___flmul@b,w
  2413     00A6  00F0               	movwf	__Umul8_16@multiplicand
  2414     00A7  0826               	movf	___flmul@a+2,w
  2415     00A8  120A  158A  27D9  120A  118A  	fcall	__Umul8_16
  2416     00AD  0871               	movf	?__Umul8_16+1,w
  2417     00AE  1283               	bcf	3,5	;RP0=0, select bank0
  2418     00AF  1303               	bcf	3,6	;RP1=0, select bank0
  2419     00B0  00B9               	movwf	___flmul@temp+1
  2420     00B1  0870               	movf	?__Umul8_16,w
  2421     00B2  00B8               	movwf	___flmul@temp
  2422     00B3                     i1l1236:
  2423     00B3  0838               	movf	___flmul@temp,w
  2424     00B4  00A8               	movwf	??___flmul
  2425     00B5  01A9               	clrf	??___flmul+1
  2426     00B6  01AA               	clrf	??___flmul+2
  2427     00B7  01AB               	clrf	??___flmul+3
  2428     00B8  082B               	movf	??___flmul+3,w
  2429     00B9  00B1               	movwf	___flmul@grs+3
  2430     00BA  082A               	movf	??___flmul+2,w
  2431     00BB  00B0               	movwf	___flmul@grs+2
  2432     00BC  0829               	movf	??___flmul+1,w
  2433     00BD  00AF               	movwf	___flmul@grs+1
  2434     00BE  0828               	movf	??___flmul,w
  2435     00BF  00AE               	movwf	___flmul@grs
  2436     00C0                     i1l1238:
  2437     00C0  0839               	movf	___flmul@temp+1,w
  2438     00C1  00A8               	movwf	??___flmul
  2439     00C2  01A9               	clrf	??___flmul+1
  2440     00C3  01AA               	clrf	??___flmul+2
  2441     00C4  01AB               	clrf	??___flmul+3
  2442     00C5  082B               	movf	??___flmul+3,w
  2443     00C6  00B7               	movwf	___flmul@prod+3
  2444     00C7  082A               	movf	??___flmul+2,w
  2445     00C8  00B6               	movwf	___flmul@prod+2
  2446     00C9  0829               	movf	??___flmul+1,w
  2447     00CA  00B5               	movwf	___flmul@prod+1
  2448     00CB  0828               	movf	??___flmul,w
  2449     00CC  00B4               	movwf	___flmul@prod
  2450     00CD  0821               	movf	___flmul@b+1,w
  2451     00CE  00F0               	movwf	__Umul8_16@multiplicand
  2452     00CF  0825               	movf	___flmul@a+1,w
  2453     00D0  120A  158A  27D9  120A  118A  	fcall	__Umul8_16
  2454     00D5  0871               	movf	?__Umul8_16+1,w
  2455     00D6  1283               	bcf	3,5	;RP0=0, select bank0
  2456     00D7  1303               	bcf	3,6	;RP1=0, select bank0
  2457     00D8  00B9               	movwf	___flmul@temp+1
  2458     00D9  0870               	movf	?__Umul8_16,w
  2459     00DA  00B8               	movwf	___flmul@temp
  2460     00DB                     i1l1240:
  2461     00DB  0838               	movf	___flmul@temp,w
  2462     00DC  00A8               	movwf	??___flmul
  2463     00DD  01A9               	clrf	??___flmul+1
  2464     00DE  01AA               	clrf	??___flmul+2
  2465     00DF  01AB               	clrf	??___flmul+3
  2466     00E0  0828               	movf	??___flmul,w
  2467     00E1  07AE               	addwf	___flmul@grs,f
  2468     00E2  0829               	movf	??___flmul+1,w
  2469     00E3  1103               	clrz
  2470     00E4  1803               	skipnc
  2471     00E5  3E01               	addlw	1
  2472     00E6  1903               	skipnz
  2473     00E7  28E9               	goto	u131_21
  2474     00E8  07AF               	addwf	___flmul@grs+1,f
  2475     00E9                     u131_21:
  2476     00E9  082A               	movf	??___flmul+2,w
  2477     00EA  1103               	clrz
  2478     00EB  1803               	skipnc
  2479     00EC  3E01               	addlw	1
  2480     00ED  1903               	skipnz
  2481     00EE  28F0               	goto	u131_22
  2482     00EF  07B0               	addwf	___flmul@grs+2,f
  2483     00F0                     u131_22:
  2484     00F0  082B               	movf	??___flmul+3,w
  2485     00F1  1103               	clrz
  2486     00F2  1803               	skipnc
  2487     00F3  3E01               	addlw	1
  2488     00F4  1903               	skipnz
  2489     00F5  28F7               	goto	u131_23
  2490     00F6  07B1               	addwf	___flmul@grs+3,f
  2491     00F7                     u131_23:
  2492     00F7                     i1l1242:
  2493     00F7  0839               	movf	___flmul@temp+1,w
  2494     00F8  00A8               	movwf	??___flmul
  2495     00F9  01A9               	clrf	??___flmul+1
  2496     00FA  01AA               	clrf	??___flmul+2
  2497     00FB  01AB               	clrf	??___flmul+3
  2498     00FC  0828               	movf	??___flmul,w
  2499     00FD  07B4               	addwf	___flmul@prod,f
  2500     00FE  0829               	movf	??___flmul+1,w
  2501     00FF  1103               	clrz
  2502     0100  1803               	skipnc
  2503     0101  3E01               	addlw	1
  2504     0102  1903               	skipnz
  2505     0103  2905               	goto	u132_21
  2506     0104  07B5               	addwf	___flmul@prod+1,f
  2507     0105                     u132_21:
  2508     0105  082A               	movf	??___flmul+2,w
  2509     0106  1103               	clrz
  2510     0107  1803               	skipnc
  2511     0108  3E01               	addlw	1
  2512     0109  1903               	skipnz
  2513     010A  290C               	goto	u132_22
  2514     010B  07B6               	addwf	___flmul@prod+2,f
  2515     010C                     u132_22:
  2516     010C  082B               	movf	??___flmul+3,w
  2517     010D  1103               	clrz
  2518     010E  1803               	skipnc
  2519     010F  3E01               	addlw	1
  2520     0110  1903               	skipnz
  2521     0111  2913               	goto	u132_23
  2522     0112  07B7               	addwf	___flmul@prod+3,f
  2523     0113                     u132_23:
  2524     0113  0822               	movf	___flmul@b+2,w
  2525     0114  00F0               	movwf	__Umul8_16@multiplicand
  2526     0115  0824               	movf	___flmul@a,w
  2527     0116  120A  158A  27D9  120A  118A  	fcall	__Umul8_16
  2528     011B  0871               	movf	?__Umul8_16+1,w
  2529     011C  1283               	bcf	3,5	;RP0=0, select bank0
  2530     011D  1303               	bcf	3,6	;RP1=0, select bank0
  2531     011E  00B9               	movwf	___flmul@temp+1
  2532     011F  0870               	movf	?__Umul8_16,w
  2533     0120  00B8               	movwf	___flmul@temp
  2534     0121                     i1l1244:
  2535     0121  0838               	movf	___flmul@temp,w
  2536     0122  00A8               	movwf	??___flmul
  2537     0123  01A9               	clrf	??___flmul+1
  2538     0124  01AA               	clrf	??___flmul+2
  2539     0125  01AB               	clrf	??___flmul+3
  2540     0126  0828               	movf	??___flmul,w
  2541     0127  07AE               	addwf	___flmul@grs,f
  2542     0128  0829               	movf	??___flmul+1,w
  2543     0129  1103               	clrz
  2544     012A  1803               	skipnc
  2545     012B  3E01               	addlw	1
  2546     012C  1903               	skipnz
  2547     012D  292F               	goto	u133_21
  2548     012E  07AF               	addwf	___flmul@grs+1,f
  2549     012F                     u133_21:
  2550     012F  082A               	movf	??___flmul+2,w
  2551     0130  1103               	clrz
  2552     0131  1803               	skipnc
  2553     0132  3E01               	addlw	1
  2554     0133  1903               	skipnz
  2555     0134  2936               	goto	u133_22
  2556     0135  07B0               	addwf	___flmul@grs+2,f
  2557     0136                     u133_22:
  2558     0136  082B               	movf	??___flmul+3,w
  2559     0137  1103               	clrz
  2560     0138  1803               	skipnc
  2561     0139  3E01               	addlw	1
  2562     013A  1903               	skipnz
  2563     013B  293D               	goto	u133_23
  2564     013C  07B1               	addwf	___flmul@grs+3,f
  2565     013D                     u133_23:
  2566     013D                     i1l1246:
  2567     013D  0839               	movf	___flmul@temp+1,w
  2568     013E  00A8               	movwf	??___flmul
  2569     013F  01A9               	clrf	??___flmul+1
  2570     0140  01AA               	clrf	??___flmul+2
  2571     0141  01AB               	clrf	??___flmul+3
  2572     0142  0828               	movf	??___flmul,w
  2573     0143  07B4               	addwf	___flmul@prod,f
  2574     0144  0829               	movf	??___flmul+1,w
  2575     0145  1103               	clrz
  2576     0146  1803               	skipnc
  2577     0147  3E01               	addlw	1
  2578     0148  1903               	skipnz
  2579     0149  294B               	goto	u134_21
  2580     014A  07B5               	addwf	___flmul@prod+1,f
  2581     014B                     u134_21:
  2582     014B  082A               	movf	??___flmul+2,w
  2583     014C  1103               	clrz
  2584     014D  1803               	skipnc
  2585     014E  3E01               	addlw	1
  2586     014F  1903               	skipnz
  2587     0150  2952               	goto	u134_22
  2588     0151  07B6               	addwf	___flmul@prod+2,f
  2589     0152                     u134_22:
  2590     0152  082B               	movf	??___flmul+3,w
  2591     0153  1103               	clrz
  2592     0154  1803               	skipnc
  2593     0155  3E01               	addlw	1
  2594     0156  1903               	skipnz
  2595     0157  2959               	goto	u134_23
  2596     0158  07B7               	addwf	___flmul@prod+3,f
  2597     0159                     u134_23:
  2598     0159                     i1l1248:
  2599     0159  3008               	movlw	8
  2600     015A  00A8               	movwf	??___flmul
  2601     015B                     u135_25:
  2602     015B  1003               	clrc
  2603     015C  0DAE               	rlf	___flmul@grs,f
  2604     015D  0DAF               	rlf	___flmul@grs+1,f
  2605     015E  0DB0               	rlf	___flmul@grs+2,f
  2606     015F  0DB1               	rlf	___flmul@grs+3,f
  2607     0160  0BA8               	decfsz	??___flmul,f
  2608     0161  295B               	goto	u135_25
  2609     0162                     i1l1250:
  2610     0162  0821               	movf	___flmul@b+1,w
  2611     0163  00F0               	movwf	__Umul8_16@multiplicand
  2612     0164  0824               	movf	___flmul@a,w
  2613     0165  120A  158A  27D9  120A  118A  	fcall	__Umul8_16
  2614     016A  0871               	movf	?__Umul8_16+1,w
  2615     016B  1283               	bcf	3,5	;RP0=0, select bank0
  2616     016C  1303               	bcf	3,6	;RP1=0, select bank0
  2617     016D  00B9               	movwf	___flmul@temp+1
  2618     016E  0870               	movf	?__Umul8_16,w
  2619     016F  00B8               	movwf	___flmul@temp
  2620     0170                     i1l1252:
  2621     0170  0838               	movf	___flmul@temp,w
  2622     0171  00A8               	movwf	??___flmul
  2623     0172  0839               	movf	___flmul@temp+1,w
  2624     0173  00A9               	movwf	??___flmul+1
  2625     0174  01AA               	clrf	??___flmul+2
  2626     0175  01AB               	clrf	??___flmul+3
  2627     0176  0828               	movf	??___flmul,w
  2628     0177  07AE               	addwf	___flmul@grs,f
  2629     0178  0829               	movf	??___flmul+1,w
  2630     0179  1103               	clrz
  2631     017A  1803               	skipnc
  2632     017B  3E01               	addlw	1
  2633     017C  1903               	skipnz
  2634     017D  297F               	goto	u136_21
  2635     017E  07AF               	addwf	___flmul@grs+1,f
  2636     017F                     u136_21:
  2637     017F  082A               	movf	??___flmul+2,w
  2638     0180  1103               	clrz
  2639     0181  1803               	skipnc
  2640     0182  3E01               	addlw	1
  2641     0183  1903               	skipnz
  2642     0184  2986               	goto	u136_22
  2643     0185  07B0               	addwf	___flmul@grs+2,f
  2644     0186                     u136_22:
  2645     0186  082B               	movf	??___flmul+3,w
  2646     0187  1103               	clrz
  2647     0188  1803               	skipnc
  2648     0189  3E01               	addlw	1
  2649     018A  1903               	skipnz
  2650     018B  298D               	goto	u136_23
  2651     018C  07B1               	addwf	___flmul@grs+3,f
  2652     018D                     u136_23:
  2653     018D                     i1l1254:
  2654     018D  0820               	movf	___flmul@b,w
  2655     018E  00F0               	movwf	__Umul8_16@multiplicand
  2656     018F  0825               	movf	___flmul@a+1,w
  2657     0190  120A  158A  27D9  120A  118A  	fcall	__Umul8_16
  2658     0195  0871               	movf	?__Umul8_16+1,w
  2659     0196  1283               	bcf	3,5	;RP0=0, select bank0
  2660     0197  1303               	bcf	3,6	;RP1=0, select bank0
  2661     0198  00B9               	movwf	___flmul@temp+1
  2662     0199  0870               	movf	?__Umul8_16,w
  2663     019A  00B8               	movwf	___flmul@temp
  2664     019B                     i1l1256:
  2665     019B  0838               	movf	___flmul@temp,w
  2666     019C  00A8               	movwf	??___flmul
  2667     019D  0839               	movf	___flmul@temp+1,w
  2668     019E  00A9               	movwf	??___flmul+1
  2669     019F  01AA               	clrf	??___flmul+2
  2670     01A0  01AB               	clrf	??___flmul+3
  2671     01A1  0828               	movf	??___flmul,w
  2672     01A2  07AE               	addwf	___flmul@grs,f
  2673     01A3  0829               	movf	??___flmul+1,w
  2674     01A4  1103               	clrz
  2675     01A5  1803               	skipnc
  2676     01A6  3E01               	addlw	1
  2677     01A7  1903               	skipnz
  2678     01A8  29AA               	goto	u137_21
  2679     01A9  07AF               	addwf	___flmul@grs+1,f
  2680     01AA                     u137_21:
  2681     01AA  082A               	movf	??___flmul+2,w
  2682     01AB  1103               	clrz
  2683     01AC  1803               	skipnc
  2684     01AD  3E01               	addlw	1
  2685     01AE  1903               	skipnz
  2686     01AF  29B1               	goto	u137_22
  2687     01B0  07B0               	addwf	___flmul@grs+2,f
  2688     01B1                     u137_22:
  2689     01B1  082B               	movf	??___flmul+3,w
  2690     01B2  1103               	clrz
  2691     01B3  1803               	skipnc
  2692     01B4  3E01               	addlw	1
  2693     01B5  1903               	skipnz
  2694     01B6  29B8               	goto	u137_23
  2695     01B7  07B1               	addwf	___flmul@grs+3,f
  2696     01B8                     u137_23:
  2697     01B8                     i1l1258:
  2698     01B8  3008               	movlw	8
  2699     01B9  00A8               	movwf	??___flmul
  2700     01BA                     u138_25:
  2701     01BA  1003               	clrc
  2702     01BB  0DAE               	rlf	___flmul@grs,f
  2703     01BC  0DAF               	rlf	___flmul@grs+1,f
  2704     01BD  0DB0               	rlf	___flmul@grs+2,f
  2705     01BE  0DB1               	rlf	___flmul@grs+3,f
  2706     01BF  0BA8               	decfsz	??___flmul,f
  2707     01C0  29BA               	goto	u138_25
  2708     01C1  0820               	movf	___flmul@b,w
  2709     01C2  00F0               	movwf	__Umul8_16@multiplicand
  2710     01C3  0824               	movf	___flmul@a,w
  2711     01C4  120A  158A  27D9  120A  118A  	fcall	__Umul8_16
  2712     01C9  0871               	movf	?__Umul8_16+1,w
  2713     01CA  1283               	bcf	3,5	;RP0=0, select bank0
  2714     01CB  1303               	bcf	3,6	;RP1=0, select bank0
  2715     01CC  00B9               	movwf	___flmul@temp+1
  2716     01CD  0870               	movf	?__Umul8_16,w
  2717     01CE  00B8               	movwf	___flmul@temp
  2718     01CF                     i1l1260:
  2719     01CF  0838               	movf	___flmul@temp,w
  2720     01D0  00A8               	movwf	??___flmul
  2721     01D1  0839               	movf	___flmul@temp+1,w
  2722     01D2  00A9               	movwf	??___flmul+1
  2723     01D3  01AA               	clrf	??___flmul+2
  2724     01D4  01AB               	clrf	??___flmul+3
  2725     01D5  0828               	movf	??___flmul,w
  2726     01D6  07AE               	addwf	___flmul@grs,f
  2727     01D7  0829               	movf	??___flmul+1,w
  2728     01D8  1103               	clrz
  2729     01D9  1803               	skipnc
  2730     01DA  3E01               	addlw	1
  2731     01DB  1903               	skipnz
  2732     01DC  29DE               	goto	u139_21
  2733     01DD  07AF               	addwf	___flmul@grs+1,f
  2734     01DE                     u139_21:
  2735     01DE  082A               	movf	??___flmul+2,w
  2736     01DF  1103               	clrz
  2737     01E0  1803               	skipnc
  2738     01E1  3E01               	addlw	1
  2739     01E2  1903               	skipnz
  2740     01E3  29E5               	goto	u139_22
  2741     01E4  07B0               	addwf	___flmul@grs+2,f
  2742     01E5                     u139_22:
  2743     01E5  082B               	movf	??___flmul+3,w
  2744     01E6  1103               	clrz
  2745     01E7  1803               	skipnc
  2746     01E8  3E01               	addlw	1
  2747     01E9  1903               	skipnz
  2748     01EA  29EC               	goto	u139_23
  2749     01EB  07B1               	addwf	___flmul@grs+3,f
  2750     01EC                     u139_23:
  2751     01EC                     i1l1262:
  2752     01EC  0821               	movf	___flmul@b+1,w
  2753     01ED  00F0               	movwf	__Umul8_16@multiplicand
  2754     01EE  0826               	movf	___flmul@a+2,w
  2755     01EF  120A  158A  27D9  120A  118A  	fcall	__Umul8_16
  2756     01F4  0871               	movf	?__Umul8_16+1,w
  2757     01F5  1283               	bcf	3,5	;RP0=0, select bank0
  2758     01F6  1303               	bcf	3,6	;RP1=0, select bank0
  2759     01F7  00B9               	movwf	___flmul@temp+1
  2760     01F8  0870               	movf	?__Umul8_16,w
  2761     01F9  00B8               	movwf	___flmul@temp
  2762     01FA  0838               	movf	___flmul@temp,w
  2763     01FB  00A8               	movwf	??___flmul
  2764     01FC  0839               	movf	___flmul@temp+1,w
  2765     01FD  00A9               	movwf	??___flmul+1
  2766     01FE  01AA               	clrf	??___flmul+2
  2767     01FF  01AB               	clrf	??___flmul+3
  2768     0200  0828               	movf	??___flmul,w
  2769     0201  07B4               	addwf	___flmul@prod,f
  2770     0202  0829               	movf	??___flmul+1,w
  2771     0203  1103               	clrz
  2772     0204  1803               	skipnc
  2773     0205  3E01               	addlw	1
  2774     0206  1903               	skipnz
  2775     0207  2A09               	goto	u140_21
  2776     0208  07B5               	addwf	___flmul@prod+1,f
  2777     0209                     u140_21:
  2778     0209  082A               	movf	??___flmul+2,w
  2779     020A  1103               	clrz
  2780     020B  1803               	skipnc
  2781     020C  3E01               	addlw	1
  2782     020D  1903               	skipnz
  2783     020E  2A10               	goto	u140_22
  2784     020F  07B6               	addwf	___flmul@prod+2,f
  2785     0210                     u140_22:
  2786     0210  082B               	movf	??___flmul+3,w
  2787     0211  1103               	clrz
  2788     0212  1803               	skipnc
  2789     0213  3E01               	addlw	1
  2790     0214  1903               	skipnz
  2791     0215  2A17               	goto	u140_23
  2792     0216  07B7               	addwf	___flmul@prod+3,f
  2793     0217                     u140_23:
  2794     0217                     i1l1264:
  2795     0217  0822               	movf	___flmul@b+2,w
  2796     0218  00F0               	movwf	__Umul8_16@multiplicand
  2797     0219  0825               	movf	___flmul@a+1,w
  2798     021A  120A  158A  27D9  120A  118A  	fcall	__Umul8_16
  2799     021F  0871               	movf	?__Umul8_16+1,w
  2800     0220  1283               	bcf	3,5	;RP0=0, select bank0
  2801     0221  1303               	bcf	3,6	;RP1=0, select bank0
  2802     0222  00B9               	movwf	___flmul@temp+1
  2803     0223  0870               	movf	?__Umul8_16,w
  2804     0224  00B8               	movwf	___flmul@temp
  2805     0225                     i1l1266:
  2806     0225  0838               	movf	___flmul@temp,w
  2807     0226  00A8               	movwf	??___flmul
  2808     0227  0839               	movf	___flmul@temp+1,w
  2809     0228  00A9               	movwf	??___flmul+1
  2810     0229  01AA               	clrf	??___flmul+2
  2811     022A  01AB               	clrf	??___flmul+3
  2812     022B  0828               	movf	??___flmul,w
  2813     022C  07B4               	addwf	___flmul@prod,f
  2814     022D  0829               	movf	??___flmul+1,w
  2815     022E  1103               	clrz
  2816     022F  1803               	skipnc
  2817     0230  3E01               	addlw	1
  2818     0231  1903               	skipnz
  2819     0232  2A34               	goto	u141_21
  2820     0233  07B5               	addwf	___flmul@prod+1,f
  2821     0234                     u141_21:
  2822     0234  082A               	movf	??___flmul+2,w
  2823     0235  1103               	clrz
  2824     0236  1803               	skipnc
  2825     0237  3E01               	addlw	1
  2826     0238  1903               	skipnz
  2827     0239  2A3B               	goto	u141_22
  2828     023A  07B6               	addwf	___flmul@prod+2,f
  2829     023B                     u141_22:
  2830     023B  082B               	movf	??___flmul+3,w
  2831     023C  1103               	clrz
  2832     023D  1803               	skipnc
  2833     023E  3E01               	addlw	1
  2834     023F  1903               	skipnz
  2835     0240  2A42               	goto	u141_23
  2836     0241  07B7               	addwf	___flmul@prod+3,f
  2837     0242                     u141_23:
  2838     0242  0822               	movf	___flmul@b+2,w
  2839     0243  00F0               	movwf	__Umul8_16@multiplicand
  2840     0244  0826               	movf	___flmul@a+2,w
  2841     0245  120A  158A  27D9  120A  118A  	fcall	__Umul8_16
  2842     024A  0871               	movf	?__Umul8_16+1,w
  2843     024B  1283               	bcf	3,5	;RP0=0, select bank0
  2844     024C  1303               	bcf	3,6	;RP1=0, select bank0
  2845     024D  00B9               	movwf	___flmul@temp+1
  2846     024E  0870               	movf	?__Umul8_16,w
  2847     024F  00B8               	movwf	___flmul@temp
  2848     0250                     i1l1268:
  2849     0250  0838               	movf	___flmul@temp,w
  2850     0251  00A8               	movwf	??___flmul
  2851     0252  0839               	movf	___flmul@temp+1,w
  2852     0253  00A9               	movwf	??___flmul+1
  2853     0254  01AA               	clrf	??___flmul+2
  2854     0255  01AB               	clrf	??___flmul+3
  2855     0256  3008               	movlw	8
  2856     0257                     u142_25:
  2857     0257  1003               	clrc
  2858     0258  0DA8               	rlf	??___flmul,f
  2859     0259  0DA9               	rlf	??___flmul+1,f
  2860     025A  0DAA               	rlf	??___flmul+2,f
  2861     025B  0DAB               	rlf	??___flmul+3,f
  2862     025C                     u142_20:
  2863     025C  3EFF               	addlw	-1
  2864     025D  1D03               	skipz
  2865     025E  2A57               	goto	u142_25
  2866     025F  0828               	movf	??___flmul,w
  2867     0260  07B4               	addwf	___flmul@prod,f
  2868     0261  0829               	movf	??___flmul+1,w
  2869     0262  1103               	clrz
  2870     0263  1803               	skipnc
  2871     0264  3E01               	addlw	1
  2872     0265  1903               	skipnz
  2873     0266  2A68               	goto	u143_21
  2874     0267  07B5               	addwf	___flmul@prod+1,f
  2875     0268                     u143_21:
  2876     0268  082A               	movf	??___flmul+2,w
  2877     0269  1103               	clrz
  2878     026A  1803               	skipnc
  2879     026B  3E01               	addlw	1
  2880     026C  1903               	skipnz
  2881     026D  2A6F               	goto	u143_22
  2882     026E  07B6               	addwf	___flmul@prod+2,f
  2883     026F                     u143_22:
  2884     026F  082B               	movf	??___flmul+3,w
  2885     0270  1103               	clrz
  2886     0271  1803               	skipnc
  2887     0272  3E01               	addlw	1
  2888     0273  1903               	skipnz
  2889     0274  2A76               	goto	u143_23
  2890     0275  07B7               	addwf	___flmul@prod+3,f
  2891     0276                     u143_23:
  2892     0276                     i1l1270:
  2893     0276  082E               	movf	___flmul@grs,w
  2894     0277  00A8               	movwf	??___flmul
  2895     0278  082F               	movf	___flmul@grs+1,w
  2896     0279  00A9               	movwf	??___flmul+1
  2897     027A  0830               	movf	___flmul@grs+2,w
  2898     027B  00AA               	movwf	??___flmul+2
  2899     027C  0831               	movf	___flmul@grs+3,w
  2900     027D  00AB               	movwf	??___flmul+3
  2901     027E  3018               	movlw	24
  2902     027F                     u144_25:
  2903     027F  1003               	clrc
  2904     0280  0CAB               	rrf	??___flmul+3,f
  2905     0281  0CAA               	rrf	??___flmul+2,f
  2906     0282  0CA9               	rrf	??___flmul+1,f
  2907     0283  0CA8               	rrf	??___flmul,f
  2908     0284                     u144_20:
  2909     0284  3EFF               	addlw	-1
  2910     0285  1D03               	skipz
  2911     0286  2A7F               	goto	u144_25
  2912     0287  0828               	movf	??___flmul,w
  2913     0288  07B4               	addwf	___flmul@prod,f
  2914     0289  0829               	movf	??___flmul+1,w
  2915     028A  1103               	clrz
  2916     028B  1803               	skipnc
  2917     028C  3E01               	addlw	1
  2918     028D  1903               	skipnz
  2919     028E  2A90               	goto	u145_21
  2920     028F  07B5               	addwf	___flmul@prod+1,f
  2921     0290                     u145_21:
  2922     0290  082A               	movf	??___flmul+2,w
  2923     0291  1103               	clrz
  2924     0292  1803               	skipnc
  2925     0293  3E01               	addlw	1
  2926     0294  1903               	skipnz
  2927     0295  2A97               	goto	u145_22
  2928     0296  07B6               	addwf	___flmul@prod+2,f
  2929     0297                     u145_22:
  2930     0297  082B               	movf	??___flmul+3,w
  2931     0298  1103               	clrz
  2932     0299  1803               	skipnc
  2933     029A  3E01               	addlw	1
  2934     029B  1903               	skipnz
  2935     029C  2A9E               	goto	u145_23
  2936     029D  07B7               	addwf	___flmul@prod+3,f
  2937     029E                     u145_23:
  2938     029E                     i1l1272:
  2939     029E  3008               	movlw	8
  2940     029F  00A8               	movwf	??___flmul
  2941     02A0                     u146_25:
  2942     02A0  1003               	clrc
  2943     02A1  0DAE               	rlf	___flmul@grs,f
  2944     02A2  0DAF               	rlf	___flmul@grs+1,f
  2945     02A3  0DB0               	rlf	___flmul@grs+2,f
  2946     02A4  0DB1               	rlf	___flmul@grs+3,f
  2947     02A5  0BA8               	decfsz	??___flmul,f
  2948     02A6  2AA0               	goto	u146_25
  2949     02A7                     i1l1274:
  2950     02A7  0833               	movf	___flmul@bexp,w
  2951     02A8  0732               	addwf	___flmul@aexp,w
  2952     02A9  00A8               	movwf	??___flmul
  2953     02AA  01A9               	clrf	??___flmul+1
  2954     02AB  0DA9               	rlf	??___flmul+1,f
  2955     02AC  0828               	movf	??___flmul,w
  2956     02AD  3E82               	addlw	130
  2957     02AE  00B8               	movwf	___flmul@temp
  2958     02AF  0829               	movf	??___flmul+1,w
  2959     02B0  1803               	skipnc
  2960     02B1  3E01               	addlw	1
  2961     02B2  3EFF               	addlw	255
  2962     02B3  00B9               	movwf	___flmul@temp+1
  2963     02B4  2AD2               	goto	i1l1286
  2964     02B5                     i1l1276:
  2965     02B5  3001               	movlw	1
  2966     02B6  00A8               	movwf	??___flmul
  2967     02B7                     u147_25:
  2968     02B7  1003               	clrc
  2969     02B8  0DB4               	rlf	___flmul@prod,f
  2970     02B9  0DB5               	rlf	___flmul@prod+1,f
  2971     02BA  0DB6               	rlf	___flmul@prod+2,f
  2972     02BB  0DB7               	rlf	___flmul@prod+3,f
  2973     02BC  0BA8               	decfsz	??___flmul,f
  2974     02BD  2AB7               	goto	u147_25
  2975     02BE                     i1l1278:
  2976     02BE  1FB1               	btfss	___flmul@grs+3,7
  2977     02BF  2AC1               	goto	u148_21
  2978     02C0  2AC2               	goto	u148_20
  2979     02C1                     u148_21:
  2980     02C1  2AC3               	goto	i1l1282
  2981     02C2                     u148_20:
  2982     02C2                     i1l1280:
  2983     02C2  1434               	bsf	___flmul@prod,0
  2984     02C3                     i1l1282:
  2985     02C3  3001               	movlw	1
  2986     02C4  00A8               	movwf	??___flmul
  2987     02C5                     u149_25:
  2988     02C5  1003               	clrc
  2989     02C6  0DAE               	rlf	___flmul@grs,f
  2990     02C7  0DAF               	rlf	___flmul@grs+1,f
  2991     02C8  0DB0               	rlf	___flmul@grs+2,f
  2992     02C9  0DB1               	rlf	___flmul@grs+3,f
  2993     02CA  0BA8               	decfsz	??___flmul,f
  2994     02CB  2AC5               	goto	u149_25
  2995     02CC                     i1l1284:
  2996     02CC  30FF               	movlw	255
  2997     02CD  07B8               	addwf	___flmul@temp,f
  2998     02CE  1803               	skipnc
  2999     02CF  0AB9               	incf	___flmul@temp+1,f
  3000     02D0  30FF               	movlw	255
  3001     02D1  07B9               	addwf	___flmul@temp+1,f
  3002     02D2                     i1l1286:
  3003     02D2  1FB6               	btfss	___flmul@prod+2,7
  3004     02D3  2AD5               	goto	u150_21
  3005     02D4  2AD6               	goto	u150_20
  3006     02D5                     u150_21:
  3007     02D5  2AB5               	goto	i1l1276
  3008     02D6                     u150_20:
  3009     02D6                     i1l1288:
  3010     02D6  01B2               	clrf	___flmul@aexp
  3011     02D7                     i1l1290:
  3012     02D7  1FB1               	btfss	___flmul@grs+3,7
  3013     02D8  2ADA               	goto	u151_21
  3014     02D9  2ADB               	goto	u151_20
  3015     02DA                     u151_21:
  3016     02DA  2AF7               	goto	i1l1298
  3017     02DB                     u151_20:
  3018     02DB                     i1l1292:
  3019     02DB  30FF               	movlw	255
  3020     02DC  052E               	andwf	___flmul@grs,w
  3021     02DD  00A8               	movwf	??___flmul
  3022     02DE  30FF               	movlw	255
  3023     02DF  052F               	andwf	___flmul@grs+1,w
  3024     02E0  00A9               	movwf	??___flmul+1
  3025     02E1  30FF               	movlw	255
  3026     02E2  0530               	andwf	___flmul@grs+2,w
  3027     02E3  00AA               	movwf	??___flmul+2
  3028     02E4  307F               	movlw	127
  3029     02E5  0531               	andwf	___flmul@grs+3,w
  3030     02E6  00AB               	movwf	??___flmul+3
  3031     02E7  082B               	movf	??___flmul+3,w
  3032     02E8  042A               	iorwf	??___flmul+2,w
  3033     02E9  0429               	iorwf	??___flmul+1,w
  3034     02EA  0428               	iorwf	??___flmul,w
  3035     02EB  1903               	skipnz
  3036     02EC  2AEE               	goto	u152_21
  3037     02ED  2AEF               	goto	u152_20
  3038     02EE                     u152_21:
  3039     02EE  2AF2               	goto	i1l585
  3040     02EF                     u152_20:
  3041     02EF                     i1l1294:
  3042     02EF  01B2               	clrf	___flmul@aexp
  3043     02F0  0AB2               	incf	___flmul@aexp,f
  3044     02F1  2AF7               	goto	i1l1298
  3045     02F2                     i1l585:
  3046     02F2  1C34               	btfss	___flmul@prod,0
  3047     02F3  2AF5               	goto	u153_21
  3048     02F4  2AF6               	goto	u153_20
  3049     02F5                     u153_21:
  3050     02F5  2AF7               	goto	i1l1298
  3051     02F6                     u153_20:
  3052     02F6  2AEF               	goto	i1l1294
  3053     02F7                     i1l1298:
  3054     02F7  0832               	movf	___flmul@aexp,w
  3055     02F8  1903               	btfsc	3,2
  3056     02F9  2AFB               	goto	u154_21
  3057     02FA  2AFC               	goto	u154_20
  3058     02FB                     u154_21:
  3059     02FB  2B2D               	goto	i1l1308
  3060     02FC                     u154_20:
  3061     02FC                     i1l1300:
  3062     02FC  3001               	movlw	1
  3063     02FD  07B4               	addwf	___flmul@prod,f
  3064     02FE  3000               	movlw	0
  3065     02FF  1803               	skipnc
  3066     0300  3001               	movlw	1
  3067     0301  07B5               	addwf	___flmul@prod+1,f
  3068     0302  3000               	movlw	0
  3069     0303  1803               	skipnc
  3070     0304  3001               	movlw	1
  3071     0305  07B6               	addwf	___flmul@prod+2,f
  3072     0306  3000               	movlw	0
  3073     0307  1803               	skipnc
  3074     0308  3001               	movlw	1
  3075     0309  07B7               	addwf	___flmul@prod+3,f
  3076     030A                     i1l1302:
  3077     030A  1C37               	btfss	___flmul@prod+3,0
  3078     030B  2B0D               	goto	u155_21
  3079     030C  2B0E               	goto	u155_20
  3080     030D                     u155_21:
  3081     030D  2B2D               	goto	i1l1308
  3082     030E                     u155_20:
  3083     030E                     i1l1304:
  3084     030E  0834               	movf	___flmul@prod,w
  3085     030F  00A8               	movwf	??___flmul
  3086     0310  0835               	movf	___flmul@prod+1,w
  3087     0311  00A9               	movwf	??___flmul+1
  3088     0312  0836               	movf	___flmul@prod+2,w
  3089     0313  00AA               	movwf	??___flmul+2
  3090     0314  0837               	movf	___flmul@prod+3,w
  3091     0315  00AB               	movwf	??___flmul+3
  3092     0316  3001               	movlw	1
  3093     0317  00AC               	movwf	??___flmul+4
  3094     0318                     u156_25:
  3095     0318  0D2B               	rlf	??___flmul+3,w
  3096     0319  0CAB               	rrf	??___flmul+3,f
  3097     031A  0CAA               	rrf	??___flmul+2,f
  3098     031B  0CA9               	rrf	??___flmul+1,f
  3099     031C  0CA8               	rrf	??___flmul,f
  3100     031D                     u156_20:
  3101     031D  0BAC               	decfsz	??___flmul+4,f
  3102     031E  2B18               	goto	u156_25
  3103     031F  082B               	movf	??___flmul+3,w
  3104     0320  00B7               	movwf	___flmul@prod+3
  3105     0321  082A               	movf	??___flmul+2,w
  3106     0322  00B6               	movwf	___flmul@prod+2
  3107     0323  0829               	movf	??___flmul+1,w
  3108     0324  00B5               	movwf	___flmul@prod+1
  3109     0325  0828               	movf	??___flmul,w
  3110     0326  00B4               	movwf	___flmul@prod
  3111     0327                     i1l1306:
  3112     0327  3001               	movlw	1
  3113     0328  07B8               	addwf	___flmul@temp,f
  3114     0329  1803               	skipnc
  3115     032A  0AB9               	incf	___flmul@temp+1,f
  3116     032B  3000               	movlw	0
  3117     032C  07B9               	addwf	___flmul@temp+1,f
  3118     032D                     i1l1308:
  3119     032D  0839               	movf	___flmul@temp+1,w
  3120     032E  3A80               	xorlw	128
  3121     032F  00FF               	movwf	btemp+1
  3122     0330  3080               	movlw	128
  3123     0331  027F               	subwf	btemp+1,w
  3124     0332  1D03               	skipz
  3125     0333  2B36               	goto	u157_25
  3126     0334  30FF               	movlw	255
  3127     0335  0238               	subwf	___flmul@temp,w
  3128     0336                     u157_25:
  3129     0336  1C03               	skipc
  3130     0337  2B39               	goto	u157_21
  3131     0338  2B3A               	goto	u157_20
  3132     0339                     u157_21:
  3133     0339  2B45               	goto	i1l1312
  3134     033A                     u157_20:
  3135     033A                     i1l1310:
  3136     033A  307F               	movlw	127
  3137     033B  1283               	bcf	3,5	;RP0=0, select bank0
  3138     033C  1303               	bcf	3,6	;RP1=0, select bank0
  3139     033D  00B7               	movwf	___flmul@prod+3
  3140     033E  3080               	movlw	128
  3141     033F  00B6               	movwf	___flmul@prod+2
  3142     0340  3000               	movlw	0
  3143     0341  00B5               	movwf	___flmul@prod+1
  3144     0342  3000               	movlw	0
  3145     0343  00B4               	movwf	___flmul@prod
  3146     0344  2B76               	goto	i1l1326
  3147     0345                     i1l1312:
  3148     0345  1283               	bcf	3,5	;RP0=0, select bank0
  3149     0346  1303               	bcf	3,6	;RP1=0, select bank0
  3150     0347  0839               	movf	___flmul@temp+1,w
  3151     0348  3A80               	xorlw	128
  3152     0349  00FF               	movwf	btemp+1
  3153     034A  3080               	movlw	128
  3154     034B  027F               	subwf	btemp+1,w
  3155     034C  1D03               	skipz
  3156     034D  2B50               	goto	u158_25
  3157     034E  3001               	movlw	1
  3158     034F  0238               	subwf	___flmul@temp,w
  3159     0350                     u158_25:
  3160     0350  1803               	skipnc
  3161     0351  2B53               	goto	u158_21
  3162     0352  2B54               	goto	u158_20
  3163     0353                     u158_21:
  3164     0353  2B60               	goto	i1l1318
  3165     0354                     u158_20:
  3166     0354                     i1l1314:
  3167     0354  3000               	movlw	0
  3168     0355  1283               	bcf	3,5	;RP0=0, select bank0
  3169     0356  1303               	bcf	3,6	;RP1=0, select bank0
  3170     0357  00B7               	movwf	___flmul@prod+3
  3171     0358  3000               	movlw	0
  3172     0359  00B6               	movwf	___flmul@prod+2
  3173     035A  3000               	movlw	0
  3174     035B  00B5               	movwf	___flmul@prod+1
  3175     035C  3000               	movlw	0
  3176     035D  00B4               	movwf	___flmul@prod
  3177     035E                     i1l1316:
  3178     035E  01AD               	clrf	___flmul@sign
  3179     035F  2B76               	goto	i1l1326
  3180     0360                     i1l1318:
  3181     0360  1283               	bcf	3,5	;RP0=0, select bank0
  3182     0361  1303               	bcf	3,6	;RP1=0, select bank0
  3183     0362  0838               	movf	___flmul@temp,w
  3184     0363  00B3               	movwf	___flmul@bexp
  3185     0364  30FF               	movlw	255
  3186     0365  05B4               	andwf	___flmul@prod,f
  3187     0366  30FF               	movlw	255
  3188     0367  05B5               	andwf	___flmul@prod+1,f
  3189     0368  307F               	movlw	127
  3190     0369  05B6               	andwf	___flmul@prod+2,f
  3191     036A  3000               	movlw	0
  3192     036B  05B7               	andwf	___flmul@prod+3,f
  3193     036C                     i1l1320:
  3194     036C  1C33               	btfss	___flmul@bexp,0
  3195     036D  2B6F               	goto	u159_21
  3196     036E  2B70               	goto	u159_20
  3197     036F                     u159_21:
  3198     036F  2B71               	goto	i1l1324
  3199     0370                     u159_20:
  3200     0370                     i1l1322:
  3201     0370  17B6               	bsf	___flmul@prod+2,7
  3202     0371                     i1l1324:
  3203     0371  0833               	movf	___flmul@bexp,w
  3204     0372  00A8               	movwf	??___flmul
  3205     0373  1003               	clrc
  3206     0374  0C28               	rrf	??___flmul,w
  3207     0375  00B7               	movwf	___flmul@prod+3
  3208     0376                     i1l1326:
  3209     0376  082D               	movf	___flmul@sign,w
  3210     0377  00FF               	movwf	btemp+1
  3211     0378  087F               	movf	btemp+1,w
  3212     0379  04B7               	iorwf	___flmul@prod+3,f
  3213     037A                     i1l1328:
  3214     037A  0837               	movf	___flmul@prod+3,w
  3215     037B  00A3               	movwf	?___flmul+3
  3216     037C  0836               	movf	___flmul@prod+2,w
  3217     037D  00A2               	movwf	?___flmul+2
  3218     037E  0835               	movf	___flmul@prod+1,w
  3219     037F  00A1               	movwf	?___flmul+1
  3220     0380  0834               	movf	___flmul@prod,w
  3221     0381  00A0               	movwf	?___flmul
  3222     0382                     i1l579:
  3223     0382  0008               	return
  3224     0383                     __end_of___flmul:
  3225                           
  3226                           	psect	text11
  3227     0FD9                     __ptext11:	
  3228 ;; *************** function __Umul8_16 *****************
  3229 ;; Defined at:
  3230 ;;		line 4 in file "C:\Program Files\Microchip\xc8\v2.45\pic\sources\c99\common\Umul8_16.c"
  3231 ;; Parameters:    Size  Location     Type
  3232 ;;  multiplier      1    wreg     unsigned char 
  3233 ;;  multiplicand    1    0[COMMON] unsigned char 
  3234 ;; Auto vars:     Size  Location     Type
  3235 ;;  multiplier      1    8[COMMON] unsigned char 
  3236 ;;  word_mpld       2    6[COMMON] unsigned short 
  3237 ;;  product         2    4[COMMON] unsigned short 
  3238 ;; Return value:  Size  Location     Type
  3239 ;;                  2    0[COMMON] unsigned int 
  3240 ;; Registers used:
  3241 ;;		wreg, status,2, status,0
  3242 ;; Tracked objects:
  3243 ;;		On entry : 0/0
  3244 ;;		On exit  : 0/0
  3245 ;;		Unchanged: 0/0
  3246 ;; Data sizes:     COMMON   BANK0   BANK1   BANK3   BANK2
  3247 ;;      Params:         2       0       0       0       0
  3248 ;;      Locals:         5       0       0       0       0
  3249 ;;      Temps:          2       0       0       0       0
  3250 ;;      Totals:         9       0       0       0       0
  3251 ;;Total ram usage:        9 bytes
  3252 ;; Hardware stack levels used: 1
  3253 ;; This function calls:
  3254 ;;		Nothing
  3255 ;; This function is called by:
  3256 ;;		___flmul
  3257 ;; This function uses a non-reentrant model
  3258 ;;
  3259                           
  3260     0FD9                     __Umul8_16:	
  3261                           ;psect for function __Umul8_16
  3262                           
  3263                           
  3264                           ;incstack = 0
  3265                           ; Regs used in __Umul8_16: [wreg+status,2+status,0]
  3266                           ;__Umul8_16@multiplier stored from wreg
  3267     0FD9  00F8               	movwf	__Umul8_16@multiplier
  3268     0FDA                     i1l1062:
  3269     0FDA  01F4               	clrf	__Umul8_16@product
  3270     0FDB  01F5               	clrf	__Umul8_16@product+1
  3271     0FDC                     i1l1064:
  3272     0FDC  0870               	movf	__Umul8_16@multiplicand,w
  3273     0FDD  00F2               	movwf	??__Umul8_16
  3274     0FDE  01F3               	clrf	??__Umul8_16+1
  3275     0FDF  0872               	movf	??__Umul8_16,w
  3276     0FE0  00F6               	movwf	__Umul8_16@word_mpld
  3277     0FE1  0873               	movf	??__Umul8_16+1,w
  3278     0FE2  00F7               	movwf	__Umul8_16@word_mpld+1
  3279     0FE3                     i1l1066:
  3280     0FE3  1C78               	btfss	__Umul8_16@multiplier,0
  3281     0FE4  2FE6               	goto	u93_21
  3282     0FE5  2FE7               	goto	u93_20
  3283     0FE6                     u93_21:
  3284     0FE6  2FED               	goto	i1l598
  3285     0FE7                     u93_20:
  3286     0FE7                     i1l1068:
  3287     0FE7  0876               	movf	__Umul8_16@word_mpld,w
  3288     0FE8  07F4               	addwf	__Umul8_16@product,f
  3289     0FE9  1803               	skipnc
  3290     0FEA  0AF5               	incf	__Umul8_16@product+1,f
  3291     0FEB  0877               	movf	__Umul8_16@word_mpld+1,w
  3292     0FEC  07F5               	addwf	__Umul8_16@product+1,f
  3293     0FED                     i1l598:
  3294     0FED  3001               	movlw	1
  3295     0FEE                     u94_25:
  3296     0FEE  1003               	clrc
  3297     0FEF  0DF6               	rlf	__Umul8_16@word_mpld,f
  3298     0FF0  0DF7               	rlf	__Umul8_16@word_mpld+1,f
  3299     0FF1  3EFF               	addlw	-1
  3300     0FF2  1D03               	skipz
  3301     0FF3  2FEE               	goto	u94_25
  3302     0FF4  1003               	clrc
  3303     0FF5  0CF8               	rrf	__Umul8_16@multiplier,f
  3304     0FF6                     i1l1070:
  3305     0FF6  0878               	movf	__Umul8_16@multiplier,w
  3306     0FF7  1D03               	btfss	3,2
  3307     0FF8  2FFA               	goto	u95_21
  3308     0FF9  2FFB               	goto	u95_20
  3309     0FFA                     u95_21:
  3310     0FFA  2FE3               	goto	i1l1066
  3311     0FFB                     u95_20:
  3312     0FFB                     i1l1072:
  3313     0FFB  0875               	movf	__Umul8_16@product+1,w
  3314     0FFC  00F1               	movwf	?__Umul8_16+1
  3315     0FFD  0874               	movf	__Umul8_16@product,w
  3316     0FFE  00F0               	movwf	?__Umul8_16
  3317     0FFF                     i1l600:
  3318     0FFF  0008               	return
  3319     1000                     __end_of__Umul8_16:
  3320                           
  3321                           	psect	text12
  3322     0644                     __ptext12:	
  3323 ;; *************** function ___flge *****************
  3324 ;; Defined at:
  3325 ;;		line 4 in file "C:\Program Files\Microchip\xc8\v2.45\pic\sources\c99\common\flge.c"
  3326 ;; Parameters:    Size  Location     Type
  3327 ;;  ff1             4    0[COMMON] unsigned int 
  3328 ;;  ff2             4    4[COMMON] unsigned int 
  3329 ;; Auto vars:     Size  Location     Type
  3330 ;;		None
  3331 ;; Return value:  Size  Location     Type
  3332 ;;		None               void
  3333 ;; Registers used:
  3334 ;;		wreg, status,2, status,0
  3335 ;; Tracked objects:
  3336 ;;		On entry : 0/0
  3337 ;;		On exit  : 0/0
  3338 ;;		Unchanged: 0/0
  3339 ;; Data sizes:     COMMON   BANK0   BANK1   BANK3   BANK2
  3340 ;;      Params:         8       0       0       0       0
  3341 ;;      Locals:         0       0       0       0       0
  3342 ;;      Temps:          4       0       0       0       0
  3343 ;;      Totals:        12       0       0       0       0
  3344 ;;Total ram usage:       12 bytes
  3345 ;; Hardware stack levels used: 1
  3346 ;; This function calls:
  3347 ;;		Nothing
  3348 ;; This function is called by:
  3349 ;;		_InterruptRoutine
  3350 ;; This function uses a non-reentrant model
  3351 ;;
  3352                           
  3353     0644                     ___flge:	
  3354                           ;psect for function ___flge
  3355                           
  3356     0644                     i1l1170:	
  3357                           ;incstack = 0
  3358                           ; Regs used in ___flge: [wreg+status,2+status,0]
  3359                           
  3360     0644  3000               	movlw	0
  3361     0645  0570               	andwf	___flge@ff1,w
  3362     0646  00F8               	movwf	??___flge
  3363     0647  3000               	movlw	0
  3364     0648  0571               	andwf	___flge@ff1+1,w
  3365     0649  00F9               	movwf	??___flge+1
  3366     064A  3080               	movlw	128
  3367     064B  0572               	andwf	___flge@ff1+2,w
  3368     064C  00FA               	movwf	??___flge+2
  3369     064D  307F               	movlw	127
  3370     064E  0573               	andwf	___flge@ff1+3,w
  3371     064F  00FB               	movwf	??___flge+3
  3372     0650  087B               	movf	??___flge+3,w
  3373     0651  047A               	iorwf	??___flge+2,w
  3374     0652  0479               	iorwf	??___flge+1,w
  3375     0653  0478               	iorwf	??___flge,w
  3376     0654  1D03               	skipz
  3377     0655  2E57               	goto	u116_21
  3378     0656  2E58               	goto	u116_20
  3379     0657                     u116_21:
  3380     0657  2E60               	goto	i1l360
  3381     0658                     u116_20:
  3382     0658                     i1l1172:
  3383     0658  3000               	movlw	0
  3384     0659  00F3               	movwf	___flge@ff1+3
  3385     065A  3000               	movlw	0
  3386     065B  00F2               	movwf	___flge@ff1+2
  3387     065C  3000               	movlw	0
  3388     065D  00F1               	movwf	___flge@ff1+1
  3389     065E  3000               	movlw	0
  3390     065F  00F0               	movwf	___flge@ff1
  3391     0660                     i1l360:
  3392     0660  3000               	movlw	0
  3393     0661  0574               	andwf	___flge@ff2,w
  3394     0662  00F8               	movwf	??___flge
  3395     0663  3000               	movlw	0
  3396     0664  0575               	andwf	___flge@ff2+1,w
  3397     0665  00F9               	movwf	??___flge+1
  3398     0666  3080               	movlw	128
  3399     0667  0576               	andwf	___flge@ff2+2,w
  3400     0668  00FA               	movwf	??___flge+2
  3401     0669  307F               	movlw	127
  3402     066A  0577               	andwf	___flge@ff2+3,w
  3403     066B  00FB               	movwf	??___flge+3
  3404     066C  087B               	movf	??___flge+3,w
  3405     066D  047A               	iorwf	??___flge+2,w
  3406     066E  0479               	iorwf	??___flge+1,w
  3407     066F  0478               	iorwf	??___flge,w
  3408     0670  1D03               	skipz
  3409     0671  2E73               	goto	u117_21
  3410     0672  2E74               	goto	u117_20
  3411     0673                     u117_21:
  3412     0673  2E7C               	goto	i1l1176
  3413     0674                     u117_20:
  3414     0674                     i1l1174:
  3415     0674  3000               	movlw	0
  3416     0675  00F7               	movwf	___flge@ff2+3
  3417     0676  3000               	movlw	0
  3418     0677  00F6               	movwf	___flge@ff2+2
  3419     0678  3000               	movlw	0
  3420     0679  00F5               	movwf	___flge@ff2+1
  3421     067A  3000               	movlw	0
  3422     067B  00F4               	movwf	___flge@ff2
  3423     067C                     i1l1176:
  3424     067C  1FF3               	btfss	___flge@ff1+3,7
  3425     067D  2E7F               	goto	u118_21
  3426     067E  2E80               	goto	u118_20
  3427     067F                     u118_21:
  3428     067F  2EA4               	goto	i1l1180
  3429     0680                     u118_20:
  3430     0680                     i1l1178:
  3431     0680  3000               	movlw	0
  3432     0681  00F8               	movwf	??___flge
  3433     0682  3000               	movlw	0
  3434     0683  00F9               	movwf	??___flge+1
  3435     0684  3000               	movlw	0
  3436     0685  00FA               	movwf	??___flge+2
  3437     0686  3080               	movlw	128
  3438     0687  00FB               	movwf	??___flge+3
  3439     0688  0870               	movf	___flge@ff1,w
  3440     0689  02F8               	subwf	??___flge,f
  3441     068A  0871               	movf	___flge@ff1+1,w
  3442     068B  1C03               	skipc
  3443     068C  0F71               	incfsz	___flge@ff1+1,w
  3444     068D  2E8F               	goto	u119_21
  3445     068E  2E90               	goto	u119_22
  3446     068F                     u119_21:
  3447     068F  02F9               	subwf	??___flge+1,f
  3448     0690                     u119_22:
  3449     0690  0872               	movf	___flge@ff1+2,w
  3450     0691  1C03               	skipc
  3451     0692  0F72               	incfsz	___flge@ff1+2,w
  3452     0693  2E95               	goto	u119_23
  3453     0694  2E96               	goto	u119_24
  3454     0695                     u119_23:
  3455     0695  02FA               	subwf	??___flge+2,f
  3456     0696                     u119_24:
  3457     0696  0873               	movf	___flge@ff1+3,w
  3458     0697  1C03               	skipc
  3459     0698  0F73               	incfsz	___flge@ff1+3,w
  3460     0699  2E9B               	goto	u119_25
  3461     069A  2E9C               	goto	u119_26
  3462     069B                     u119_25:
  3463     069B  02FB               	subwf	??___flge+3,f
  3464     069C                     u119_26:
  3465     069C  087B               	movf	??___flge+3,w
  3466     069D  00F3               	movwf	___flge@ff1+3
  3467     069E  087A               	movf	??___flge+2,w
  3468     069F  00F2               	movwf	___flge@ff1+2
  3469     06A0  0879               	movf	??___flge+1,w
  3470     06A1  00F1               	movwf	___flge@ff1+1
  3471     06A2  0878               	movf	??___flge,w
  3472     06A3  00F0               	movwf	___flge@ff1
  3473     06A4                     i1l1180:
  3474     06A4  1FF7               	btfss	___flge@ff2+3,7
  3475     06A5  2EA7               	goto	u120_21
  3476     06A6  2EA8               	goto	u120_20
  3477     06A7                     u120_21:
  3478     06A7  2ECC               	goto	i1l363
  3479     06A8                     u120_20:
  3480     06A8                     i1l1182:
  3481     06A8  3000               	movlw	0
  3482     06A9  00F8               	movwf	??___flge
  3483     06AA  3000               	movlw	0
  3484     06AB  00F9               	movwf	??___flge+1
  3485     06AC  3000               	movlw	0
  3486     06AD  00FA               	movwf	??___flge+2
  3487     06AE  3080               	movlw	128
  3488     06AF  00FB               	movwf	??___flge+3
  3489     06B0  0874               	movf	___flge@ff2,w
  3490     06B1  02F8               	subwf	??___flge,f
  3491     06B2  0875               	movf	___flge@ff2+1,w
  3492     06B3  1C03               	skipc
  3493     06B4  0F75               	incfsz	___flge@ff2+1,w
  3494     06B5  2EB7               	goto	u121_21
  3495     06B6  2EB8               	goto	u121_22
  3496     06B7                     u121_21:
  3497     06B7  02F9               	subwf	??___flge+1,f
  3498     06B8                     u121_22:
  3499     06B8  0876               	movf	___flge@ff2+2,w
  3500     06B9  1C03               	skipc
  3501     06BA  0F76               	incfsz	___flge@ff2+2,w
  3502     06BB  2EBD               	goto	u121_23
  3503     06BC  2EBE               	goto	u121_24
  3504     06BD                     u121_23:
  3505     06BD  02FA               	subwf	??___flge+2,f
  3506     06BE                     u121_24:
  3507     06BE  0877               	movf	___flge@ff2+3,w
  3508     06BF  1C03               	skipc
  3509     06C0  0F77               	incfsz	___flge@ff2+3,w
  3510     06C1  2EC3               	goto	u121_25
  3511     06C2  2EC4               	goto	u121_26
  3512     06C3                     u121_25:
  3513     06C3  02FB               	subwf	??___flge+3,f
  3514     06C4                     u121_26:
  3515     06C4  087B               	movf	??___flge+3,w
  3516     06C5  00F7               	movwf	___flge@ff2+3
  3517     06C6  087A               	movf	??___flge+2,w
  3518     06C7  00F6               	movwf	___flge@ff2+2
  3519     06C8  0879               	movf	??___flge+1,w
  3520     06C9  00F5               	movwf	___flge@ff2+1
  3521     06CA  0878               	movf	??___flge,w
  3522     06CB  00F4               	movwf	___flge@ff2
  3523     06CC                     i1l363:
  3524     06CC  3080               	movlw	128
  3525     06CD  06F3               	xorwf	___flge@ff1+3,f
  3526     06CE  3080               	movlw	128
  3527     06CF  06F7               	xorwf	___flge@ff2+3,f
  3528     06D0  0877               	movf	___flge@ff2+3,w
  3529     06D1  0273               	subwf	___flge@ff1+3,w
  3530     06D2  1D03               	skipz
  3531     06D3  2EDE               	goto	u122_25
  3532     06D4  0876               	movf	___flge@ff2+2,w
  3533     06D5  0272               	subwf	___flge@ff1+2,w
  3534     06D6  1D03               	skipz
  3535     06D7  2EDE               	goto	u122_25
  3536     06D8  0875               	movf	___flge@ff2+1,w
  3537     06D9  0271               	subwf	___flge@ff1+1,w
  3538     06DA  1D03               	skipz
  3539     06DB  2EDE               	goto	u122_25
  3540     06DC  0874               	movf	___flge@ff2,w
  3541     06DD  0270               	subwf	___flge@ff1,w
  3542     06DE                     u122_25:
  3543     06DE  1803               	skipnc
  3544     06DF  2EE1               	goto	u122_21
  3545     06E0  2EE2               	goto	u122_20
  3546     06E1                     u122_21:
  3547     06E1  2EE4               	goto	i1l1186
  3548     06E2                     u122_20:
  3549     06E2                     i1l1184:
  3550     06E2  1003               	clrc
  3551     06E3  2EE5               	goto	i1l368
  3552     06E4                     i1l1186:
  3553     06E4  1403               	setc
  3554     06E5                     i1l368:
  3555     06E5  0008               	return
  3556     06E6                     __end_of___flge:
  3557     007E                     btemp	set	126	;btemp
  3558     007E                     wtemp0	set	126
  3559                           
  3560                           	psect	config
  3561                           
  3562                           ;Config register CONFIG @ 0x2007
  3563                           ;	Oscillator Selection bits
  3564                           ;	FOSC = HS, HS oscillator
  3565                           ;	Watchdog Timer Enable bit
  3566                           ;	WDTE = OFF, WDT disabled
  3567                           ;	Power-up Timer Enable bit
  3568                           ;	PWRTE = OFF, PWRT disabled
  3569                           ;	Brown-out Reset Enable bit
  3570                           ;	BOREN = OFF, BOR disabled
  3571                           ;	Low-Voltage (Single-Supply) In-Circuit Serial Programming Enable bit
  3572                           ;	LVP = ON, RB3/PGM pin has PGM function; low-voltage programming enabled
  3573                           ;	Data EEPROM Memory Code Protection bit
  3574                           ;	CPD = OFF, Data EEPROM code protection off
  3575                           ;	Flash Program Memory Write Enable bits
  3576                           ;	WRT = OFF, Write protection off; all program memory may be written to by EECON control
  3577                           ;	In-Circuit Debugger Mode bit
  3578                           ;	DEBUG = 0x1, unprogrammed default
  3579                           ;	Flash Program Memory Code Protection bit
  3580                           ;	CP = OFF, Code protection off
  3581     2007                     	org	8199
  3582     2007  3FBA               	dw	16314

Data Sizes:
    Strings     41
    Constant    0
    Data        4
    BSS         15
    Persistent  0
    Stack       0

Auto Spaces:
    Space          Size  Autos    Used
    COMMON           14     14      14
    BANK0            80     32      51
    BANK1            80     18      18
    BANK3            96      0       0
    BANK2            96      0       0

Pointer List with Targets:

    colors	PTR const unsigned char [4] size(1) Largest target is 6
		 -> STR_1(CODE[6]), STR_2(CODE[6]), STR_3(CODE[6]), STR_4(CODE[6]), 

    lcd_string@str	PTR const unsigned char  size(1) Largest target is 9
		 -> STR_1(CODE[6]), STR_2(CODE[6]), STR_3(CODE[6]), STR_4(CODE[6]), 
		 -> STR_5(CODE[8]), STR_6(CODE[9]), 


Critical Paths under _main in COMMON

    None.

Critical Paths under _InterruptRoutine in COMMON

    _InterruptRoutine->___xxtofl
    ___flmul->___xxtofl

Critical Paths under _main in BANK0

    _main->_lcd_command
    _main->_lcd_data
    _lcd_string->_lcd_data
    _lcd_initialize->_lcd_command

Critical Paths under _InterruptRoutine in BANK0

    _InterruptRoutine->___flmul

Critical Paths under _main in BANK1

    _main->___awdiv

Critical Paths under _InterruptRoutine in BANK1

    None.

Critical Paths under _main in BANK3

    None.

Critical Paths under _InterruptRoutine in BANK3

    None.

Critical Paths under _main in BANK2

    None.

Critical Paths under _InterruptRoutine in BANK2

    None.

Call Graph Tables:

 ---------------------------------------------------------------------------------
 (Depth) Function   	        Calls       Base Space   Used Autos Params    Refs
 ---------------------------------------------------------------------------------
 (0) _main                                                10    10      0    1603
                                              8 BANK1     10    10      0
                           _ADC_Init
                            ___awdiv
                            ___awmod
                        _lcd_command
                           _lcd_data
                     _lcd_initialize
                         _lcd_string
 ---------------------------------------------------------------------------------
 (1) _lcd_string                                           1     1      0     204
                                              0 BANK1      1     1      0
                           _lcd_data
 ---------------------------------------------------------------------------------
 (2) _lcd_data                                             3     3      0      31
                                             29 BANK0      3     3      0
 ---------------------------------------------------------------------------------
 (1) _lcd_initialize                                       0     0      0      31
                        _lcd_command
 ---------------------------------------------------------------------------------
 (2) _lcd_command                                          3     3      0      31
                                             29 BANK0      3     3      0
 ---------------------------------------------------------------------------------
 (1) ___awmod                                              6     2      4     613
                                             29 BANK0      2     2      0
                                              0 BANK1      4     0      4
 ---------------------------------------------------------------------------------
 (1) ___awdiv                                              8     4      4     625
                                              0 BANK1      8     4      4
 ---------------------------------------------------------------------------------
 (1) _ADC_Init                                             0     0      0       0
 ---------------------------------------------------------------------------------
 Estimated maximum stack depth 2
 ---------------------------------------------------------------------------------
 (Depth) Function   	        Calls       Base Space   Used Autos Params    Refs
 ---------------------------------------------------------------------------------
 (3) _InterruptRoutine                                     3     3      0    3909
                                             26 BANK0      3     3      0
                             ___flge
                            ___flmul
                           ___xxtofl
 ---------------------------------------------------------------------------------
 (4) ___xxtofl                                            14    10      4     398
                                              0 COMMON    14    10      4
 ---------------------------------------------------------------------------------
 (4) ___flmul                                             26    18      8    2417
                                              0 BANK0     26    18      8
                          __Umul8_16
                           ___xxtofl (ARG)
 ---------------------------------------------------------------------------------
 (5) __Umul8_16                                            9     7      2     799
                                              0 COMMON     9     7      2
 ---------------------------------------------------------------------------------
 (4) ___flge                                              12     4      8    1094
                                              0 COMMON    12     4      8
 ---------------------------------------------------------------------------------
 Estimated maximum stack depth 5
 ---------------------------------------------------------------------------------

 Call Graph Graphs:

 _main (ROOT)
   _ADC_Init
   ___awdiv
   ___awmod
   _lcd_command
   _lcd_data
   _lcd_initialize
     _lcd_command
   _lcd_string
     _lcd_data

 _InterruptRoutine (ROOT)
   ___flge
   ___flmul
     __Umul8_16
     ___xxtofl (ARG)
   ___xxtofl

 Address spaces:
Name               Size   Autos  Total    Cost      Usage
BANK3               60      0       0       9        0.0%
BITBANK3            60      0       0       8        0.0%
SFR3                 0      0       0       4        0.0%
BITSFR3              0      0       0       4        0.0%
BANK2               60      0       0      11        0.0%
BITBANK2            60      0       0      10        0.0%
SFR2                 0      0       0       5        0.0%
BITSFR2              0      0       0       5        0.0%
BANK1               50     12      12       7       22.5%
BITBANK1            50      0       0       6        0.0%
SFR1                 0      0       0       2        0.0%
BITSFR1              0      0       0       2        0.0%
BANK0               50     20      33       5       63.7%
BITBANK0            50      0       0       4        0.0%
SFR0                 0      0       0       1        0.0%
BITSFR0              0      0       0       1        0.0%
COMMON               E      E       E       1      100.0%
BITCOMMON            E      0       0       0        0.0%
CODE                 0      0       0       0        0.0%
DATA                 0      0      53      12        0.0%
ABS                  0      0      53       3        0.0%
NULL                 0      0       0       0        0.0%
STACK                0      0       0       2        0.0%
EEDATA             100      0       0       0        0.0%


Microchip Technology PIC Macro Assembler V2.45 build 20230818022343 
Symbol Table                                                                                   Wed May 22 23:42:45 2024

                       pc 0002              lcd_data@data 003F         ?_InterruptRoutine 0070  
                      l60 03A8                        l72 0FB5                        l81 0FD8  
                      l58 03A4                        l75 0F9C                        l84 0F86  
                      l69 07F6              ___awdiv@sign 00A5                        fsr 0004  
      ??_InterruptRoutine 003A       __Umul8_16@word_mpld 0076                       l335 07BE  
                     l348 0755                       fsr0 0004                       indf 0000  
            ___awmod@sign 003E              ___flmul@aexp 0032              ___flmul@bexp 0033  
            ___flmul@sign 002D              ___flmul@temp 0038              ___flmul@prod 0034  
                    l1500 0773                      l1510 078B                      l1502 0779  
                    l1512 079C                      l1504 077C                      l1520 07B0  
                    l1600 0419                      l1522 07B5                      l1514 07A2  
                    l1506 0783                      l1530 06E9                      l1610 0457  
                    l1602 041F                      l1524 07BA                      l1516 07A3  
                    l1508 0787                      l1540 0703                      l1532 06EF  
                    l1460 0F74                      l1612 0475                      l1604 042B  
                    l1518 07AA                      l1550 0721                      l1542 0709  
                    l1534 06F4                      l1462 0F77                      l1470 0F99  
                    l1614 047C                      l1606 0431                      l1560 0748  
                    l1552 072D                      l1544 070E                      l1536 06F8  
                    l1528 06E6                      l1464 0F83                      l1472 0F9D  
                    l1480 0FC6                      l1616 0485                      l1608 0437  
                    l1474 07EE                      l1490 0762                      l1562 074F  
                    l1554 0733                      l1546 0715                      l1538 06FE  
                    l1466 0F8A                      l1482 0FCC                      l1570 0392  
                    l1492 0764                      l1484 0756                      l1556 073A  
                    l1548 071B                      l1468 0F8D                      l1476 0FB9  
                    l1580 0397                      l1572 0393                      l1494 0768  
                    l1486 0759                      l1558 0742                      l1478 0FBA  
                    l1590 03C0                      l1582 039C                      l1574 0394  
                    l1566 0383                      l1496 076D                      l1488 075D  
                    l1592 03C6                      l1584 03A1                      l1576 0395  
                    l1568 0391                      l1498 0771                      l1594 03EB  
                    l1586 03AC                      l1578 0396                      l1596 0406  
                    l1588 03BA                      l1598 0413                      STR_1 07E2  
                    STR_2 07D6                      STR_3 07DC                      STR_4 07E8  
                    STR_5 07CE                      STR_6 07C5                      u2000 0721  
                    u2001 0720                      u2010 072D                      u2011 072C  
                    u2030 0742                      u2031 0741                      u2015 0729  
                    u2040 0748                      u2041 0747                      u2025 0734  
                    u2050 03A8                      u2107 048D                      u2051 03A7  
                    u2060 03AC                      u2117 0F95                      u2061 03AB  
                    u2070 03C0                      u2127 0F7F                      u2071 03BF  
                    u2080 0406                      u2081 0405                      u2085 0402  
                    u2097 03B4                      u1900 078B                      u1901 078A  
                    u1920 079C                      u1921 079B                      u1850 0FD8  
                    u1915 078C                      u1851 0FD7                      u1940 07B0  
                    u1860 075D                      u1941 07AF                      u1925 0798  
                    u1861 075C                      u1950 07B5                      u1870 0768  
                    u1951 07B4                      u1935 07A4                      u1871 0767  
                    u1880 0779                      u1960 06EF                      u1881 0778  
                    u1961 06EE                      u1970 06FE                      u1971 06FD  
                    u1980 0709                      u1981 0708                      u1895 077D  
                    u1995 070F                      i1l96 0583                      _main 0383  
                    btemp 007E          __end_of_ADC_Init 07F7                      start 0010  
                   ?_main 0070           __end_of___awdiv 07BF           __end_of___awmod 0756  
         __end_of___flmul 0383           ___awdiv@divisor 00A0                     i1l360 0660  
                   i1l600 0FFF                     i1l363 06CC                     i1l623 05AE  
                   i1l368 06E5                     i1l625 0643                     i1l636 060D  
                   i1l637 0619                     i1l585 02F2                     i1l579 0382  
                   i1l598 0FED           ___awdiv@counter 00A4                     _PORTD 0008  
                   _TRISD 0088                     u93_20 0FE7                     u93_21 0FE6  
                   u94_25 0FEE                     u95_20 0FFB                     u95_21 0FFA  
                   main@a 00AE                     main@b 00B0                     pclath 000A  
                   status 0003                     wtemp0 007E           __initialization 0013  
            __end_of_main 0497                    ??_main 00A8            lcd_command@cmd 003F  
                  _ADCON0 001F                    _ADCON1 009F                    _ADRESH 001E  
                  _ADRESL 009E          ___awdiv@dividend 00A2                    i1l1200 0051  
                  i1l1210 006D                    i1l1202 0056                    i1l1300 02FC  
                  i1l1220 0080                    i1l1212 0071                    i1l1204 005E  
                  i1l1070 0FF6                    i1l1062 0FDA                    i1l1310 033A  
                  i1l1302 030A                    i1l1230 009C                    i1l1222 0088  
                  i1l1214 0075                    i1l1206 0060                    i1l1072 0FFB  
                  i1l1064 0FDC                    i1l1320 036C                    i1l1312 0345  
                  i1l1304 030E                    i1l1240 00DB                    i1l1224 008A  
                  i1l1216 0076                    i1l1208 0068                    i1l1170 0644  
                  i1l1066 0FE3                    i1l1322 0370                    i1l1314 0354  
                  i1l1306 0327                    i1l1250 0162                    i1l1242 00F7  
                  i1l1234 00A5                    i1l1226 0092                    i1l1218 007B  
                  i1l1180 06A4                    i1l1172 0658                    i1l1068 0FE7  
                  i1l1324 0371                    i1l1316 035E                    i1l1308 032D  
                  i1l1260 01CF                    i1l1252 0170                    i1l1244 0121  
                  i1l1236 00B3                    i1l1228 0097                    i1l1340 05B6  
                  i1l1332 058D                    i1l1182 06A8                    i1l1174 0674  
                  i1l1318 0360                    i1l1326 0376                    i1l1270 0276  
                  i1l1262 01EC                    i1l1254 018D                    i1l1246 013D  
                  i1l1238 00C0                    i1l1190 003E                    i1l1350 05CF  
                  i1l1334 0592                    i1l1184 06E2                    u120_20 06A8  
                  i1l1176 067C                    i1l1328 037A                    i1l1280 02C2  
                  i1l1272 029E                    i1l1264 0217                    i1l1256 019B  
                  i1l1248 0159                    i1l1192 0043                    i1l1360 05F8  
                  i1l1352 05D6                    i1l1344 05BF                    i1l1336 0596  
                  i1l1440 04E9                    i1l1432 0497                    u120_21 06A7  
                  i1l1186 06E4                    i1l1178 0680                    i1l1290 02D7  
                  i1l1282 02C3                    i1l1274 02A7                    i1l1266 0225  
                  i1l1258 01B8                    i1l1194 0047                    i1l1370 0631  
                  i1l1362 0603                    i1l1354 05DA                    i1l1346 05C2  
                  i1l1338 05A6                    i1l1450 0543                    i1l1442 0504  
                  i1l1434 049B                    i1l1292 02DB                    i1l1284 02CC  
                  i1l1276 02B5                    i1l1268 0250                    i1l1196 004B  
                  i1l1372 0636                    i1l1364 0607                    i1l1356 05E8  
                  i1l1348 05C6                    i1l1452 055E                    i1l1444 0508  
                  i1l1436 04A3                    i1l1294 02EF                    i1l1278 02BE  
                  i1l1286 02D2                    i1l1198 004C                    i1l1374 063A  
                  i1l1366 0611                    i1l1358 05F1                    i1l1454 0579  
                  i1l1446 0523                    i1l1438 04D0                    i1l1288 02D6  
                  i1l1376 063B                    i1l1368 061B                    i1l1456 057E  
                  i1l1448 053E                    u121_21 06B7                    u121_22 06B8  
                  i1l1298 02F7                    i1l1458 0582                    u121_23 06BD  
                  u121_24 06BE                    u121_25 06C3                    u121_26 06C4  
                  u122_20 06E2                    u130_20 009C                    u122_21 06E1  
                  u130_21 009B                    u122_25 06DE                    u123_20 004B  
                  u131_21 00E9                    u123_21 004A                    u131_22 00F0  
                  u131_23 00F7                    u116_20 0658                    u124_20 0051  
                  u116_21 0657                    u140_21 0209                    u132_21 0105  
                  u124_21 0050                    u140_22 0210                    u132_22 010C  
                  u140_23 0217                    u132_23 0113                    u117_20 0674  
                  u125_20 0056                    u117_21 0673                    u141_21 0234  
                  u133_21 012F                    u125_21 0055                    u141_22 023B  
                  u133_22 0136                    u141_23 0242                    u133_23 013D  
                  u118_20 0680                    u150_20 02D6                    u142_20 025C  
                  u126_20 0075                    u118_21 067F                    u150_21 02D5  
                  u134_21 014B                    u126_21 0074                    u134_22 0152  
                  u134_23 0159                    u142_25 0257                    u151_20 02DB  
                  u127_20 007B                    u119_21 068F                    u151_21 02DA  
                  u143_21 0268                    u127_21 007A                    u119_22 0690  
                  u143_22 026F                    u119_23 0695                    u143_23 0276  
                  u119_24 0696                    u119_25 069B                    u135_25 015B  
                  u119_26 069C                    u152_20 02EF                    u144_20 0284  
                  u128_20 0080                    u160_20 0592                    u152_21 02EE  
                  u136_21 017F                    u128_21 007F                    u160_21 0591  
                  u136_22 0186                    u136_23 018D                    u144_25 027F  
                  u153_20 02F6                    u129_20 0097                    u161_20 0596  
                  _INTCON 000B                    u153_21 02F5                    u145_21 0290  
                  u137_21 01AA                    u129_21 0096                    u161_21 0595  
                  u145_22 0297                    u137_22 01B1                    u145_23 029E  
                  u137_23 01B8                    u154_20 02FC                    u170_20 0611  
                  u162_20 05B6                    u154_21 02FB                    u170_21 0610  
                  u162_21 05B5                    u146_25 02A0                    u138_25 01BA  
                  u155_20 030E                    u171_20 0626                    u155_21 030D  
                  u139_21 01DE                    u139_22 01E5                    u139_23 01EC  
                  u147_25 02B7                    u171_25 0621                    u163_25 05C7  
                  u156_20 031D                    u148_20 02C2                    u172_20 0636  
                  u164_20 05D5                    u180_20 0504                    u148_21 02C1  
                  u172_21 0635                    u164_21 05D4                    u180_21 0503  
                  u156_25 0318                    u157_20 033A                    u173_20 063A  
                  u181_20 0523                    u157_21 0339                    u173_21 0639  
                  u181_21 0522                    u157_25 0336                    u149_25 02C5  
                  u165_25 05E9                    u158_20 0354                    u166_20 05F7  
                  u182_20 053E                    u158_21 0353                    u166_21 05F6  
                  u182_21 053D                    u158_25 0350                    u159_20 0370  
                  u183_20 055E                    u159_21 036F                    u183_21 055D  
                  u167_25 05FC                    u168_20 0607                    u184_20 0579  
                  u168_21 0606                    u184_21 0578                    u169_20 060D  
                  u169_21 060C                    u178_20 049B                    u178_21 049A  
                  u179_20 04E9                    u179_21 04E8          __end_of___xxtofl 0644  
        __end_of_lcd_data 0F9D                    ___flge 0644                 ??___awdiv 003D  
               ??___awmod 003D                 ??___flmul 0028                    _colors 004F  
        ___awdiv@quotient 00A6           ___awmod@divisor 00A0           ___awmod@counter 003D  
               ?_ADC_Init 0070                    saved_w 007E          ??_lcd_initialize 0040  
              ___flge@ff1 0070                ___flge@ff2 0074              ___xxtofl@arg 007A  
           lcd_string@str 00A0              ___xxtofl@exp 0079              ___xxtofl@val 0070  
 __end_of__initialization 003A            __pcstackCOMMON 0070              __pidataBANK0 07F7  
              ??_ADC_Init 003D                __pbssBANK0 0040         __end_of__Umul8_16 1000  
              __pmaintext 0383                   ?___flge 0070                __pintentry 0004  
               ?___xxtofl 0070                _colorIndex 004C                 ?_lcd_data 0070  
              _lcd_string 0FB6                __stringtab 07BF                   ___awdiv 0756  
                 ___awmod 06E6                   ___flmul 003E                   __ptext1 0FB6  
                 __ptext2 0F87                   __ptext3 0F9D                   __ptext4 0F71  
                 __ptext5 06E6                   __ptext6 0756                   __ptext7 07EE  
                 __ptext8 0497                   __ptext9 058C                ??___xxtofl 0074  
        ___awmod@dividend 00A2                   _numbers 0040                   _tension 0048  
              ??_lcd_data 003D      end_of_initialization 003A                 _PORTBbits 0006  
               _PORTCbits 0007             ___xxtofl@sign 0078                 _TRISBbits 0086  
               _TRISCbits 0087               ?_lcd_string 0070          _InterruptRoutine 0497  
             ___flmul@grs 002E             ??_lcd_command 003D            __end_of___flge 06E6  
     start_initialization 0013                  ??___flge 0078       __end_of_lcd_command 0F87  
               __Umul8_16 0FD9               __pdataBANK0 004F                 ___flmul@a 0024  
               ___flmul@b 0020                 ___latbits 0002             __pcstackBANK0 0020  
           __pcstackBANK1 00A0                  ?___awdiv 00A0                  ?___awmod 00A0  
                ?___flmul 0020                ?__Umul8_16 0070                 __pstrings 07BF  
                _ADC_Init 07EE         interrupt_function 0004                  _PIE1bits 008C  
             _lcd_command 0F71                 _valeurADC 004D                  _PIR1bits 000C  
__end_of_InterruptRoutine 058C                _ADCON0bits 001F               __stringbase 07C4  
            ??_lcd_string 0040               ??__Umul8_16 0072        __end_of_lcd_string 0FD9  
      __end_of__stringtab 07C5                  ___xxtofl 058C                  __ptext10 003E  
                __ptext11 0FD9                  __ptext12 0644                  _lcd_data 0F87  
          _lcd_initialize 0F9D                  intlevel1 0000    __end_of_lcd_initialize 0FB6  
               stringcode 07BF    __Umul8_16@multiplicand 0070                _OPTION_REG 0081  
                stringdir 07BF                  stringtab 07BF           ?_lcd_initialize 0070  
    __Umul8_16@multiplier 0078              ?_lcd_command 0070         __Umul8_16@product 0074  
