Microchip MPLAB XC8 Compiler V2.45

Linker command line:

-W-3 \
  --edf=C:\Program Files\Microchip\xc8\v2.45\pic\dat\20230818022343_en.msgs \
  -cn -h+dist/default/production\ADCModuleWithLM35.X.production.sym \
  --cmf=dist/default/production\ADCModuleWithLM35.X.production.cmf -z \
  -Q16F877A -oC:\Users\CHOAIB~1\AppData\Local\Temp\xcAses8.\driver_tmp_3.o \
  --defsym=__MPLAB_BUILD=1 --fixupoverflow=error \
  -Mdist/default/production/ADCModuleWithLM35.X.production.map \
  --md=C:\Users\CHOAIB~1\AppData\Local\Temp\xcAses8.\driver_tmp_0.dat -E1 \
  -ver=XC8 Compiler --acfsm=1493 -ACODE=00h-07FFhx4 -ASTRCODE=00h-01FFFh \
  -ASTRING=00h-0FFhx32 -ACONST=00h-0FFhx32 -AENTRY=00h-0FFhx32 \
  -ACOMMON=070h-07Fh -ABANK0=020h-06Fh -ABANK1=0A0h-0EFh \
  -ABANK2=0110h-016Fh -ABANK3=0190h-01EFh \
  -ARAM=020h-06Fh,0A0h-0EFh,0110h-016Fh,0190h-01EFh \
  -AABS1=020h-07Fh,0A0h-0EFh,0110h-016Fh,0190h-01EFh -ASFR0=00h-01Fh \
  -ASFR1=080h-09Fh -ASFR2=0100h-010Fh -ASFR3=0180h-018Fh \
  -ACONFIG=02007h-02007h -DCONFIG=2 -AIDLOC=02000h-02003h -DIDLOC=2 \
  -AEEDATA=00h-0FFh/02100h -peeprom_data=EEDATA -DEEDATA=2 -DCODE=2 \
  -DSTRCODE=2 -DSTRING=2 -DCONST=2 -DENTRY=2 \
  -preset_vec=00h,intentry=04h,init,end_init -ppowerup=CODE -pcinit=CODE \
  -pfunctab=ENTRY -k \
  C:\Users\CHOAIB~1\AppData\Local\Temp\xcAses8.\driver_tmp_12.o \
  dist/default/production\ADCModuleWithLM35.X.production.o 

Object code version is 3.11

Machine type is 16F877A



                Name                               Link     Load   Length Selector   Space Scale
C:\Users\CHOAIB~1\AppData\Local\Temp\xcAses8.\driver_tmp_12.o
                end_init                              C        C        3        8       0
                reset_vec                             0        0        3        0       0
                config                             2007     2007        1        0       4
dist/default/production\ADCModuleWithLM35.X.production.o
                cinit                                 F        F        F        8       0
                intentry                              4        4        8        8       0
                config                             2007     2007        1        0       4
                text14                              E8F      E8F       16     1D1E       0
                text13                              F97      F97       69     1F2E       0
                text12                              F3C      F3C       5B     1E78       0
                text11                              363      363      1CF        8       0
                text10                              ED9      ED9       29     1DB2       0
                text9                                1E       1E      345        8       0
                text8                               730      730       78        8       0
                text7                               7A8      7A8       44        8       0
                text6                               F02      F02       3A     1E04       0
                text5                               676      676       BA        8       0
                text4                               E65      E65       15     1CCA       0
                text3                               EA5      EA5       19     1D4A       0
                text2                               E7A      E7A       15     1CF4       0
                text1                               EBE      EBE       1B     1D7C       0
                maintext                            532      532      144        8       0
                cstackBANK0                          20       20       20       20       1
                cstackCOMMON                         70       70        A       70       1
                clrtext                             E5D      E5D        8     1CBA       0
                bssBANK0                             40       40       14       20       1
                bssCOMMON                            7A       7A        2       70       1
                strings                             7EC      7EC       14      FD8       0

TOTAL           Name                               Link     Load   Length     Space
        CLASS   CODE           
                end_init                              C        C        3         0
                cinit                                 F        F        F         0
                intentry                              4        4        8         0
                reset_vec                             0        0        3         0
                text14                              E8F      E8F       16         0
                text13                              F97      F97       69         0
                text12                              F3C      F3C       5B         0
                text11                              363      363      1CF         0
                text10                              ED9      ED9       29         0
                text9                                1E       1E      345         0
                text8                               730      730       78         0
                text7                               7A8      7A8       44         0
                text6                               F02      F02       3A         0
                text5                               676      676       BA         0
                text4                               E65      E65       15         0
                text3                               EA5      EA5       19         0
                text2                               E7A      E7A       15         0
                text1                               EBE      EBE       1B         0
                maintext                            532      532      144         0
                clrtext                             E5D      E5D        8         0

        CLASS   STRCODE        

        CLASS   STRING         
                strings                             7EC      7EC       14         0

        CLASS   CONST          

        CLASS   ENTRY          

        CLASS   COMMON         
                cstackCOMMON                         70       70        A         1
                bssCOMMON                            7A       7A        2         1

        CLASS   BANK0          
                cstackBANK0                          20       20       20         1
                bssBANK0                             40       40       14         1

        CLASS   BANK1          

        CLASS   BANK2          

        CLASS   BANK3          

        CLASS   RAM            

        CLASS   ABS1           
                abs_s1                               7E       7E        2         1

        CLASS   SFR0           

        CLASS   SFR1           

        CLASS   SFR2           

        CLASS   SFR3           

        CLASS   CONFIG         
                config                             2007     2007        1         4

        CLASS   IDLOC          

        CLASS   EEDATA         

        CLASS   HEAP           

        CLASS   STACK          



SEGMENTS        Name                           Load    Length   Top    Selector   Space  Class     Delta

                reset_vec                      000000  000003  000003         0       0  CODE        2
                intentry                       000004  0007E8  0007EC         8       0  CODE        2
                cstackBANK0                    000020  000034  000054        20       1  BANK0       1
                cstackCOMMON                   000070  00000C  00007C        70       1  COMMON      1
                strings                        0007EC  000014  000800       FD8       0  STRING      2
                clrtext                        000E5D  000008  000E65      1CBA       0  CODE        2
                text4                          000E65  000015  000E7A      1CCA       0  CODE        2
                text2                          000E7A  000015  000E8F      1CF4       0  CODE        2
                text14                         000E8F  000016  000EA5      1D1E       0  CODE        2
                text3                          000EA5  000019  000EBE      1D4A       0  CODE        2
                text1                          000EBE  00001B  000ED9      1D7C       0  CODE        2
                text10                         000ED9  000029  000F02      1DB2       0  CODE        2
                text6                          000F02  00003A  000F3C      1E04       0  CODE        2
                text12                         000F3C  00005B  000F97      1E78       0  CODE        2
                text13                         000F97  000069  001000      1F2E       0  CODE        2


UNUSED ADDRESS RANGES

        Name                Unused          Largest block    Delta
        BANK0            0054-006F             1C           1
        BANK1            00A0-00EF             50           1
        BANK2            0110-016F             60           1
        BANK3            0190-01EF             60           1
        CODE             0003-0003              1           2
                         0800-0E5C            65D
                         1000-1FFF            800
        COMMON           007C-007D              2           1
        CONST            0003-0003              1           2
                         0800-0E5C            100
                         1000-1FFF            100
        EEDATA           2100-21FF            100           2
        ENTRY            0003-0003              1           2
                         0800-0E5C            100
                         1000-1FFF            100
        IDLOC            2000-2003              4           2
        RAM              0054-006F             1C           1
                         00A0-00EF             50
                         0110-016F             60
                         0190-01EF             60
        SFR0             0000-001F             20           1
        SFR1             0080-009F             20           1
        SFR2             0100-010F             10           1
        SFR3             0180-018F             10           1
        STRCODE          0003-0003              1           2
                         0800-0E5C            65D
                         1000-1FFF           1000
        STRING           0003-0003              1           2
                         0800-0E5C            100
                         1000-1FFF            100

                                  Symbol Table

?__Umul8_16              cstackCOMMON 0072
?___awdiv                cstackBANK0  0022
?___awmod                cstackBANK0  0022
?___fldiv                cstackBANK0  0026
?___flmul                cstackBANK0  0025
?___fltol                cstackCOMMON 0072
?___lwdiv                cstackCOMMON 0072
?___lwmod                cstackCOMMON 0072
?___xxtofl               cstackCOMMON 0072
_ADCConversion           text14       0E8F
_ADCON0                  (abs)        001F
_ADCON1                  (abs)        009F
_ADRESH                  (abs)        001E
_ADRESL                  (abs)        009E
_INTCONbits              (abs)        000B
_PIE1bits                (abs)        008C
_PIR1bits                (abs)        000C
_PORTBbits               (abs)        0006
_PORTC                   (abs)        0007
_PORTD                   (abs)        0008
_TRISBbits               (abs)        0086
_TRISC                   (abs)        0087
_TRISD                   (abs)        0088
__H__absolute__          __absolute__ 0000
__Habs1                  abs1         0000
__Hbank0                 bank0        0000
__Hbank1                 bank1        0000
__Hbank2                 bank2        0000
__Hbank3                 bank3        0000
__HbssBANK0              bssBANK0     0000
__HbssCOMMON             bssCOMMON    0000
__Hcinit                 cinit        001E
__Hclrtext               clrtext      0000
__Hcode                  code         0000
__Hcommon                common       0000
__Hconfig                config       2008
__HcstackBANK0           cstackBANK0  0000
__HcstackCOMMON          cstackCOMMON 0000
__Heeprom_data           eeprom_data  0000
__Hend_init              end_init     000F
__Hfunctab               functab      0000
__Hheap                  heap         0000
__Hinit                  init         000C
__Hintentry              intentry     000C
__Hmaintext              maintext     0000
__Hpowerup               powerup      0000
__Hram                   ram          0000
__Hreset_vec             reset_vec    0003
__Hsfr0                  sfr0         0000
__Hsfr1                  sfr1         0000
__Hsfr2                  sfr2         0000
__Hsfr3                  sfr3         0000
__Hspace_0               (abs)        1000
__Hspace_1               (abs)        007C
__Hspace_2               (abs)        0000
__Hspace_3               (abs)        0000
__Hspace_4               (abs)        400F
__Hstack                 stack        0000
__Hstrings               strings      0000
__Htext                  text         0000
__L__absolute__          __absolute__ 0000
__Labs1                  abs1         0000
__Lbank0                 bank0        0000
__Lbank1                 bank1        0000
__Lbank2                 bank2        0000
__Lbank3                 bank3        0000
__LbssBANK0              bssBANK0     0000
__LbssCOMMON             bssCOMMON    0000
__Lcinit                 cinit        000F
__Lclrtext               clrtext      0000
__Lcode                  code         0000
__Lcommon                common       0000
__Lconfig                config       0000
__LcstackBANK0           cstackBANK0  0000
__LcstackCOMMON          cstackCOMMON 0000
__Leeprom_data           eeprom_data  0000
__Lend_init              end_init     000C
__Lfunctab               functab      0000
__Lheap                  heap         0000
__Linit                  init         000C
__Lintentry              intentry     0004
__Lmaintext              maintext     0000
__Lpowerup               powerup      0000
__Lram                   ram          0000
__Lreset_vec             reset_vec    0000
__Lsfr0                  sfr0         0000
__Lsfr1                  sfr1         0000
__Lsfr2                  sfr2         0000
__Lsfr3                  sfr3         0000
__Lspace_0               (abs)        0000
__Lspace_1               (abs)        0000
__Lspace_2               (abs)        0000
__Lspace_3               (abs)        0000
__Lspace_4               (abs)        0000
__Lstack                 stack        0000
__Lstrings               strings      0000
__Ltext                  text         0000
__S0                     (abs)        1000
__S1                     (abs)        007C
__S3                     (abs)        0000
__Umul8_16               text10       0ED9
__Umul8_16@multiplicand  cstackCOMMON 0072
__Umul8_16@multiplier    cstackBANK0  0024
__Umul8_16@product       cstackBANK0  0020
__Umul8_16@word_mpld     cstackBANK0  0022
___awdiv                 text13       0F97
___awdiv@counter         cstackBANK0  0026
___awdiv@dividend        cstackBANK0  0024
___awdiv@divisor         cstackBANK0  0022
___awdiv@quotient        cstackBANK0  0028
___awdiv@sign            cstackBANK0  0027
___awmod                 text12       0F3C
___awmod@counter         cstackBANK0  0026
___awmod@dividend        cstackBANK0  0024
___awmod@divisor         cstackBANK0  0022
___awmod@sign            cstackBANK0  0027
___fldiv                 text11       0363
___fldiv@a               cstackBANK0  0026
___fldiv@aexp            cstackBANK0  003F
___fldiv@b               cstackBANK0  002A
___fldiv@bexp            cstackBANK0  003E
___fldiv@grs             cstackBANK0  003A
___fldiv@new_exp         cstackBANK0  0038
___fldiv@rem             cstackBANK0  0033
___fldiv@sign            cstackBANK0  0037
___flmul                 text9        001E
___flmul@a               cstackBANK0  0029
___flmul@aexp            cstackBANK0  0033
___flmul@b               cstackBANK0  0025
___flmul@bexp            cstackBANK0  0038
___flmul@grs             cstackBANK0  0034
___flmul@prod            cstackBANK0  0039
___flmul@sign            cstackBANK0  0032
___flmul@temp            cstackBANK0  003D
___fltol                 text8        0730
___fltol@exp1            cstackBANK0  0021
___fltol@f1              cstackCOMMON 0072
___fltol@sign1           cstackBANK0  0020
___heap_hi               (abs)        0000
___heap_lo               (abs)        0000
___int_sp                stack        0000
___int_stack_hi          stack        0000
___int_stack_lo          stack        0000
___latbits               (abs)        0002
___lwdiv                 text7        07A8
___lwdiv@counter         cstackCOMMON 0078
___lwdiv@dividend        cstackCOMMON 0074
___lwdiv@divisor         cstackCOMMON 0072
___lwdiv@quotient        cstackCOMMON 0076
___lwmod                 text6        0F02
___lwmod@counter         cstackCOMMON 0076
___lwmod@dividend        cstackCOMMON 0074
___lwmod@divisor         cstackCOMMON 0072
___sp                    stack        0000
___stack_hi              stack        0000
___stack_lo              stack        0000
___stackhi               (abs)        0000
___stacklo               (abs)        0000
___xxtofl                text5        0676
___xxtofl@arg            cstackBANK0  0022
___xxtofl@exp            cstackBANK0  0021
___xxtofl@sign           cstackBANK0  0020
___xxtofl@val            cstackCOMMON 0072
__end_of_ADCConversion   text14       0EA5
__end_of__Umul8_16       text10       0F02
__end_of___awdiv         text13       1000
__end_of___awmod         text12       0F97
__end_of___fldiv         text11       0532
__end_of___flmul         text9        0363
__end_of___fltol         text8        07A8
__end_of___lwdiv         text7        07EC
__end_of___lwmod         text6        0F3C
__end_of___xxtofl        text5        0730
__end_of__initialization cinit        001A
__end_of__stringtab      strings      07F2
__end_of_lcd_command     text4        0E7A
__end_of_lcd_data        text2        0E8F
__end_of_lcd_initialize  text3        0EBE
__end_of_lcd_string      text1        0ED9
__end_of_main            maintext     0676
__initialization         cinit        000F
__pbssBANK0              bssBANK0     0040
__pbssCOMMON             bssCOMMON    007A
__pcstackBANK0           cstackBANK0  0020
__pcstackCOMMON          cstackCOMMON 0070
__pintentry              intentry     0004
__pmaintext              maintext     0532
__pstrings               strings      07EC
__ptext1                 text1        0EBE
__ptext10                text10       0ED9
__ptext11                text11       0363
__ptext12                text12       0F3C
__ptext13                text13       0F97
__ptext14                text14       0E8F
__ptext2                 text2        0E7A
__ptext3                 text3        0EA5
__ptext4                 text4        0E65
__ptext5                 text5        0676
__ptext6                 text6        0F02
__ptext7                 text7        07A8
__ptext8                 text8        0730
__ptext9                 text9        001E
__stringbase             strings      07F1
__stringtab              strings      07EC
_a                       bssBANK0     0050
_adc                     bssBANK0     0052
_b                       bssCOMMON    007A
_c                       bssBANK0     004E
_convertedAdc            bssBANK0     0044
_d                       bssBANK0     004C
_e                       bssBANK0     004A
_f                       bssBANK0     0048
_lcd_command             text4        0E65
_lcd_data                text2        0E7A
_lcd_initialize          text3        0EA5
_lcd_string              text1        0EBE
_main                    maintext     0532
_temperature             bssBANK0     0040
btemp                    (abs)        007E
clear_ram0               clrtext      0E5D
end_of_initialization    cinit        001A
interrupt_function       intentry     0004
intlevel0                functab      0000
intlevel1                functab      0000
intlevel2                functab      0000
intlevel3                functab      0000
intlevel4                functab      0000
intlevel5                functab      0000
lcd_command@cmd          cstackCOMMON 0074
lcd_data@data            cstackCOMMON 0074
lcd_string@i             cstackCOMMON 0077
lcd_string@len           cstackCOMMON 0075
lcd_string@str           cstackCOMMON 0076
reset_vec                reset_vec    0000
saved_w                  (abs)        007E
start                    init         000C
start_initialization     cinit        000F
wtemp0                   (abs)        007E


MODULE INFORMATION

Module		Function		Class		Link	Load	Size
C:\Program Files\Microchip\xc8\v2.45\pic\sources\c99\common\sprcmul.c
		___flmul       		CODE           	001E	0000	837

C:\Program Files\Microchip\xc8\v2.45\pic\sources\c99\common\sprcmul.c estimated size: 837

C:\Program Files\Microchip\xc8\v2.45\pic\sources\c99\common\sprcdiv.c
		___fldiv       		CODE           	0363	0000	463

C:\Program Files\Microchip\xc8\v2.45\pic\sources\c99\common\sprcdiv.c estimated size: 463

C:\Program Files\Microchip\xc8\v2.45\pic\sources\c99\common\lwmod.c
		___lwmod       		CODE           	0F02	0000	58

C:\Program Files\Microchip\xc8\v2.45\pic\sources\c99\common\lwmod.c estimated size: 58

C:\Program Files\Microchip\xc8\v2.45\pic\sources\c99\common\awmod.c
		___awmod       		CODE           	0F3C	0000	91

C:\Program Files\Microchip\xc8\v2.45\pic\sources\c99\common\awmod.c estimated size: 91

shared
		__stringtab    		STRING         	07EC	0000	6
		__initialization		CODE           	000F	0000	11

shared estimated size: 17

C:\Program Files\Microchip\xc8\v2.45\pic\sources\c99\common\xxtofl.c
		___xxtofl      		CODE           	0676	0000	186

C:\Program Files\Microchip\xc8\v2.45\pic\sources\c99\common\xxtofl.c estimated size: 186

C:\Program Files\Microchip\xc8\v2.45\pic\sources\c99\common\Umul8_16.c
		__Umul8_16     		CODE           	0ED9	0000	41

C:\Program Files\Microchip\xc8\v2.45\pic\sources\c99\common\Umul8_16.c estimated size: 41

main.c
		_lcd_command   		CODE           	0E65	0000	21
		_ADCConversion 		CODE           	0E8F	0000	22
		_lcd_data      		CODE           	0E7A	0000	21
		_lcd_initialize		CODE           	0EA5	0000	25
		_main          		CODE           	0532	0000	324
		_lcd_string    		CODE           	0EBE	0000	27

main.c estimated size: 440

C:\Program Files\Microchip\xc8\v2.45\pic\sources\c99\common\lwdiv.c
		___lwdiv       		CODE           	07A8	0000	68

C:\Program Files\Microchip\xc8\v2.45\pic\sources\c99\common\lwdiv.c estimated size: 68

C:\Program Files\Microchip\xc8\v2.45\pic\sources\c99\common\awdiv.c
		___awdiv       		CODE           	0F97	0000	105

C:\Program Files\Microchip\xc8\v2.45\pic\sources\c99\common\awdiv.c estimated size: 105

C:\Program Files\Microchip\xc8\v2.45\pic\sources\c99\common\fltol.c
		___fltol       		CODE           	0730	0000	120

C:\Program Files\Microchip\xc8\v2.45\pic\sources\c99\common\fltol.c estimated size: 120

