

Microchip MPLAB XC8 Assembler V2.45 build 20230818022343 
                                                                                               Sun May 26 21:57:18 2024

Microchip MPLAB XC8 C Compiler v2.45 (Free license) build 20230818022343 Og1 
     1                           	processor	16F877A
     2                           	pagewidth 120
     3                           	opt	flic
     4                           	psect	strings,global,class=STRING,delta=2,noexec
     5                           	psect	cinit,global,class=CODE,merge=1,delta=2
     6                           	psect	bssCOMMON,global,class=COMMON,space=1,delta=1,noexec
     7                           	psect	bssBANK0,global,class=BANK0,space=1,delta=1,noexec
     8                           	psect	clrtext,global,class=CODE,delta=2
     9                           	psect	cstackCOMMON,global,class=COMMON,space=1,delta=1,noexec
    10                           	psect	cstackBANK0,global,class=BANK0,space=1,delta=1,noexec
    11                           	psect	maintext,global,class=CODE,split=1,delta=2
    12                           	psect	text1,local,class=CODE,merge=1,delta=2
    13                           	psect	text2,local,class=CODE,merge=1,delta=2
    14                           	psect	text3,local,class=CODE,merge=1,delta=2
    15                           	psect	text4,local,class=CODE,merge=1,delta=2
    16                           	psect	text5,local,class=CODE,merge=1,delta=2,group=1
    17                           	psect	text6,local,class=CODE,merge=1,delta=2,group=1
    18                           	psect	text7,local,class=CODE,merge=1,delta=2,group=1
    19                           	psect	text8,local,class=CODE,merge=1,delta=2,group=1
    20                           	psect	text9,local,class=CODE,merge=1,delta=2,group=1
    21                           	psect	text10,local,class=CODE,merge=1,delta=2,group=1
    22                           	psect	text11,local,class=CODE,merge=1,delta=2,group=1
    23                           	psect	text12,local,class=CODE,merge=1,delta=2,group=1
    24                           	psect	text13,local,class=CODE,merge=1,delta=2,group=1
    25                           	psect	text14,local,class=CODE,merge=1,delta=2
    26                           	psect	intentry,global,class=CODE,delta=2
    27                           	psect	config,global,abs,ovrld,class=CONFIG,space=4,delta=2,noexec
    28                           	dabs	1,0x7E,2
    29     0000                     
    30                           ; Generated 22/03/2023 GMT
    31                           ; 
    32                           ; Copyright © 2023, Microchip Technology Inc. and its subsidiaries ("Microchip")
    33                           ; All rights reserved.
    34                           ; 
    35                           ; This software is developed by Microchip Technology Inc. and its subsidiaries ("Microch
      +                          ip").
    36                           ; 
    37                           ; Redistribution and use in source and binary forms, with or without modification, are
    38                           ; permitted provided that the following conditions are met:
    39                           ; 
    40                           ;     1. Redistributions of source code must retain the above copyright notice, this lis
      +                          t of
    41                           ;        conditions and the following disclaimer.
    42                           ; 
    43                           ;     2. Redistributions in binary form must reproduce the above copyright notice, this 
      +                          list
    44                           ;        of conditions and the following disclaimer in the documentation and/or other
    45                           ;        materials provided with the distribution. Publication is not required when
    46                           ;        this file is used in an embedded application.
    47                           ; 
    48                           ;     3. Microchip's name may not be used to endorse or promote products derived from th
      +                          is
    49                           ;        software without specific prior written permission.
    50                           ; 
    51                           ; THIS SOFTWARE IS PROVIDED BY MICROCHIP "AS IS" AND ANY EXPRESS OR IMPLIED WARRANTIES,
    52                           ; INCLUDING, BUT NOT LIMITED TO, THE IMPLIED WARRANTIES OF MERCHANTABILITY AND FITNESS F
      +                          OR
    53                           ; PURPOSE ARE DISCLAIMED.  IN NO EVENT SHALL MICROCHIP BE LIABLE FOR ANY DIRECT, INDIREC
      +                          T,
    54                           ; INCIDENTAL, SPECIAL, EXEMPLARY, OR CONSEQUENTIAL DAMAGES (INCLUDING BUT NOT LIMITED TO
    55                           ; PROCUREMENT OF SUBSTITUTE GOODS OR SERVICES; LOSS OF USE, DATA OR PROFITS; OR BUSINESS
    56                           ; INTERRUPTION) HOWSOEVER CAUSED AND ON ANY THEORY OF LIABILITY, WHETHER IN CONTRACT, ST
      +                          RICT
    57                           ; LIABILITY, OR TORT (INCLUDING NEGLIGENCE OR OTHERWISE) ARISING IN ANY WAY OUT OF THE U
      +                          SE OF
    58                           ; THIS SOFTWARE, EVEN IF ADVISED OF THE POSSIBILITY OF SUCH DAMAGE.
    59                           ; 
    60                           ; 
    61                           ; Code-generator required, PIC16F877A Definitions
    62                           ; 
    63                           ; SFR Addresses
    64     0000                     	;# 
    65     0001                     	;# 
    66     0002                     	;# 
    67     0003                     	;# 
    68     0004                     	;# 
    69     0005                     	;# 
    70     0006                     	;# 
    71     0007                     	;# 
    72     0008                     	;# 
    73     0009                     	;# 
    74     000A                     	;# 
    75     000B                     	;# 
    76     000C                     	;# 
    77     000D                     	;# 
    78     000E                     	;# 
    79     000E                     	;# 
    80     000F                     	;# 
    81     0010                     	;# 
    82     0011                     	;# 
    83     0012                     	;# 
    84     0013                     	;# 
    85     0014                     	;# 
    86     0015                     	;# 
    87     0015                     	;# 
    88     0016                     	;# 
    89     0017                     	;# 
    90     0018                     	;# 
    91     0019                     	;# 
    92     001A                     	;# 
    93     001B                     	;# 
    94     001B                     	;# 
    95     001C                     	;# 
    96     001D                     	;# 
    97     001E                     	;# 
    98     001F                     	;# 
    99     0081                     	;# 
   100     0085                     	;# 
   101     0086                     	;# 
   102     0087                     	;# 
   103     0088                     	;# 
   104     0089                     	;# 
   105     008C                     	;# 
   106     008D                     	;# 
   107     008E                     	;# 
   108     0091                     	;# 
   109     0092                     	;# 
   110     0093                     	;# 
   111     0094                     	;# 
   112     0098                     	;# 
   113     0099                     	;# 
   114     009C                     	;# 
   115     009D                     	;# 
   116     009E                     	;# 
   117     009F                     	;# 
   118     010C                     	;# 
   119     010D                     	;# 
   120     010E                     	;# 
   121     010F                     	;# 
   122     018C                     	;# 
   123     018D                     	;# 
   124     0000                     	;# 
   125     0001                     	;# 
   126     0002                     	;# 
   127     0003                     	;# 
   128     0004                     	;# 
   129     0005                     	;# 
   130     0006                     	;# 
   131     0007                     	;# 
   132     0008                     	;# 
   133     0009                     	;# 
   134     000A                     	;# 
   135     000B                     	;# 
   136     000C                     	;# 
   137     000D                     	;# 
   138     000E                     	;# 
   139     000E                     	;# 
   140     000F                     	;# 
   141     0010                     	;# 
   142     0011                     	;# 
   143     0012                     	;# 
   144     0013                     	;# 
   145     0014                     	;# 
   146     0015                     	;# 
   147     0015                     	;# 
   148     0016                     	;# 
   149     0017                     	;# 
   150     0018                     	;# 
   151     0019                     	;# 
   152     001A                     	;# 
   153     001B                     	;# 
   154     001B                     	;# 
   155     001C                     	;# 
   156     001D                     	;# 
   157     001E                     	;# 
   158     001F                     	;# 
   159     0081                     	;# 
   160     0085                     	;# 
   161     0086                     	;# 
   162     0087                     	;# 
   163     0088                     	;# 
   164     0089                     	;# 
   165     008C                     	;# 
   166     008D                     	;# 
   167     008E                     	;# 
   168     0091                     	;# 
   169     0092                     	;# 
   170     0093                     	;# 
   171     0094                     	;# 
   172     0098                     	;# 
   173     0099                     	;# 
   174     009C                     	;# 
   175     009D                     	;# 
   176     009E                     	;# 
   177     009F                     	;# 
   178     010C                     	;# 
   179     010D                     	;# 
   180     010E                     	;# 
   181     010F                     	;# 
   182     018C                     	;# 
   183     018D                     	;# 
   184     001E                     _ADRESH	set	30
   185     000C                     _PIR1bits	set	12
   186     0006                     _PORTBbits	set	6
   187     0008                     _PORTD	set	8
   188     0007                     _PORTC	set	7
   189     001F                     _ADCON0	set	31
   190     000B                     _INTCONbits	set	11
   191     009E                     _ADRESL	set	158
   192     0088                     _TRISD	set	136
   193     0087                     _TRISC	set	135
   194     0086                     _TRISBbits	set	134
   195     009F                     _ADCON1	set	159
   196     008C                     _PIE1bits	set	140
   197                           
   198                           	psect	strings
   199     07EC                     __pstrings:
   200     07EC                     stringtab:
   201     07EC                     __stringtab:
   202     07EC                     stringcode:	
   203                           ;	String table - string pointers are 1 byte each
   204                           
   205     07EC                     stringdir:
   206     07EC  3007               	movlw	high stringdir
   207     07ED  008A               	movwf	10
   208     07EE  0804               	movf	4,w
   209     07EF  0A84               	incf	4,f
   210     07F0  0782               	addwf	2,f
   211     07F1                     __stringbase:
   212     07F1  3400               	retlw	0
   213     07F2                     __end_of__stringtab:
   214     07F2                     STR_1:
   215     07F2  3454               	retlw	84	;'T'
   216     07F3  3465               	retlw	101	;'e'
   217     07F4  346D               	retlw	109	;'m'
   218     07F5  3470               	retlw	112	;'p'
   219     07F6  3465               	retlw	101	;'e'
   220     07F7  3472               	retlw	114	;'r'
   221     07F8  3461               	retlw	97	;'a'
   222     07F9  3474               	retlw	116	;'t'
   223     07FA  3475               	retlw	117	;'u'
   224     07FB  3472               	retlw	114	;'r'
   225     07FC  3465               	retlw	101	;'e'
   226     07FD  343A               	retlw	58	;':'
   227     07FE  3420               	retlw	32	;' '
   228     07FF  3400               	retlw	0
   229                           
   230                           	psect	cinit
   231     000F                     start_initialization:	
   232                           ; #config settings
   233                           
   234     000F                     __initialization:
   235                           
   236                           ; Clear objects allocated to COMMON
   237     000F  01FA               	clrf	__pbssCOMMON& (0+127)
   238     0010  01FB               	clrf	(__pbssCOMMON+1)& (0+127)
   239                           
   240                           ; Clear objects allocated to BANK0
   241     0011  1383               	bcf	3,7	;select IRP bank0
   242     0012  3040               	movlw	low __pbssBANK0
   243     0013  0084               	movwf	4
   244     0014  3054               	movlw	low (__pbssBANK0+20)
   245     0015  120A  158A  265D  120A  118A  	fcall	clear_ram0
   246     001A                     end_of_initialization:	
   247                           ;End of C runtime variable initialization code
   248                           
   249     001A                     __end_of__initialization:
   250     001A  0183               	clrf	3
   251     001B  120A  118A  2D32   	ljmp	_main	;jump to C main() function
   252                           
   253                           	psect	bssCOMMON
   254     007A                     __pbssCOMMON:
   255     007A                     _b:
   256     007A                     	ds	2
   257                           
   258                           	psect	bssBANK0
   259     0040                     __pbssBANK0:
   260     0040                     _temperature:
   261     0040                     	ds	4
   262     0044                     _convertedAdc:
   263     0044                     	ds	4
   264     0048                     _f:
   265     0048                     	ds	2
   266     004A                     _e:
   267     004A                     	ds	2
   268     004C                     _d:
   269     004C                     	ds	2
   270     004E                     _c:
   271     004E                     	ds	2
   272     0050                     _a:
   273     0050                     	ds	2
   274     0052                     _adc:
   275     0052                     	ds	2
   276                           
   277                           	psect	clrtext
   278     0E5D                     clear_ram0:	
   279                           ;	Called with FSR containing the base address, and
   280                           ;	W with the last address+1
   281                           
   282     0E5D  0064               	clrwdt	;clear the watchdog before getting into this loop
   283     0E5E                     clrloop0:
   284     0E5E  0180               	clrf	0	;clear RAM location pointed to by FSR
   285     0E5F  0A84               	incf	4,f	;increment pointer
   286     0E60  0604               	xorwf	4,w	;XOR with final address
   287     0E61  1903               	btfsc	3,2	;have we reached the end yet?
   288     0E62  3400               	retlw	0	;all done for this memory range, return
   289     0E63  0604               	xorwf	4,w	;XOR again to restore value
   290     0E64  2E5E               	goto	clrloop0	;do the next byte
   291                           
   292                           	psect	cstackCOMMON
   293     0070                     __pcstackCOMMON:
   294     0070                     ?_lcd_initialize:
   295     0070                     ?_lcd_command:	
   296                           ; 1 bytes @ 0x0
   297                           
   298     0070                     ?_lcd_data:	
   299                           ; 1 bytes @ 0x0
   300                           
   301     0070                     ?_main:	
   302                           ; 1 bytes @ 0x0
   303                           
   304     0070                     ?_ADCConversion:	
   305                           ; 1 bytes @ 0x0
   306                           
   307     0070                     ??_ADCConversion:	
   308                           ; 1 bytes @ 0x0
   309                           
   310                           
   311                           ; 1 bytes @ 0x0
   312     0070                     	ds	2
   313     0072                     ??_lcd_command:
   314     0072                     ??_lcd_data:	
   315                           ; 1 bytes @ 0x2
   316                           
   317     0072                     ?__Umul8_16:	
   318                           ; 1 bytes @ 0x2
   319                           
   320     0072                     ?___lwdiv:	
   321                           ; 2 bytes @ 0x2
   322                           
   323     0072                     ?___lwmod:	
   324                           ; 2 bytes @ 0x2
   325                           
   326     0072                     ?___fltol:	
   327                           ; 2 bytes @ 0x2
   328                           
   329     0072                     ?___xxtofl:	
   330                           ; 4 bytes @ 0x2
   331                           
   332     0072                     __Umul8_16@multiplicand:	
   333                           ; 4 bytes @ 0x2
   334                           
   335     0072                     ___lwdiv@divisor:	
   336                           ; 1 bytes @ 0x2
   337                           
   338     0072                     ___lwmod@divisor:	
   339                           ; 2 bytes @ 0x2
   340                           
   341     0072                     ___fltol@f1:	
   342                           ; 2 bytes @ 0x2
   343                           
   344     0072                     ___xxtofl@val:	
   345                           ; 4 bytes @ 0x2
   346                           
   347                           
   348                           ; 4 bytes @ 0x2
   349     0072                     	ds	2
   350     0074                     ??__Umul8_16:
   351     0074                     lcd_data@data:	
   352                           ; 1 bytes @ 0x4
   353                           
   354     0074                     lcd_command@cmd:	
   355                           ; 1 bytes @ 0x4
   356                           
   357     0074                     ___lwdiv@dividend:	
   358                           ; 1 bytes @ 0x4
   359                           
   360     0074                     ___lwmod@dividend:	
   361                           ; 2 bytes @ 0x4
   362                           
   363                           
   364                           ; 2 bytes @ 0x4
   365     0074                     	ds	1
   366     0075                     ??_lcd_initialize:
   367     0075                     ?_lcd_string:	
   368                           ; 1 bytes @ 0x5
   369                           
   370     0075                     lcd_string@len:	
   371                           ; 1 bytes @ 0x5
   372                           
   373                           
   374                           ; 1 bytes @ 0x5
   375     0075                     	ds	1
   376     0076                     ??_lcd_string:
   377     0076                     ??___fltol:	
   378                           ; 1 bytes @ 0x6
   379                           
   380     0076                     ??___lwdiv:	
   381                           ; 1 bytes @ 0x6
   382                           
   383     0076                     ??___lwmod:	
   384                           ; 1 bytes @ 0x6
   385                           
   386     0076                     ??___xxtofl:	
   387                           ; 1 bytes @ 0x6
   388                           
   389     0076                     lcd_string@str:	
   390                           ; 1 bytes @ 0x6
   391                           
   392     0076                     ___lwmod@counter:	
   393                           ; 1 bytes @ 0x6
   394                           
   395     0076                     ___lwdiv@quotient:	
   396                           ; 1 bytes @ 0x6
   397                           
   398                           
   399                           ; 2 bytes @ 0x6
   400     0076                     	ds	1
   401     0077                     lcd_string@i:
   402                           
   403                           ; 1 bytes @ 0x7
   404     0077                     	ds	1
   405     0078                     ___lwdiv@counter:
   406                           
   407                           ; 1 bytes @ 0x8
   408     0078                     	ds	2
   409     007A                     ??_main:
   410     007A                     ??___awdiv:	
   411                           ; 1 bytes @ 0xA
   412                           
   413     007A                     ??___awmod:	
   414                           ; 1 bytes @ 0xA
   415                           
   416                           
   417                           	psect	cstackBANK0
   418     0020                     __pcstackBANK0:	
   419                           ; 1 bytes @ 0xA
   420                           
   421     0020                     ___fltol@sign1:
   422     0020                     ___xxtofl@sign:	
   423                           ; 1 bytes @ 0x0
   424                           
   425     0020                     __Umul8_16@product:	
   426                           ; 1 bytes @ 0x0
   427                           
   428                           
   429                           ; 2 bytes @ 0x0
   430     0020                     	ds	1
   431     0021                     ___fltol@exp1:
   432     0021                     ___xxtofl@exp:	
   433                           ; 1 bytes @ 0x1
   434                           
   435                           
   436                           ; 1 bytes @ 0x1
   437     0021                     	ds	1
   438     0022                     ?___awdiv:
   439     0022                     ?___awmod:	
   440                           ; 2 bytes @ 0x2
   441                           
   442     0022                     ___awdiv@divisor:	
   443                           ; 2 bytes @ 0x2
   444                           
   445     0022                     ___awmod@divisor:	
   446                           ; 2 bytes @ 0x2
   447                           
   448     0022                     __Umul8_16@word_mpld:	
   449                           ; 2 bytes @ 0x2
   450                           
   451     0022                     ___xxtofl@arg:	
   452                           ; 2 bytes @ 0x2
   453                           
   454                           
   455                           ; 4 bytes @ 0x2
   456     0022                     	ds	2
   457     0024                     __Umul8_16@multiplier:
   458     0024                     ___awdiv@dividend:	
   459                           ; 1 bytes @ 0x4
   460                           
   461     0024                     ___awmod@dividend:	
   462                           ; 2 bytes @ 0x4
   463                           
   464                           
   465                           ; 2 bytes @ 0x4
   466     0024                     	ds	1
   467     0025                     ?___flmul:
   468     0025                     ___flmul@b:	
   469                           ; 4 bytes @ 0x5
   470                           
   471                           
   472                           ; 4 bytes @ 0x5
   473     0025                     	ds	1
   474     0026                     ?___fldiv:
   475     0026                     ___awdiv@counter:	
   476                           ; 4 bytes @ 0x6
   477                           
   478     0026                     ___awmod@counter:	
   479                           ; 1 bytes @ 0x6
   480                           
   481     0026                     ___fldiv@a:	
   482                           ; 1 bytes @ 0x6
   483                           
   484                           
   485                           ; 4 bytes @ 0x6
   486     0026                     	ds	1
   487     0027                     ___awdiv@sign:
   488     0027                     ___awmod@sign:	
   489                           ; 1 bytes @ 0x7
   490                           
   491                           
   492                           ; 1 bytes @ 0x7
   493     0027                     	ds	1
   494     0028                     ___awdiv@quotient:
   495                           
   496                           ; 2 bytes @ 0x8
   497     0028                     	ds	1
   498     0029                     ___flmul@a:
   499                           
   500                           ; 4 bytes @ 0x9
   501     0029                     	ds	1
   502     002A                     ___fldiv@b:
   503                           
   504                           ; 4 bytes @ 0xA
   505     002A                     	ds	3
   506     002D                     ??___flmul:
   507                           
   508                           ; 1 bytes @ 0xD
   509     002D                     	ds	1
   510     002E                     ??___fldiv:
   511                           
   512                           ; 1 bytes @ 0xE
   513     002E                     	ds	4
   514     0032                     ___flmul@sign:
   515                           
   516                           ; 1 bytes @ 0x12
   517     0032                     	ds	1
   518     0033                     ___flmul@aexp:
   519     0033                     ___fldiv@rem:	
   520                           ; 1 bytes @ 0x13
   521                           
   522                           
   523                           ; 4 bytes @ 0x13
   524     0033                     	ds	1
   525     0034                     ___flmul@grs:
   526                           
   527                           ; 4 bytes @ 0x14
   528     0034                     	ds	3
   529     0037                     ___fldiv@sign:
   530                           
   531                           ; 1 bytes @ 0x17
   532     0037                     	ds	1
   533     0038                     ___flmul@bexp:
   534     0038                     ___fldiv@new_exp:	
   535                           ; 1 bytes @ 0x18
   536                           
   537                           
   538                           ; 2 bytes @ 0x18
   539     0038                     	ds	1
   540     0039                     ___flmul@prod:
   541                           
   542                           ; 4 bytes @ 0x19
   543     0039                     	ds	1
   544     003A                     ___fldiv@grs:
   545                           
   546                           ; 4 bytes @ 0x1A
   547     003A                     	ds	3
   548     003D                     ___flmul@temp:
   549                           
   550                           ; 2 bytes @ 0x1D
   551     003D                     	ds	1
   552     003E                     ___fldiv@bexp:
   553                           
   554                           ; 1 bytes @ 0x1E
   555     003E                     	ds	1
   556     003F                     ___fldiv@aexp:
   557                           
   558                           ; 1 bytes @ 0x1F
   559     003F                     	ds	1
   560                           
   561                           	psect	maintext
   562     0532                     __pmaintext:	
   563 ;;
   564 ;;Main: autosize = 0, tempsize = 0, incstack = 0, save=0
   565 ;;
   566 ;; *************** function _main *****************
   567 ;; Defined at:
   568 ;;		line 28 in file "main.c"
   569 ;; Parameters:    Size  Location     Type
   570 ;;		None
   571 ;; Auto vars:     Size  Location     Type
   572 ;;		None
   573 ;; Return value:  Size  Location     Type
   574 ;;                  1    wreg      void 
   575 ;; Registers used:
   576 ;;		wreg, fsr0l, fsr0h, status,2, status,0, btemp+1, pclath, cstack
   577 ;; Tracked objects:
   578 ;;		On entry : B00/0
   579 ;;		On exit  : 0/0
   580 ;;		Unchanged: 0/0
   581 ;; Data sizes:     COMMON   BANK0   BANK1   BANK3   BANK2
   582 ;;      Params:         0       0       0       0       0
   583 ;;      Locals:         0       0       0       0       0
   584 ;;      Temps:          0       0       0       0       0
   585 ;;      Totals:         0       0       0       0       0
   586 ;;Total ram usage:        0 bytes
   587 ;; Hardware stack levels required when called: 3
   588 ;; This function calls:
   589 ;;		___awdiv
   590 ;;		___awmod
   591 ;;		___fldiv
   592 ;;		___flmul
   593 ;;		___fltol
   594 ;;		___lwdiv
   595 ;;		___lwmod
   596 ;;		___xxtofl
   597 ;;		_lcd_command
   598 ;;		_lcd_data
   599 ;;		_lcd_initialize
   600 ;;		_lcd_string
   601 ;; This function is called by:
   602 ;;		Startup code after reset
   603 ;; This function uses a non-reentrant model
   604 ;;
   605                           
   606     0532                     _main:	
   607                           ;psect for function _main
   608                           
   609     0532                     l2021:	
   610                           ;incstack = 0
   611                           ; Regs used in _main: [wreg-fsr0h+status,2+status,0+btemp+1+pclath+cstack]
   612                           
   613                           
   614                           ;main.c: 29:     PORTC = PORTD = 0x00;
   615     0532  178B               	bsf	11,7	;volatile
   616                           
   617                           ;main.c: 30:     lcd_initialize();
   618     0533  170B               	bsf	11,6	;volatile
   619                           
   620                           ;main.c: 31: 
   621     0534  1683               	bsf	3,5	;RP0=1, select bank1
   622     0535  1303               	bcf	3,6	;RP1=0, select bank1
   623     0536  170C               	bsf	12,6	;volatile
   624     0537                     l2023:
   625                           
   626                           ;main.c: 33:     lcd_string("Temperature: ", 13);
   627     0537  3041               	movlw	65
   628     0538  1283               	bcf	3,5	;RP0=0, select bank0
   629     0539  1303               	bcf	3,6	;RP1=0, select bank0
   630     053A  009F               	movwf	31	;volatile
   631                           
   632                           ;main.c: 34: 
   633     053B  308E               	movlw	142
   634     053C  1683               	bsf	3,5	;RP0=1, select bank1
   635     053D  1303               	bcf	3,6	;RP1=0, select bank1
   636     053E  009F               	movwf	31	;volatile
   637     053F                     l2025:
   638                           
   639                           ;main.c: 36:         ADCON0 = ADCON0 | 0x04;
   640     053F  1006               	bcf	6,0	;volatile
   641     0540                     l2027:
   642                           
   643                           ;main.c: 37: 
   644     0540  1086               	bcf	6,1	;volatile
   645     0541                     l2029:
   646                           
   647                           ;main.c: 38:         convertedAdc = adc / 2.046;
   648     0541  1106               	bcf	6,2	;volatile
   649     0542                     l2031:
   650                           
   651                           ;main.c: 40:         a = (int)temperature % 10;
   652     0542  0187               	clrf	7	;volatile
   653     0543                     l2033:
   654                           
   655                           ;main.c: 41:         b = (int)temperature / 10;
   656     0543  0188               	clrf	8	;volatile
   657     0544                     l2035:
   658                           
   659                           ;main.c: 43:         d = b / 10;
   660     0544  1283               	bcf	3,5	;RP0=0, select bank0
   661     0545  1303               	bcf	3,6	;RP1=0, select bank0
   662     0546  0188               	clrf	8	;volatile
   663     0547  0187               	clrf	7	;volatile
   664     0548                     l2037:
   665                           
   666                           ;main.c: 44:         e = d % 10;
   667     0548  120A  158A  26A5  120A  118A  	fcall	_lcd_initialize
   668     054D                     l2039:
   669                           
   670                           ;main.c: 46: 
   671     054D  3082               	movlw	130
   672     054E  120A  158A  2665  120A  118A  	fcall	_lcd_command
   673     0553                     l2041:
   674                           
   675                           ;main.c: 47:         lcd_command(0xC5);
   676     0553  300D               	movlw	13
   677     0554  00F5               	movwf	lcd_string@len
   678     0555  3001               	movlw	(low ((STR_1-__stringbase)| (0+32768)))& (0+255)
   679     0556  120A  158A  26BE  120A  118A  	fcall	_lcd_string
   680     055B                     l2043:
   681                           
   682                           ;main.c: 50:         lcd_data(e + '0');
   683     055B  1283               	bcf	3,5	;RP0=0, select bank0
   684     055C  1303               	bcf	3,6	;RP1=0, select bank0
   685     055D  081F               	movf	31,w	;volatile
   686     055E  3804               	iorlw	4
   687     055F  009F               	movwf	31	;volatile
   688     0560                     l2045:
   689                           
   690                           ;main.c: 52:         lcd_data(c + '0');
   691     0560  3040               	movlw	64
   692     0561  00A9               	movwf	___fldiv@a+3
   693     0562  3002               	movlw	2
   694     0563  00A8               	movwf	___fldiv@a+2
   695     0564  30F1               	movlw	241
   696     0565  00A7               	movwf	___fldiv@a+1
   697     0566  30AA               	movlw	170
   698     0567  00A6               	movwf	___fldiv@a
   699     0568  0852               	movf	_adc,w
   700     0569  00F2               	movwf	___xxtofl@val
   701     056A  0853               	movf	_adc+1,w
   702     056B  00F3               	movwf	___xxtofl@val+1
   703     056C  01F4               	clrf	___xxtofl@val+2
   704     056D  01F5               	clrf	___xxtofl@val+3
   705     056E  3000               	movlw	0
   706     056F  120A  118A  2676  120A  118A  	fcall	___xxtofl
   707     0574  0875               	movf	?___xxtofl+3,w
   708     0575  1283               	bcf	3,5	;RP0=0, select bank0
   709     0576  1303               	bcf	3,6	;RP1=0, select bank0
   710     0577  00AD               	movwf	___fldiv@b+3
   711     0578  0874               	movf	?___xxtofl+2,w
   712     0579  00AC               	movwf	___fldiv@b+2
   713     057A  0873               	movf	?___xxtofl+1,w
   714     057B  00AB               	movwf	___fldiv@b+1
   715     057C  0872               	movf	?___xxtofl,w
   716     057D  00AA               	movwf	___fldiv@b
   717     057E  120A  118A  2363  120A  118A  	fcall	___fldiv
   718     0583  1283               	bcf	3,5	;RP0=0, select bank0
   719     0584  1303               	bcf	3,6	;RP1=0, select bank0
   720     0585  0829               	movf	?___fldiv+3,w
   721     0586  00C7               	movwf	_convertedAdc+3
   722     0587  0828               	movf	?___fldiv+2,w
   723     0588  00C6               	movwf	_convertedAdc+2
   724     0589  0827               	movf	?___fldiv+1,w
   725     058A  00C5               	movwf	_convertedAdc+1
   726     058B  0826               	movf	?___fldiv,w
   727     058C  00C4               	movwf	_convertedAdc
   728     058D                     l2047:
   729                           
   730                           ;main.c: 53:         lcd_data(a + '0');
   731     058D  3042               	movlw	66
   732     058E  00A8               	movwf	___flmul@b+3
   733     058F  30C8               	movlw	200
   734     0590  00A7               	movwf	___flmul@b+2
   735     0591  3000               	movlw	0
   736     0592  00A6               	movwf	___flmul@b+1
   737     0593  3000               	movlw	0
   738     0594  00A5               	movwf	___flmul@b
   739     0595  0847               	movf	_convertedAdc+3,w
   740     0596  00AC               	movwf	___flmul@a+3
   741     0597  0846               	movf	_convertedAdc+2,w
   742     0598  00AB               	movwf	___flmul@a+2
   743     0599  0845               	movf	_convertedAdc+1,w
   744     059A  00AA               	movwf	___flmul@a+1
   745     059B  0844               	movf	_convertedAdc,w
   746     059C  00A9               	movwf	___flmul@a
   747     059D  120A  118A  201E  120A  118A  	fcall	___flmul
   748     05A2  1283               	bcf	3,5	;RP0=0, select bank0
   749     05A3  1303               	bcf	3,6	;RP1=0, select bank0
   750     05A4  0828               	movf	?___flmul+3,w
   751     05A5  00C3               	movwf	_temperature+3
   752     05A6  0827               	movf	?___flmul+2,w
   753     05A7  00C2               	movwf	_temperature+2
   754     05A8  0826               	movf	?___flmul+1,w
   755     05A9  00C1               	movwf	_temperature+1
   756     05AA  0825               	movf	?___flmul,w
   757     05AB  00C0               	movwf	_temperature
   758     05AC                     l2049:
   759                           
   760                           ;main.c: 54:         lcd_data('C');
   761     05AC  300A               	movlw	10
   762     05AD  00A2               	movwf	___awmod@divisor
   763     05AE  3000               	movlw	0
   764     05AF  00A3               	movwf	___awmod@divisor+1
   765     05B0  0843               	movf	_temperature+3,w
   766     05B1  00F5               	movwf	___fltol@f1+3
   767     05B2  0842               	movf	_temperature+2,w
   768     05B3  00F4               	movwf	___fltol@f1+2
   769     05B4  0841               	movf	_temperature+1,w
   770     05B5  00F3               	movwf	___fltol@f1+1
   771     05B6  0840               	movf	_temperature,w
   772     05B7  00F2               	movwf	___fltol@f1
   773     05B8  120A  118A  2730  120A  118A  	fcall	___fltol
   774     05BD  0873               	movf	?___fltol+1,w
   775     05BE  1283               	bcf	3,5	;RP0=0, select bank0
   776     05BF  1303               	bcf	3,6	;RP1=0, select bank0
   777     05C0  00A5               	movwf	___awmod@dividend+1
   778     05C1  0872               	movf	?___fltol,w
   779     05C2  00A4               	movwf	___awmod@dividend
   780     05C3  120A  158A  273C  120A  118A  	fcall	___awmod
   781     05C8  1283               	bcf	3,5	;RP0=0, select bank0
   782     05C9  1303               	bcf	3,6	;RP1=0, select bank0
   783     05CA  0823               	movf	?___awmod+1,w
   784     05CB  00D1               	movwf	_a+1
   785     05CC  0822               	movf	?___awmod,w
   786     05CD  00D0               	movwf	_a
   787     05CE                     l2051:
   788                           
   789                           ;main.c: 55:     }
   790     05CE  300A               	movlw	10
   791     05CF  00A2               	movwf	___awdiv@divisor
   792     05D0  3000               	movlw	0
   793     05D1  00A3               	movwf	___awdiv@divisor+1
   794     05D2  0843               	movf	_temperature+3,w
   795     05D3  00F5               	movwf	___fltol@f1+3
   796     05D4  0842               	movf	_temperature+2,w
   797     05D5  00F4               	movwf	___fltol@f1+2
   798     05D6  0841               	movf	_temperature+1,w
   799     05D7  00F3               	movwf	___fltol@f1+1
   800     05D8  0840               	movf	_temperature,w
   801     05D9  00F2               	movwf	___fltol@f1
   802     05DA  120A  118A  2730  120A  118A  	fcall	___fltol
   803     05DF  0873               	movf	?___fltol+1,w
   804     05E0  1283               	bcf	3,5	;RP0=0, select bank0
   805     05E1  1303               	bcf	3,6	;RP1=0, select bank0
   806     05E2  00A5               	movwf	___awdiv@dividend+1
   807     05E3  0872               	movf	?___fltol,w
   808     05E4  00A4               	movwf	___awdiv@dividend
   809     05E5  120A  158A  2797  120A  118A  	fcall	___awdiv
   810     05EA  1283               	bcf	3,5	;RP0=0, select bank0
   811     05EB  1303               	bcf	3,6	;RP1=0, select bank0
   812     05EC  0823               	movf	?___awdiv+1,w
   813     05ED  00FB               	movwf	_b+1
   814     05EE  0822               	movf	?___awdiv,w
   815     05EF  00FA               	movwf	_b
   816     05F0                     l2053:
   817                           
   818                           ;main.c: 56: 
   819     05F0  300A               	movlw	10
   820     05F1  00F2               	movwf	___lwmod@divisor
   821     05F2  3000               	movlw	0
   822     05F3  00F3               	movwf	___lwmod@divisor+1
   823     05F4  087B               	movf	_b+1,w
   824     05F5  00F5               	movwf	___lwmod@dividend+1
   825     05F6  087A               	movf	_b,w
   826     05F7  00F4               	movwf	___lwmod@dividend
   827     05F8  120A  158A  2702  120A  118A  	fcall	___lwmod
   828     05FD  0873               	movf	?___lwmod+1,w
   829     05FE  1283               	bcf	3,5	;RP0=0, select bank0
   830     05FF  1303               	bcf	3,6	;RP1=0, select bank0
   831     0600  00CF               	movwf	_c+1
   832     0601  0872               	movf	?___lwmod,w
   833     0602  00CE               	movwf	_c
   834     0603                     l2055:
   835                           
   836                           ;main.c: 57:     return;
   837     0603  300A               	movlw	10
   838     0604  00F2               	movwf	___lwdiv@divisor
   839     0605  3000               	movlw	0
   840     0606  00F3               	movwf	___lwdiv@divisor+1
   841     0607  087B               	movf	_b+1,w
   842     0608  00F5               	movwf	___lwdiv@dividend+1
   843     0609  087A               	movf	_b,w
   844     060A  00F4               	movwf	___lwdiv@dividend
   845     060B  120A  118A  27A8  120A  118A  	fcall	___lwdiv
   846     0610  0873               	movf	?___lwdiv+1,w
   847     0611  1283               	bcf	3,5	;RP0=0, select bank0
   848     0612  1303               	bcf	3,6	;RP1=0, select bank0
   849     0613  00CD               	movwf	_d+1
   850     0614  0872               	movf	?___lwdiv,w
   851     0615  00CC               	movwf	_d
   852     0616                     l2057:
   853                           
   854                           ;main.c: 58: }
   855     0616  300A               	movlw	10
   856     0617  00F2               	movwf	___lwmod@divisor
   857     0618  3000               	movlw	0
   858     0619  00F3               	movwf	___lwmod@divisor+1
   859     061A  084D               	movf	_d+1,w
   860     061B  00F5               	movwf	___lwmod@dividend+1
   861     061C  084C               	movf	_d,w
   862     061D  00F4               	movwf	___lwmod@dividend
   863     061E  120A  158A  2702  120A  118A  	fcall	___lwmod
   864     0623  0873               	movf	?___lwmod+1,w
   865     0624  1283               	bcf	3,5	;RP0=0, select bank0
   866     0625  1303               	bcf	3,6	;RP1=0, select bank0
   867     0626  00CB               	movwf	_e+1
   868     0627  0872               	movf	?___lwmod,w
   869     0628  00CA               	movwf	_e
   870     0629                     l2059:
   871                           
   872                           ;main.c: 59: 
   873     0629  300A               	movlw	10
   874     062A  00F2               	movwf	___lwdiv@divisor
   875     062B  3000               	movlw	0
   876     062C  00F3               	movwf	___lwdiv@divisor+1
   877     062D  084D               	movf	_d+1,w
   878     062E  00F5               	movwf	___lwdiv@dividend+1
   879     062F  084C               	movf	_d,w
   880     0630  00F4               	movwf	___lwdiv@dividend
   881     0631  120A  118A  27A8  120A  118A  	fcall	___lwdiv
   882     0636  0873               	movf	?___lwdiv+1,w
   883     0637  1283               	bcf	3,5	;RP0=0, select bank0
   884     0638  1303               	bcf	3,6	;RP1=0, select bank0
   885     0639  00C9               	movwf	_f+1
   886     063A  0872               	movf	?___lwdiv,w
   887     063B  00C8               	movwf	_f
   888     063C                     l2061:
   889                           
   890                           ;main.c: 61:     lcd_command(0x38);
   891     063C  30C5               	movlw	197
   892     063D  120A  158A  2665  120A  118A  	fcall	_lcd_command
   893     0642                     l2063:
   894                           
   895                           ;main.c: 63:     lcd_command(0x0C);
   896     0642  1283               	bcf	3,5	;RP0=0, select bank0
   897     0643  1303               	bcf	3,6	;RP1=0, select bank0
   898     0644  0848               	movf	_f,w
   899     0645  3E30               	addlw	48
   900     0646  120A  158A  267A  120A  118A  	fcall	_lcd_data
   901     064B                     l2065:
   902                           
   903                           ;main.c: 64:     lcd_command(0x01);
   904     064B  1283               	bcf	3,5	;RP0=0, select bank0
   905     064C  1303               	bcf	3,6	;RP1=0, select bank0
   906     064D  084A               	movf	_e,w
   907     064E  3E30               	addlw	48
   908     064F  120A  158A  267A  120A  118A  	fcall	_lcd_data
   909     0654                     l2067:
   910                           
   911                           ;main.c: 65: }
   912     0654  302C               	movlw	44
   913     0655  120A  158A  267A  120A  118A  	fcall	_lcd_data
   914     065A                     l2069:
   915                           
   916                           ;main.c: 66: 
   917     065A  1283               	bcf	3,5	;RP0=0, select bank0
   918     065B  1303               	bcf	3,6	;RP1=0, select bank0
   919     065C  084E               	movf	_c,w
   920     065D  3E30               	addlw	48
   921     065E  120A  158A  267A  120A  118A  	fcall	_lcd_data
   922     0663                     l2071:
   923                           
   924                           ;main.c: 67: void lcd_data(unsigned char data) {
   925     0663  1283               	bcf	3,5	;RP0=0, select bank0
   926     0664  1303               	bcf	3,6	;RP1=0, select bank0
   927     0665  0850               	movf	_a,w
   928     0666  3E30               	addlw	48
   929     0667  120A  158A  267A  120A  118A  	fcall	_lcd_data
   930     066C                     l2073:
   931                           
   932                           ;main.c: 68:     PORTBbits.RB2 = 1;
   933     066C  3043               	movlw	67
   934     066D  120A  158A  267A  120A  118A  	fcall	_lcd_data
   935     0672  2D5B               	goto	l2043
   936     0673  120A  118A  280C   	ljmp	start
   937     0676                     __end_of_main:
   938                           
   939                           	psect	text1
   940     0EBE                     __ptext1:	
   941 ;; *************** function _lcd_string *****************
   942 ;; Defined at:
   943 ;;		line 90 in file "main.c"
   944 ;; Parameters:    Size  Location     Type
   945 ;;  str             1    wreg     PTR const unsigned char 
   946 ;;		 -> STR_1(14), 
   947 ;;  len             1    5[COMMON] unsigned char 
   948 ;; Auto vars:     Size  Location     Type
   949 ;;  str             1    6[COMMON] PTR const unsigned char 
   950 ;;		 -> STR_1(14), 
   951 ;;  i               1    7[COMMON] unsigned char 
   952 ;; Return value:  Size  Location     Type
   953 ;;                  1    wreg      void 
   954 ;; Registers used:
   955 ;;		wreg, fsr0l, fsr0h, status,2, status,0, btemp+1, pclath, cstack
   956 ;; Tracked objects:
   957 ;;		On entry : 0/0
   958 ;;		On exit  : 0/0
   959 ;;		Unchanged: 0/0
   960 ;; Data sizes:     COMMON   BANK0   BANK1   BANK3   BANK2
   961 ;;      Params:         1       0       0       0       0
   962 ;;      Locals:         2       0       0       0       0
   963 ;;      Temps:          0       0       0       0       0
   964 ;;      Totals:         3       0       0       0       0
   965 ;;Total ram usage:        3 bytes
   966 ;; Hardware stack levels used: 1
   967 ;; Hardware stack levels required when called: 2
   968 ;; This function calls:
   969 ;;		_lcd_data
   970 ;; This function is called by:
   971 ;;		_main
   972 ;; This function uses a non-reentrant model
   973 ;;
   974                           
   975     0EBE                     _lcd_string:	
   976                           ;psect for function _lcd_string
   977                           
   978                           
   979                           ;incstack = 0
   980                           ; Regs used in _lcd_string: [wreg-fsr0h+status,2+status,0+btemp+1+pclath+cstack]
   981                           ;lcd_string@str stored from wreg
   982     0EBE  00F6               	movwf	lcd_string@str
   983     0EBF                     l1255:
   984                           
   985                           ;main.c: 91: ;main.c: 92: void __attribute__((picinterrupt(("")))) ADCConversion() {
   986     0EBF  01F7               	clrf	lcd_string@i
   987     0EC0  2ED2               	goto	l1261
   988     0EC1                     l1257:
   989                           
   990                           ;main.c: 93:     if (PIR1bits.ADIF == 1) {
   991     0EC1  0877               	movf	lcd_string@i,w
   992     0EC2  0776               	addwf	lcd_string@str,w
   993     0EC3  0084               	movwf	4
   994     0EC4  120A  118A  27EC  120A  158A  	fcall	stringdir
   995     0EC9  120A  158A  267A  120A  158A  	fcall	_lcd_data
   996     0ECE                     l1259:
   997                           
   998                           ;main.c: 94:         adc = ((unsigned int)ADRESH << 8) + ADRESL;
   999     0ECE  3001               	movlw	1
  1000     0ECF  00FF               	movwf	btemp+1
  1001     0ED0  087F               	movf	btemp+1,w
  1002     0ED1  07F7               	addwf	lcd_string@i,f
  1003     0ED2                     l1261:
  1004     0ED2  0875               	movf	lcd_string@len,w
  1005     0ED3  0277               	subwf	lcd_string@i,w
  1006     0ED4  1C03               	skipc
  1007     0ED5  2ED7               	goto	u1311
  1008     0ED6  2ED8               	goto	u1310
  1009     0ED7                     u1311:
  1010     0ED7  2EC1               	goto	l1257
  1011     0ED8                     u1310:
  1012     0ED8                     l74:
  1013     0ED8  0008               	return
  1014     0ED9                     __end_of_lcd_string:
  1015                           
  1016                           	psect	text2
  1017     0E7A                     __ptext2:	
  1018 ;; *************** function _lcd_data *****************
  1019 ;; Defined at:
  1020 ;;		line 81 in file "main.c"
  1021 ;; Parameters:    Size  Location     Type
  1022 ;;  data            1    wreg     unsigned char 
  1023 ;; Auto vars:     Size  Location     Type
  1024 ;;  data            1    4[COMMON] unsigned char 
  1025 ;; Return value:  Size  Location     Type
  1026 ;;                  1    wreg      void 
  1027 ;; Registers used:
  1028 ;;		wreg
  1029 ;; Tracked objects:
  1030 ;;		On entry : 0/0
  1031 ;;		On exit  : 0/0
  1032 ;;		Unchanged: 0/0
  1033 ;; Data sizes:     COMMON   BANK0   BANK1   BANK3   BANK2
  1034 ;;      Params:         0       0       0       0       0
  1035 ;;      Locals:         1       0       0       0       0
  1036 ;;      Temps:          2       0       0       0       0
  1037 ;;      Totals:         3       0       0       0       0
  1038 ;;Total ram usage:        3 bytes
  1039 ;; Hardware stack levels used: 1
  1040 ;; Hardware stack levels required when called: 1
  1041 ;; This function calls:
  1042 ;;		Nothing
  1043 ;; This function is called by:
  1044 ;;		_main
  1045 ;;		_lcd_string
  1046 ;; This function uses a non-reentrant model
  1047 ;;
  1048                           
  1049     0E7A                     _lcd_data:	
  1050                           ;psect for function _lcd_data
  1051                           
  1052                           
  1053                           ;incstack = 0
  1054                           ; Regs used in _lcd_data: [wreg]
  1055                           ;lcd_data@data stored from wreg
  1056     0E7A  00F4               	movwf	lcd_data@data
  1057     0E7B                     l1233:
  1058                           
  1059                           ;main.c: 82: 
  1060     0E7B  1283               	bcf	3,5	;RP0=0, select bank0
  1061     0E7C  1303               	bcf	3,6	;RP1=0, select bank0
  1062     0E7D  1506               	bsf	6,2	;volatile
  1063                           
  1064                           ;main.c: 83: void lcd_command(unsigned char cmd) {
  1065     0E7E  1406               	bsf	6,0	;volatile
  1066                           
  1067                           ;main.c: 84:     PORTBbits.RB2 = 1;
  1068     0E7F  1086               	bcf	6,1	;volatile
  1069     0E80                     l1235:
  1070                           
  1071                           ;main.c: 85:     PORTBbits.RB0 = 0;
  1072     0E80  0874               	movf	lcd_data@data,w
  1073     0E81  0088               	movwf	8	;volatile
  1074                           
  1075                           ;main.c: 86:     PORTBbits.RB1 = 0;
  1076     0E82  3021               	movlw	33
  1077     0E83  00F3               	movwf	??_lcd_data+1
  1078     0E84  3076               	movlw	118
  1079     0E85  00F2               	movwf	??_lcd_data
  1080     0E86                     u3057:
  1081     0E86  0BF2               	decfsz	??_lcd_data,f
  1082     0E87  2E86               	goto	u3057
  1083     0E88  0BF3               	decfsz	??_lcd_data+1,f
  1084     0E89  2E86               	goto	u3057
  1085     0E8A  0000               	nop
  1086     0E8B                     l1237:
  1087                           
  1088                           ;main.c: 87:     PORTD = cmd;
  1089     0E8B  1283               	bcf	3,5	;RP0=0, select bank0
  1090     0E8C  1303               	bcf	3,6	;RP1=0, select bank0
  1091     0E8D  1106               	bcf	6,2	;volatile
  1092     0E8E                     l68:
  1093     0E8E  0008               	return
  1094     0E8F                     __end_of_lcd_data:
  1095                           
  1096                           	psect	text3
  1097     0EA5                     __ptext3:	
  1098 ;; *************** function _lcd_initialize *****************
  1099 ;; Defined at:
  1100 ;;		line 74 in file "main.c"
  1101 ;; Parameters:    Size  Location     Type
  1102 ;;		None
  1103 ;; Auto vars:     Size  Location     Type
  1104 ;;		None
  1105 ;; Return value:  Size  Location     Type
  1106 ;;                  1    wreg      void 
  1107 ;; Registers used:
  1108 ;;		wreg, status,2, status,0, pclath, cstack
  1109 ;; Tracked objects:
  1110 ;;		On entry : 0/0
  1111 ;;		On exit  : 0/0
  1112 ;;		Unchanged: 0/0
  1113 ;; Data sizes:     COMMON   BANK0   BANK1   BANK3   BANK2
  1114 ;;      Params:         0       0       0       0       0
  1115 ;;      Locals:         0       0       0       0       0
  1116 ;;      Temps:          0       0       0       0       0
  1117 ;;      Totals:         0       0       0       0       0
  1118 ;;Total ram usage:        0 bytes
  1119 ;; Hardware stack levels used: 1
  1120 ;; Hardware stack levels required when called: 2
  1121 ;; This function calls:
  1122 ;;		_lcd_command
  1123 ;; This function is called by:
  1124 ;;		_main
  1125 ;; This function uses a non-reentrant model
  1126 ;;
  1127                           
  1128     0EA5                     _lcd_initialize:	
  1129                           ;psect for function _lcd_initialize
  1130                           
  1131     0EA5                     l1253:	
  1132                           ;incstack = 0
  1133                           ; Regs used in _lcd_initialize: [wreg+status,2+status,0+pclath+cstack]
  1134                           
  1135                           
  1136                           ;main.c: 75: 
  1137     0EA5  3038               	movlw	56
  1138     0EA6  120A  158A  2665  120A  158A  	fcall	_lcd_command
  1139                           
  1140                           ;main.c: 76: void lcd_string(const unsigned char *str, unsigned char len) {
  1141     0EAB  3006               	movlw	6
  1142     0EAC  120A  158A  2665  120A  158A  	fcall	_lcd_command
  1143                           
  1144                           ;main.c: 77:     unsigned char i;
  1145     0EB1  300C               	movlw	12
  1146     0EB2  120A  158A  2665  120A  158A  	fcall	_lcd_command
  1147                           
  1148                           ;main.c: 78:     for (i=0; i<len; ++i) {
  1149     0EB7  3001               	movlw	1
  1150     0EB8  120A  158A  2665  120A  158A  	fcall	_lcd_command
  1151     0EBD                     l65:
  1152     0EBD  0008               	return
  1153     0EBE                     __end_of_lcd_initialize:
  1154                           
  1155                           	psect	text4
  1156     0E65                     __ptext4:	
  1157 ;; *************** function _lcd_command *****************
  1158 ;; Defined at:
  1159 ;;		line 97 in file "main.c"
  1160 ;; Parameters:    Size  Location     Type
  1161 ;;  cmd             1    wreg     unsigned char 
  1162 ;; Auto vars:     Size  Location     Type
  1163 ;;  cmd             1    4[COMMON] unsigned char 
  1164 ;; Return value:  Size  Location     Type
  1165 ;;                  1    wreg      void 
  1166 ;; Registers used:
  1167 ;;		wreg
  1168 ;; Tracked objects:
  1169 ;;		On entry : 0/0
  1170 ;;		On exit  : 0/0
  1171 ;;		Unchanged: 0/0
  1172 ;; Data sizes:     COMMON   BANK0   BANK1   BANK3   BANK2
  1173 ;;      Params:         0       0       0       0       0
  1174 ;;      Locals:         1       0       0       0       0
  1175 ;;      Temps:          2       0       0       0       0
  1176 ;;      Totals:         3       0       0       0       0
  1177 ;;Total ram usage:        3 bytes
  1178 ;; Hardware stack levels used: 1
  1179 ;; Hardware stack levels required when called: 1
  1180 ;; This function calls:
  1181 ;;		Nothing
  1182 ;; This function is called by:
  1183 ;;		_main
  1184 ;;		_lcd_initialize
  1185 ;; This function uses a non-reentrant model
  1186 ;;
  1187                           
  1188     0E65                     _lcd_command:	
  1189                           ;psect for function _lcd_command
  1190                           
  1191                           
  1192                           ;incstack = 0
  1193                           ; Regs used in _lcd_command: [wreg]
  1194                           ;lcd_command@cmd stored from wreg
  1195     0E65  00F4               	movwf	lcd_command@cmd
  1196     0E66                     l1227:
  1197     0E66  1283               	bcf	3,5	;RP0=0, select bank0
  1198     0E67  1303               	bcf	3,6	;RP1=0, select bank0
  1199     0E68  1506               	bsf	6,2	;volatile
  1200     0E69  1006               	bcf	6,0	;volatile
  1201     0E6A  1086               	bcf	6,1	;volatile
  1202     0E6B                     l1229:
  1203     0E6B  0874               	movf	lcd_command@cmd,w
  1204     0E6C  0088               	movwf	8	;volatile
  1205     0E6D  3021               	movlw	33
  1206     0E6E  00F3               	movwf	??_lcd_command+1
  1207     0E6F  3076               	movlw	118
  1208     0E70  00F2               	movwf	??_lcd_command
  1209     0E71                     u3067:
  1210     0E71  0BF2               	decfsz	??_lcd_command,f
  1211     0E72  2E71               	goto	u3067
  1212     0E73  0BF3               	decfsz	??_lcd_command+1,f
  1213     0E74  2E71               	goto	u3067
  1214     0E75  0000               	nop
  1215     0E76                     l1231:
  1216     0E76  1283               	bcf	3,5	;RP0=0, select bank0
  1217     0E77  1303               	bcf	3,6	;RP1=0, select bank0
  1218     0E78  1106               	bcf	6,2	;volatile
  1219     0E79                     l77:
  1220     0E79  0008               	return
  1221     0E7A                     __end_of_lcd_command:
  1222                           
  1223                           	psect	text5
  1224     0676                     __ptext5:	
  1225 ;; *************** function ___xxtofl *****************
  1226 ;; Defined at:
  1227 ;;		line 10 in file "C:\Program Files\Microchip\xc8\v2.45\pic\sources\c99\common\xxtofl.c"
  1228 ;; Parameters:    Size  Location     Type
  1229 ;;  sign            1    wreg     unsigned char 
  1230 ;;  val             4    2[COMMON] long 
  1231 ;; Auto vars:     Size  Location     Type
  1232 ;;  sign            1    0[BANK0 ] unsigned char 
  1233 ;;  arg             4    2[BANK0 ] unsigned long 
  1234 ;;  exp             1    1[BANK0 ] unsigned char 
  1235 ;; Return value:  Size  Location     Type
  1236 ;;                  4    2[COMMON] unsigned char 
  1237 ;; Registers used:
  1238 ;;		wreg, status,2, status,0, btemp+1
  1239 ;; Tracked objects:
  1240 ;;		On entry : 0/0
  1241 ;;		On exit  : 0/0
  1242 ;;		Unchanged: 0/0
  1243 ;; Data sizes:     COMMON   BANK0   BANK1   BANK3   BANK2
  1244 ;;      Params:         4       0       0       0       0
  1245 ;;      Locals:         0       6       0       0       0
  1246 ;;      Temps:          4       0       0       0       0
  1247 ;;      Totals:         8       6       0       0       0
  1248 ;;Total ram usage:       14 bytes
  1249 ;; Hardware stack levels used: 1
  1250 ;; Hardware stack levels required when called: 1
  1251 ;; This function calls:
  1252 ;;		Nothing
  1253 ;; This function is called by:
  1254 ;;		_main
  1255 ;; This function uses a non-reentrant model
  1256 ;;
  1257                           
  1258     0676                     ___xxtofl:	
  1259                           ;psect for function ___xxtofl
  1260                           
  1261                           
  1262                           ;incstack = 0
  1263                           ; Regs used in ___xxtofl: [wreg+status,2+status,0+btemp+1]
  1264                           ;___xxtofl@sign stored from wreg
  1265     0676  1283               	bcf	3,5	;RP0=0, select bank0
  1266     0677  1303               	bcf	3,6	;RP1=0, select bank0
  1267     0678  00A0               	movwf	___xxtofl@sign
  1268     0679                     l1719:
  1269     0679  0820               	movf	___xxtofl@sign,w
  1270     067A  1903               	btfsc	3,2
  1271     067B  2E7D               	goto	u2401
  1272     067C  2E7E               	goto	u2400
  1273     067D                     u2401:
  1274     067D  2E92               	goto	l1725
  1275     067E                     u2400:
  1276     067E                     l1721:
  1277     067E  1FF5               	btfss	___xxtofl@val+3,7
  1278     067F  2E81               	goto	u2411
  1279     0680  2E82               	goto	u2410
  1280     0681                     u2411:
  1281     0681  2E92               	goto	l1725
  1282     0682                     u2410:
  1283     0682                     l1723:
  1284     0682  0972               	comf	___xxtofl@val,w
  1285     0683  00A2               	movwf	___xxtofl@arg
  1286     0684  0973               	comf	___xxtofl@val+1,w
  1287     0685  00A3               	movwf	___xxtofl@arg+1
  1288     0686  0974               	comf	___xxtofl@val+2,w
  1289     0687  00A4               	movwf	___xxtofl@arg+2
  1290     0688  0975               	comf	___xxtofl@val+3,w
  1291     0689  00A5               	movwf	___xxtofl@arg+3
  1292     068A  0AA2               	incf	___xxtofl@arg,f
  1293     068B  1903               	skipnz
  1294     068C  0AA3               	incf	___xxtofl@arg+1,f
  1295     068D  1903               	skipnz
  1296     068E  0AA4               	incf	___xxtofl@arg+2,f
  1297     068F  1903               	skipnz
  1298     0690  0AA5               	incf	___xxtofl@arg+3,f
  1299     0691  2E9A               	goto	l610
  1300     0692                     l1725:
  1301     0692  0875               	movf	___xxtofl@val+3,w
  1302     0693  00A5               	movwf	___xxtofl@arg+3
  1303     0694  0874               	movf	___xxtofl@val+2,w
  1304     0695  00A4               	movwf	___xxtofl@arg+2
  1305     0696  0873               	movf	___xxtofl@val+1,w
  1306     0697  00A3               	movwf	___xxtofl@arg+1
  1307     0698  0872               	movf	___xxtofl@val,w
  1308     0699  00A2               	movwf	___xxtofl@arg
  1309     069A                     l610:
  1310     069A  0875               	movf	___xxtofl@val+3,w
  1311     069B  0474               	iorwf	___xxtofl@val+2,w
  1312     069C  0473               	iorwf	___xxtofl@val+1,w
  1313     069D  0472               	iorwf	___xxtofl@val,w
  1314     069E  1D03               	skipz
  1315     069F  2EA1               	goto	u2421
  1316     06A0  2EA2               	goto	u2420
  1317     06A1                     u2421:
  1318     06A1  2EAB               	goto	l1731
  1319     06A2                     u2420:
  1320     06A2                     l1727:
  1321     06A2  3000               	movlw	0
  1322     06A3  00F5               	movwf	?___xxtofl+3
  1323     06A4  3000               	movlw	0
  1324     06A5  00F4               	movwf	?___xxtofl+2
  1325     06A6  3000               	movlw	0
  1326     06A7  00F3               	movwf	?___xxtofl+1
  1327     06A8  3000               	movlw	0
  1328     06A9  00F2               	movwf	?___xxtofl
  1329     06AA  2F2F               	goto	l612
  1330     06AB                     l1731:
  1331     06AB  3096               	movlw	150
  1332     06AC  00A1               	movwf	___xxtofl@exp
  1333     06AD  2EBB               	goto	l1737
  1334     06AE                     l1733:
  1335     06AE  3001               	movlw	1
  1336     06AF  00FF               	movwf	btemp+1
  1337     06B0  087F               	movf	btemp+1,w
  1338     06B1  07A1               	addwf	___xxtofl@exp,f
  1339     06B2                     l1735:
  1340     06B2  3001               	movlw	1
  1341     06B3                     u2435:
  1342     06B3  1003               	clrc
  1343     06B4  0CA5               	rrf	___xxtofl@arg+3,f
  1344     06B5  0CA4               	rrf	___xxtofl@arg+2,f
  1345     06B6  0CA3               	rrf	___xxtofl@arg+1,f
  1346     06B7  0CA2               	rrf	___xxtofl@arg,f
  1347     06B8  3EFF               	addlw	-1
  1348     06B9  1D03               	skipz
  1349     06BA  2EB3               	goto	u2435
  1350     06BB                     l1737:
  1351     06BB  30FE               	movlw	254
  1352     06BC  0525               	andwf	___xxtofl@arg+3,w
  1353     06BD  1D03               	btfss	3,2
  1354     06BE  2EC0               	goto	u2441
  1355     06BF  2EC1               	goto	u2440
  1356     06C0                     u2441:
  1357     06C0  2EAE               	goto	l1733
  1358     06C1                     u2440:
  1359     06C1  2EDD               	goto	l1745
  1360     06C2                     l1739:
  1361     06C2  3001               	movlw	1
  1362     06C3  00FF               	movwf	btemp+1
  1363     06C4  087F               	movf	btemp+1,w
  1364     06C5  07A1               	addwf	___xxtofl@exp,f
  1365     06C6                     l1741:
  1366     06C6  3001               	movlw	1
  1367     06C7  07A2               	addwf	___xxtofl@arg,f
  1368     06C8  3000               	movlw	0
  1369     06C9  1803               	skipnc
  1370     06CA  3001               	movlw	1
  1371     06CB  07A3               	addwf	___xxtofl@arg+1,f
  1372     06CC  3000               	movlw	0
  1373     06CD  1803               	skipnc
  1374     06CE  3001               	movlw	1
  1375     06CF  07A4               	addwf	___xxtofl@arg+2,f
  1376     06D0  3000               	movlw	0
  1377     06D1  1803               	skipnc
  1378     06D2  3001               	movlw	1
  1379     06D3  07A5               	addwf	___xxtofl@arg+3,f
  1380     06D4                     l1743:
  1381     06D4  3001               	movlw	1
  1382     06D5                     u2455:
  1383     06D5  1003               	clrc
  1384     06D6  0CA5               	rrf	___xxtofl@arg+3,f
  1385     06D7  0CA4               	rrf	___xxtofl@arg+2,f
  1386     06D8  0CA3               	rrf	___xxtofl@arg+1,f
  1387     06D9  0CA2               	rrf	___xxtofl@arg,f
  1388     06DA  3EFF               	addlw	-1
  1389     06DB  1D03               	skipz
  1390     06DC  2ED5               	goto	u2455
  1391     06DD                     l1745:
  1392     06DD  30FF               	movlw	255
  1393     06DE  0525               	andwf	___xxtofl@arg+3,w
  1394     06DF  1D03               	btfss	3,2
  1395     06E0  2EE2               	goto	u2461
  1396     06E1  2EE3               	goto	u2460
  1397     06E2                     u2461:
  1398     06E2  2EC2               	goto	l1739
  1399     06E3                     u2460:
  1400     06E3  2EEF               	goto	l1749
  1401     06E4                     l1747:
  1402     06E4  3001               	movlw	1
  1403     06E5  02A1               	subwf	___xxtofl@exp,f
  1404     06E6  3001               	movlw	1
  1405     06E7  00F6               	movwf	??___xxtofl
  1406     06E8                     u2475:
  1407     06E8  1003               	clrc
  1408     06E9  0DA2               	rlf	___xxtofl@arg,f
  1409     06EA  0DA3               	rlf	___xxtofl@arg+1,f
  1410     06EB  0DA4               	rlf	___xxtofl@arg+2,f
  1411     06EC  0DA5               	rlf	___xxtofl@arg+3,f
  1412     06ED  0BF6               	decfsz	??___xxtofl,f
  1413     06EE  2EE8               	goto	u2475
  1414     06EF                     l1749:
  1415     06EF  1BA4               	btfsc	___xxtofl@arg+2,7
  1416     06F0  2EF2               	goto	u2481
  1417     06F1  2EF3               	goto	u2480
  1418     06F2                     u2481:
  1419     06F2  2EF9               	goto	l623
  1420     06F3                     u2480:
  1421     06F3                     l1751:
  1422     06F3  3002               	movlw	2
  1423     06F4  0221               	subwf	___xxtofl@exp,w
  1424     06F5  1803               	skipnc
  1425     06F6  2EF8               	goto	u2491
  1426     06F7  2EF9               	goto	u2490
  1427     06F8                     u2491:
  1428     06F8  2EE4               	goto	l1747
  1429     06F9                     u2490:
  1430     06F9                     l623:
  1431     06F9  1821               	btfsc	___xxtofl@exp,0
  1432     06FA  2EFC               	goto	u2501
  1433     06FB  2EFD               	goto	u2500
  1434     06FC                     u2501:
  1435     06FC  2F05               	goto	l624
  1436     06FD                     u2500:
  1437     06FD                     l1753:
  1438     06FD  30FF               	movlw	255
  1439     06FE  05A2               	andwf	___xxtofl@arg,f
  1440     06FF  30FF               	movlw	255
  1441     0700  05A3               	andwf	___xxtofl@arg+1,f
  1442     0701  307F               	movlw	127
  1443     0702  05A4               	andwf	___xxtofl@arg+2,f
  1444     0703  30FF               	movlw	255
  1445     0704  05A5               	andwf	___xxtofl@arg+3,f
  1446     0705                     l624:
  1447     0705  1003               	clrc
  1448     0706  0CA1               	rrf	___xxtofl@exp,f
  1449     0707                     l1755:
  1450     0707  0821               	movf	___xxtofl@exp,w
  1451     0708  00F6               	movwf	??___xxtofl
  1452     0709  01F7               	clrf	??___xxtofl+1
  1453     070A  01F8               	clrf	??___xxtofl+2
  1454     070B  01F9               	clrf	??___xxtofl+3
  1455     070C  3018               	movlw	24
  1456     070D                     u2515:
  1457     070D  1003               	clrc
  1458     070E  0DF6               	rlf	??___xxtofl,f
  1459     070F  0DF7               	rlf	??___xxtofl+1,f
  1460     0710  0DF8               	rlf	??___xxtofl+2,f
  1461     0711  0DF9               	rlf	??___xxtofl+3,f
  1462     0712                     u2510:
  1463     0712  3EFF               	addlw	-1
  1464     0713  1D03               	skipz
  1465     0714  2F0D               	goto	u2515
  1466     0715  0876               	movf	??___xxtofl,w
  1467     0716  04A2               	iorwf	___xxtofl@arg,f
  1468     0717  0877               	movf	??___xxtofl+1,w
  1469     0718  04A3               	iorwf	___xxtofl@arg+1,f
  1470     0719  0878               	movf	??___xxtofl+2,w
  1471     071A  04A4               	iorwf	___xxtofl@arg+2,f
  1472     071B  0879               	movf	??___xxtofl+3,w
  1473     071C  04A5               	iorwf	___xxtofl@arg+3,f
  1474     071D                     l1757:
  1475     071D  0820               	movf	___xxtofl@sign,w
  1476     071E  1903               	btfsc	3,2
  1477     071F  2F21               	goto	u2521
  1478     0720  2F22               	goto	u2520
  1479     0721                     u2521:
  1480     0721  2F27               	goto	l1763
  1481     0722                     u2520:
  1482     0722                     l1759:
  1483     0722  1FF5               	btfss	___xxtofl@val+3,7
  1484     0723  2F25               	goto	u2531
  1485     0724  2F26               	goto	u2530
  1486     0725                     u2531:
  1487     0725  2F27               	goto	l1763
  1488     0726                     u2530:
  1489     0726                     l1761:
  1490     0726  17A5               	bsf	___xxtofl@arg+3,7
  1491     0727                     l1763:
  1492     0727  0825               	movf	___xxtofl@arg+3,w
  1493     0728  00F5               	movwf	?___xxtofl+3
  1494     0729  0824               	movf	___xxtofl@arg+2,w
  1495     072A  00F4               	movwf	?___xxtofl+2
  1496     072B  0823               	movf	___xxtofl@arg+1,w
  1497     072C  00F3               	movwf	?___xxtofl+1
  1498     072D  0822               	movf	___xxtofl@arg,w
  1499     072E  00F2               	movwf	?___xxtofl
  1500     072F                     l612:
  1501     072F  0008               	return
  1502     0730                     __end_of___xxtofl:
  1503                           
  1504                           	psect	text6
  1505     0F02                     __ptext6:	
  1506 ;; *************** function ___lwmod *****************
  1507 ;; Defined at:
  1508 ;;		line 5 in file "C:\Program Files\Microchip\xc8\v2.45\pic\sources\c99\common\lwmod.c"
  1509 ;; Parameters:    Size  Location     Type
  1510 ;;  divisor         2    2[COMMON] unsigned int 
  1511 ;;  dividend        2    4[COMMON] unsigned int 
  1512 ;; Auto vars:     Size  Location     Type
  1513 ;;  counter         1    6[COMMON] unsigned char 
  1514 ;; Return value:  Size  Location     Type
  1515 ;;                  2    2[COMMON] unsigned int 
  1516 ;; Registers used:
  1517 ;;		wreg, status,2, status,0, btemp+1
  1518 ;; Tracked objects:
  1519 ;;		On entry : 0/0
  1520 ;;		On exit  : 0/0
  1521 ;;		Unchanged: 0/0
  1522 ;; Data sizes:     COMMON   BANK0   BANK1   BANK3   BANK2
  1523 ;;      Params:         4       0       0       0       0
  1524 ;;      Locals:         1       0       0       0       0
  1525 ;;      Temps:          0       0       0       0       0
  1526 ;;      Totals:         5       0       0       0       0
  1527 ;;Total ram usage:        5 bytes
  1528 ;; Hardware stack levels used: 1
  1529 ;; Hardware stack levels required when called: 1
  1530 ;; This function calls:
  1531 ;;		Nothing
  1532 ;; This function is called by:
  1533 ;;		_main
  1534 ;; This function uses a non-reentrant model
  1535 ;;
  1536                           
  1537     0F02                     ___lwmod:	
  1538                           ;psect for function ___lwmod
  1539                           
  1540     0F02                     l1409:	
  1541                           ;incstack = 0
  1542                           ; Regs used in ___lwmod: [wreg+status,2+status,0+btemp+1]
  1543                           
  1544     0F02  0872               	movf	___lwmod@divisor,w
  1545     0F03  0473               	iorwf	___lwmod@divisor+1,w
  1546     0F04  1903               	btfsc	3,2
  1547     0F05  2F07               	goto	u1681
  1548     0F06  2F08               	goto	u1680
  1549     0F07                     u1681:
  1550     0F07  2F37               	goto	l1427
  1551     0F08                     u1680:
  1552     0F08                     l1411:
  1553     0F08  01F6               	clrf	___lwmod@counter
  1554     0F09  0AF6               	incf	___lwmod@counter,f
  1555     0F0A  2F16               	goto	l1417
  1556     0F0B                     l1413:
  1557     0F0B  3001               	movlw	1
  1558     0F0C                     u1695:
  1559     0F0C  1003               	clrc
  1560     0F0D  0DF2               	rlf	___lwmod@divisor,f
  1561     0F0E  0DF3               	rlf	___lwmod@divisor+1,f
  1562     0F0F  3EFF               	addlw	-1
  1563     0F10  1D03               	skipz
  1564     0F11  2F0C               	goto	u1695
  1565     0F12                     l1415:
  1566     0F12  3001               	movlw	1
  1567     0F13  00FF               	movwf	btemp+1
  1568     0F14  087F               	movf	btemp+1,w
  1569     0F15  07F6               	addwf	___lwmod@counter,f
  1570     0F16                     l1417:
  1571     0F16  1FF3               	btfss	___lwmod@divisor+1,7
  1572     0F17  2F19               	goto	u1701
  1573     0F18  2F1A               	goto	u1700
  1574     0F19                     u1701:
  1575     0F19  2F0B               	goto	l1413
  1576     0F1A                     u1700:
  1577     0F1A                     l1419:
  1578     0F1A  0873               	movf	___lwmod@divisor+1,w
  1579     0F1B  0275               	subwf	___lwmod@dividend+1,w
  1580     0F1C  1D03               	skipz
  1581     0F1D  2F20               	goto	u1715
  1582     0F1E  0872               	movf	___lwmod@divisor,w
  1583     0F1F  0274               	subwf	___lwmod@dividend,w
  1584     0F20                     u1715:
  1585     0F20  1C03               	skipc
  1586     0F21  2F23               	goto	u1711
  1587     0F22  2F24               	goto	u1710
  1588     0F23                     u1711:
  1589     0F23  2F2A               	goto	l1423
  1590     0F24                     u1710:
  1591     0F24                     l1421:
  1592     0F24  0872               	movf	___lwmod@divisor,w
  1593     0F25  02F4               	subwf	___lwmod@dividend,f
  1594     0F26  0873               	movf	___lwmod@divisor+1,w
  1595     0F27  1C03               	skipc
  1596     0F28  03F5               	decf	___lwmod@dividend+1,f
  1597     0F29  02F5               	subwf	___lwmod@dividend+1,f
  1598     0F2A                     l1423:
  1599     0F2A  3001               	movlw	1
  1600     0F2B                     u1725:
  1601     0F2B  1003               	clrc
  1602     0F2C  0CF3               	rrf	___lwmod@divisor+1,f
  1603     0F2D  0CF2               	rrf	___lwmod@divisor,f
  1604     0F2E  3EFF               	addlw	-1
  1605     0F2F  1D03               	skipz
  1606     0F30  2F2B               	goto	u1725
  1607     0F31                     l1425:
  1608     0F31  3001               	movlw	1
  1609     0F32  02F6               	subwf	___lwmod@counter,f
  1610     0F33  1D03               	btfss	3,2
  1611     0F34  2F36               	goto	u1731
  1612     0F35  2F37               	goto	u1730
  1613     0F36                     u1731:
  1614     0F36  2F1A               	goto	l1419
  1615     0F37                     u1730:
  1616     0F37                     l1427:
  1617     0F37  0875               	movf	___lwmod@dividend+1,w
  1618     0F38  00F3               	movwf	?___lwmod+1
  1619     0F39  0874               	movf	___lwmod@dividend,w
  1620     0F3A  00F2               	movwf	?___lwmod
  1621     0F3B                     l459:
  1622     0F3B  0008               	return
  1623     0F3C                     __end_of___lwmod:
  1624                           
  1625                           	psect	text7
  1626     07A8                     __ptext7:	
  1627 ;; *************** function ___lwdiv *****************
  1628 ;; Defined at:
  1629 ;;		line 5 in file "C:\Program Files\Microchip\xc8\v2.45\pic\sources\c99\common\lwdiv.c"
  1630 ;; Parameters:    Size  Location     Type
  1631 ;;  divisor         2    2[COMMON] unsigned int 
  1632 ;;  dividend        2    4[COMMON] unsigned int 
  1633 ;; Auto vars:     Size  Location     Type
  1634 ;;  quotient        2    6[COMMON] unsigned int 
  1635 ;;  counter         1    8[COMMON] unsigned char 
  1636 ;; Return value:  Size  Location     Type
  1637 ;;                  2    2[COMMON] unsigned int 
  1638 ;; Registers used:
  1639 ;;		wreg, status,2, status,0, btemp+1
  1640 ;; Tracked objects:
  1641 ;;		On entry : 0/0
  1642 ;;		On exit  : 0/0
  1643 ;;		Unchanged: 0/0
  1644 ;; Data sizes:     COMMON   BANK0   BANK1   BANK3   BANK2
  1645 ;;      Params:         4       0       0       0       0
  1646 ;;      Locals:         3       0       0       0       0
  1647 ;;      Temps:          0       0       0       0       0
  1648 ;;      Totals:         7       0       0       0       0
  1649 ;;Total ram usage:        7 bytes
  1650 ;; Hardware stack levels used: 1
  1651 ;; Hardware stack levels required when called: 1
  1652 ;; This function calls:
  1653 ;;		Nothing
  1654 ;; This function is called by:
  1655 ;;		_main
  1656 ;; This function uses a non-reentrant model
  1657 ;;
  1658                           
  1659     07A8                     ___lwdiv:	
  1660                           ;psect for function ___lwdiv
  1661                           
  1662     07A8                     l1383:	
  1663                           ;incstack = 0
  1664                           ; Regs used in ___lwdiv: [wreg+status,2+status,0+btemp+1]
  1665                           
  1666     07A8  01F6               	clrf	___lwdiv@quotient
  1667     07A9  01F7               	clrf	___lwdiv@quotient+1
  1668     07AA                     l1385:
  1669     07AA  0872               	movf	___lwdiv@divisor,w
  1670     07AB  0473               	iorwf	___lwdiv@divisor+1,w
  1671     07AC  1903               	btfsc	3,2
  1672     07AD  2FAF               	goto	u1611
  1673     07AE  2FB0               	goto	u1610
  1674     07AF                     u1611:
  1675     07AF  2FE7               	goto	l1405
  1676     07B0                     u1610:
  1677     07B0                     l1387:
  1678     07B0  01F8               	clrf	___lwdiv@counter
  1679     07B1  0AF8               	incf	___lwdiv@counter,f
  1680     07B2  2FBE               	goto	l1393
  1681     07B3                     l1389:
  1682     07B3  3001               	movlw	1
  1683     07B4                     u1625:
  1684     07B4  1003               	clrc
  1685     07B5  0DF2               	rlf	___lwdiv@divisor,f
  1686     07B6  0DF3               	rlf	___lwdiv@divisor+1,f
  1687     07B7  3EFF               	addlw	-1
  1688     07B8  1D03               	skipz
  1689     07B9  2FB4               	goto	u1625
  1690     07BA                     l1391:
  1691     07BA  3001               	movlw	1
  1692     07BB  00FF               	movwf	btemp+1
  1693     07BC  087F               	movf	btemp+1,w
  1694     07BD  07F8               	addwf	___lwdiv@counter,f
  1695     07BE                     l1393:
  1696     07BE  1FF3               	btfss	___lwdiv@divisor+1,7
  1697     07BF  2FC1               	goto	u1631
  1698     07C0  2FC2               	goto	u1630
  1699     07C1                     u1631:
  1700     07C1  2FB3               	goto	l1389
  1701     07C2                     u1630:
  1702     07C2                     l1395:
  1703     07C2  3001               	movlw	1
  1704     07C3                     u1645:
  1705     07C3  1003               	clrc
  1706     07C4  0DF6               	rlf	___lwdiv@quotient,f
  1707     07C5  0DF7               	rlf	___lwdiv@quotient+1,f
  1708     07C6  3EFF               	addlw	-1
  1709     07C7  1D03               	skipz
  1710     07C8  2FC3               	goto	u1645
  1711     07C9  0873               	movf	___lwdiv@divisor+1,w
  1712     07CA  0275               	subwf	___lwdiv@dividend+1,w
  1713     07CB  1D03               	skipz
  1714     07CC  2FCF               	goto	u1655
  1715     07CD  0872               	movf	___lwdiv@divisor,w
  1716     07CE  0274               	subwf	___lwdiv@dividend,w
  1717     07CF                     u1655:
  1718     07CF  1C03               	skipc
  1719     07D0  2FD2               	goto	u1651
  1720     07D1  2FD3               	goto	u1650
  1721     07D2                     u1651:
  1722     07D2  2FDA               	goto	l1401
  1723     07D3                     u1650:
  1724     07D3                     l1397:
  1725     07D3  0872               	movf	___lwdiv@divisor,w
  1726     07D4  02F4               	subwf	___lwdiv@dividend,f
  1727     07D5  0873               	movf	___lwdiv@divisor+1,w
  1728     07D6  1C03               	skipc
  1729     07D7  03F5               	decf	___lwdiv@dividend+1,f
  1730     07D8  02F5               	subwf	___lwdiv@dividend+1,f
  1731     07D9                     l1399:
  1732     07D9  1476               	bsf	___lwdiv@quotient,0
  1733     07DA                     l1401:
  1734     07DA  3001               	movlw	1
  1735     07DB                     u1665:
  1736     07DB  1003               	clrc
  1737     07DC  0CF3               	rrf	___lwdiv@divisor+1,f
  1738     07DD  0CF2               	rrf	___lwdiv@divisor,f
  1739     07DE  3EFF               	addlw	-1
  1740     07DF  1D03               	skipz
  1741     07E0  2FDB               	goto	u1665
  1742     07E1                     l1403:
  1743     07E1  3001               	movlw	1
  1744     07E2  02F8               	subwf	___lwdiv@counter,f
  1745     07E3  1D03               	btfss	3,2
  1746     07E4  2FE6               	goto	u1671
  1747     07E5  2FE7               	goto	u1670
  1748     07E6                     u1671:
  1749     07E6  2FC2               	goto	l1395
  1750     07E7                     u1670:
  1751     07E7                     l1405:
  1752     07E7  0877               	movf	___lwdiv@quotient+1,w
  1753     07E8  00F3               	movwf	?___lwdiv+1
  1754     07E9  0876               	movf	___lwdiv@quotient,w
  1755     07EA  00F2               	movwf	?___lwdiv
  1756     07EB                     l449:
  1757     07EB  0008               	return
  1758     07EC                     __end_of___lwdiv:
  1759                           
  1760                           	psect	text8
  1761     0730                     __ptext8:	
  1762 ;; *************** function ___fltol *****************
  1763 ;; Defined at:
  1764 ;;		line 43 in file "C:\Program Files\Microchip\xc8\v2.45\pic\sources\c99\common\fltol.c"
  1765 ;; Parameters:    Size  Location     Type
  1766 ;;  f1              4    2[COMMON] unsigned int 
  1767 ;; Auto vars:     Size  Location     Type
  1768 ;;  exp1            1    1[BANK0 ] unsigned char 
  1769 ;;  sign1           1    0[BANK0 ] unsigned char 
  1770 ;; Return value:  Size  Location     Type
  1771 ;;                  4    2[COMMON] long 
  1772 ;; Registers used:
  1773 ;;		wreg, status,2, status,0, btemp+1
  1774 ;; Tracked objects:
  1775 ;;		On entry : 0/0
  1776 ;;		On exit  : 0/0
  1777 ;;		Unchanged: 0/0
  1778 ;; Data sizes:     COMMON   BANK0   BANK1   BANK3   BANK2
  1779 ;;      Params:         4       0       0       0       0
  1780 ;;      Locals:         0       2       0       0       0
  1781 ;;      Temps:          4       0       0       0       0
  1782 ;;      Totals:         8       2       0       0       0
  1783 ;;Total ram usage:       10 bytes
  1784 ;; Hardware stack levels used: 1
  1785 ;; Hardware stack levels required when called: 1
  1786 ;; This function calls:
  1787 ;;		Nothing
  1788 ;; This function is called by:
  1789 ;;		_main
  1790 ;; This function uses a non-reentrant model
  1791 ;;
  1792                           
  1793     0730                     ___fltol:	
  1794                           ;psect for function ___fltol
  1795                           
  1796     0730                     l1841:	
  1797                           ;incstack = 0
  1798                           ; Regs used in ___fltol: [wreg+status,2+status,0+btemp+1]
  1799                           
  1800     0730  1003               	clrc
  1801     0731  0D74               	rlf	___fltol@f1+2,w
  1802     0732  0D75               	rlf	___fltol@f1+3,w
  1803     0733  1283               	bcf	3,5	;RP0=0, select bank0
  1804     0734  1303               	bcf	3,6	;RP1=0, select bank0
  1805     0735  00A1               	movwf	___fltol@exp1
  1806     0736  0821               	movf	___fltol@exp1,w
  1807     0737  1D03               	btfss	3,2
  1808     0738  2F3A               	goto	u2581
  1809     0739  2F3B               	goto	u2580
  1810     073A                     u2581:
  1811     073A  2F44               	goto	l1847
  1812     073B                     u2580:
  1813     073B                     l1843:
  1814     073B  3000               	movlw	0
  1815     073C  00F5               	movwf	?___fltol+3
  1816     073D  3000               	movlw	0
  1817     073E  00F4               	movwf	?___fltol+2
  1818     073F  3000               	movlw	0
  1819     0740  00F3               	movwf	?___fltol+1
  1820     0741  3000               	movlw	0
  1821     0742  00F2               	movwf	?___fltol
  1822     0743  2FA7               	goto	l363
  1823     0744                     l1847:
  1824     0744  0872               	movf	___fltol@f1,w
  1825     0745  00F6               	movwf	??___fltol
  1826     0746  0873               	movf	___fltol@f1+1,w
  1827     0747  00F7               	movwf	??___fltol+1
  1828     0748  0874               	movf	___fltol@f1+2,w
  1829     0749  00F8               	movwf	??___fltol+2
  1830     074A  0875               	movf	___fltol@f1+3,w
  1831     074B  00F9               	movwf	??___fltol+3
  1832     074C  301F               	movlw	31
  1833     074D                     u2595:
  1834     074D  1003               	clrc
  1835     074E  0CF9               	rrf	??___fltol+3,f
  1836     074F  0CF8               	rrf	??___fltol+2,f
  1837     0750  0CF7               	rrf	??___fltol+1,f
  1838     0751  0CF6               	rrf	??___fltol,f
  1839     0752                     u2590:
  1840     0752  3EFF               	addlw	-1
  1841     0753  1D03               	skipz
  1842     0754  2F4D               	goto	u2595
  1843     0755  0876               	movf	??___fltol,w
  1844     0756  00A0               	movwf	___fltol@sign1
  1845     0757                     l1849:
  1846     0757  17F4               	bsf	___fltol@f1+2,7
  1847     0758                     l1851:
  1848     0758  30FF               	movlw	255
  1849     0759  05F2               	andwf	___fltol@f1,f
  1850     075A  30FF               	movlw	255
  1851     075B  05F3               	andwf	___fltol@f1+1,f
  1852     075C  30FF               	movlw	255
  1853     075D  05F4               	andwf	___fltol@f1+2,f
  1854     075E  3000               	movlw	0
  1855     075F  05F5               	andwf	___fltol@f1+3,f
  1856     0760                     l1853:
  1857     0760  3096               	movlw	150
  1858     0761  02A1               	subwf	___fltol@exp1,f
  1859     0762                     l1855:
  1860     0762  1FA1               	btfss	___fltol@exp1,7
  1861     0763  2F65               	goto	u2601
  1862     0764  2F66               	goto	u2600
  1863     0765                     u2601:
  1864     0765  2F80               	goto	l1867
  1865     0766                     u2600:
  1866     0766                     l1857:
  1867     0766  0821               	movf	___fltol@exp1,w
  1868     0767  3A80               	xorlw	128
  1869     0768  3E97               	addlw	151
  1870     0769  1803               	skipnc
  1871     076A  2F6C               	goto	u2611
  1872     076B  2F6D               	goto	u2610
  1873     076C                     u2611:
  1874     076C  2F6E               	goto	l1863
  1875     076D                     u2610:
  1876     076D  2F3B               	goto	l1843
  1877     076E                     l1863:
  1878     076E  3001               	movlw	1
  1879     076F                     u2625:
  1880     076F  1003               	clrc
  1881     0770  0CF5               	rrf	___fltol@f1+3,f
  1882     0771  0CF4               	rrf	___fltol@f1+2,f
  1883     0772  0CF3               	rrf	___fltol@f1+1,f
  1884     0773  0CF2               	rrf	___fltol@f1,f
  1885     0774  3EFF               	addlw	-1
  1886     0775  1D03               	skipz
  1887     0776  2F6F               	goto	u2625
  1888     0777                     l1865:
  1889     0777  3001               	movlw	1
  1890     0778  00FF               	movwf	btemp+1
  1891     0779  087F               	movf	btemp+1,w
  1892     077A  07A1               	addwf	___fltol@exp1,f
  1893     077B  1D03               	btfss	3,2
  1894     077C  2F7E               	goto	u2631
  1895     077D  2F7F               	goto	u2630
  1896     077E                     u2631:
  1897     077E  2F6E               	goto	l1863
  1898     077F                     u2630:
  1899     077F  2F97               	goto	l1875
  1900     0780                     l1867:
  1901     0780  3020               	movlw	32
  1902     0781  0221               	subwf	___fltol@exp1,w
  1903     0782  1C03               	skipc
  1904     0783  2F85               	goto	u2641
  1905     0784  2F86               	goto	u2640
  1906     0785                     u2641:
  1907     0785  2F92               	goto	l370
  1908     0786                     u2640:
  1909     0786  2F3B               	goto	l1843
  1910     0787                     l1873:
  1911     0787  3001               	movlw	1
  1912     0788  00F6               	movwf	??___fltol
  1913     0789                     u2655:
  1914     0789  1003               	clrc
  1915     078A  0DF2               	rlf	___fltol@f1,f
  1916     078B  0DF3               	rlf	___fltol@f1+1,f
  1917     078C  0DF4               	rlf	___fltol@f1+2,f
  1918     078D  0DF5               	rlf	___fltol@f1+3,f
  1919     078E  0BF6               	decfsz	??___fltol,f
  1920     078F  2F89               	goto	u2655
  1921     0790  3001               	movlw	1
  1922     0791  02A1               	subwf	___fltol@exp1,f
  1923     0792                     l370:
  1924     0792  0821               	movf	___fltol@exp1,w
  1925     0793  1D03               	btfss	3,2
  1926     0794  2F96               	goto	u2661
  1927     0795  2F97               	goto	u2660
  1928     0796                     u2661:
  1929     0796  2F87               	goto	l1873
  1930     0797                     u2660:
  1931     0797                     l1875:
  1932     0797  0820               	movf	___fltol@sign1,w
  1933     0798  1903               	btfsc	3,2
  1934     0799  2F9B               	goto	u2671
  1935     079A  2F9C               	goto	u2670
  1936     079B                     u2671:
  1937     079B  2FA7               	goto	l373
  1938     079C                     u2670:
  1939     079C                     l1877:
  1940     079C  09F2               	comf	___fltol@f1,f
  1941     079D  09F3               	comf	___fltol@f1+1,f
  1942     079E  09F4               	comf	___fltol@f1+2,f
  1943     079F  09F5               	comf	___fltol@f1+3,f
  1944     07A0  0AF2               	incf	___fltol@f1,f
  1945     07A1  1903               	skipnz
  1946     07A2  0AF3               	incf	___fltol@f1+1,f
  1947     07A3  1903               	skipnz
  1948     07A4  0AF4               	incf	___fltol@f1+2,f
  1949     07A5  1903               	skipnz
  1950     07A6  0AF5               	incf	___fltol@f1+3,f
  1951     07A7                     l373:
  1952     07A7                     l363:
  1953     07A7  0008               	return
  1954     07A8                     __end_of___fltol:
  1955                           
  1956                           	psect	text9
  1957     001E                     __ptext9:	
  1958 ;; *************** function ___flmul *****************
  1959 ;; Defined at:
  1960 ;;		line 8 in file "C:\Program Files\Microchip\xc8\v2.45\pic\sources\c99\common\sprcmul.c"
  1961 ;; Parameters:    Size  Location     Type
  1962 ;;  b               4    5[BANK0 ] long 
  1963 ;;  a               4    9[BANK0 ] long 
  1964 ;; Auto vars:     Size  Location     Type
  1965 ;;  prod            4   25[BANK0 ] struct .
  1966 ;;  grs             4   20[BANK0 ] unsigned long 
  1967 ;;  temp            2   29[BANK0 ] struct .
  1968 ;;  bexp            1   24[BANK0 ] unsigned char 
  1969 ;;  aexp            1   19[BANK0 ] unsigned char 
  1970 ;;  sign            1   18[BANK0 ] unsigned char 
  1971 ;; Return value:  Size  Location     Type
  1972 ;;                  4    5[BANK0 ] unsigned char 
  1973 ;; Registers used:
  1974 ;;		wreg, status,2, status,0, btemp+1, pclath, cstack
  1975 ;; Tracked objects:
  1976 ;;		On entry : 0/0
  1977 ;;		On exit  : 0/0
  1978 ;;		Unchanged: 0/0
  1979 ;; Data sizes:     COMMON   BANK0   BANK1   BANK3   BANK2
  1980 ;;      Params:         0       8       0       0       0
  1981 ;;      Locals:         0      13       0       0       0
  1982 ;;      Temps:          0       5       0       0       0
  1983 ;;      Totals:         0      26       0       0       0
  1984 ;;Total ram usage:       26 bytes
  1985 ;; Hardware stack levels used: 1
  1986 ;; Hardware stack levels required when called: 2
  1987 ;; This function calls:
  1988 ;;		__Umul8_16
  1989 ;; This function is called by:
  1990 ;;		_main
  1991 ;; This function uses a non-reentrant model
  1992 ;;
  1993                           
  1994     001E                     ___flmul:	
  1995                           ;psect for function ___flmul
  1996                           
  1997     001E                     l1879:	
  1998                           ;incstack = 0
  1999                           ; Regs used in ___flmul: [wreg+status,2+status,0+btemp+1+pclath+cstack]
  2000                           
  2001     001E  1283               	bcf	3,5	;RP0=0, select bank0
  2002     001F  1303               	bcf	3,6	;RP1=0, select bank0
  2003     0020  0828               	movf	___flmul@b+3,w
  2004     0021  3980               	andlw	128
  2005     0022  00B2               	movwf	___flmul@sign
  2006     0023                     l1881:
  2007     0023  0828               	movf	___flmul@b+3,w
  2008     0024  00AD               	movwf	??___flmul
  2009     0025  072D               	addwf	??___flmul,w
  2010     0026  00B8               	movwf	___flmul@bexp
  2011     0027                     l1883:
  2012     0027  1FA7               	btfss	___flmul@b+2,7
  2013     0028  282A               	goto	u2681
  2014     0029  282B               	goto	u2680
  2015     002A                     u2681:
  2016     002A  282C               	goto	l1887
  2017     002B                     u2680:
  2018     002B                     l1885:
  2019     002B  1438               	bsf	___flmul@bexp,0
  2020     002C                     l1887:
  2021     002C  0838               	movf	___flmul@bexp,w
  2022     002D  1903               	btfsc	3,2
  2023     002E  2830               	goto	u2691
  2024     002F  2831               	goto	u2690
  2025     0030                     u2691:
  2026     0030  2840               	goto	l1895
  2027     0031                     u2690:
  2028     0031                     l1889:
  2029     0031  0A38               	incf	___flmul@bexp,w
  2030     0032  1D03               	btfss	3,2
  2031     0033  2835               	goto	u2701
  2032     0034  2836               	goto	u2700
  2033     0035                     u2701:
  2034     0035  283E               	goto	l1893
  2035     0036                     u2700:
  2036     0036                     l1891:
  2037     0036  3000               	movlw	0
  2038     0037  00A8               	movwf	___flmul@b+3
  2039     0038  3000               	movlw	0
  2040     0039  00A7               	movwf	___flmul@b+2
  2041     003A  3000               	movlw	0
  2042     003B  00A6               	movwf	___flmul@b+1
  2043     003C  3000               	movlw	0
  2044     003D  00A5               	movwf	___flmul@b
  2045     003E                     l1893:
  2046     003E  17A7               	bsf	___flmul@b+2,7
  2047     003F  2848               	goto	l1897
  2048     0040                     l1895:
  2049     0040  3000               	movlw	0
  2050     0041  00A8               	movwf	___flmul@b+3
  2051     0042  3000               	movlw	0
  2052     0043  00A7               	movwf	___flmul@b+2
  2053     0044  3000               	movlw	0
  2054     0045  00A6               	movwf	___flmul@b+1
  2055     0046  3000               	movlw	0
  2056     0047  00A5               	movwf	___flmul@b
  2057     0048                     l1897:
  2058     0048  082C               	movf	___flmul@a+3,w
  2059     0049  3980               	andlw	128
  2060     004A  00FF               	movwf	btemp+1
  2061     004B  087F               	movf	btemp+1,w
  2062     004C  06B2               	xorwf	___flmul@sign,f
  2063     004D                     l1899:
  2064     004D  082C               	movf	___flmul@a+3,w
  2065     004E  00AD               	movwf	??___flmul
  2066     004F  072D               	addwf	??___flmul,w
  2067     0050  00B3               	movwf	___flmul@aexp
  2068     0051                     l1901:
  2069     0051  1FAB               	btfss	___flmul@a+2,7
  2070     0052  2854               	goto	u2711
  2071     0053  2855               	goto	u2710
  2072     0054                     u2711:
  2073     0054  2856               	goto	l1905
  2074     0055                     u2710:
  2075     0055                     l1903:
  2076     0055  1433               	bsf	___flmul@aexp,0
  2077     0056                     l1905:
  2078     0056  0833               	movf	___flmul@aexp,w
  2079     0057  1903               	btfsc	3,2
  2080     0058  285A               	goto	u2721
  2081     0059  285B               	goto	u2720
  2082     005A                     u2721:
  2083     005A  286A               	goto	l1913
  2084     005B                     u2720:
  2085     005B                     l1907:
  2086     005B  0A33               	incf	___flmul@aexp,w
  2087     005C  1D03               	btfss	3,2
  2088     005D  285F               	goto	u2731
  2089     005E  2860               	goto	u2730
  2090     005F                     u2731:
  2091     005F  2868               	goto	l1911
  2092     0060                     u2730:
  2093     0060                     l1909:
  2094     0060  3000               	movlw	0
  2095     0061  00AC               	movwf	___flmul@a+3
  2096     0062  3000               	movlw	0
  2097     0063  00AB               	movwf	___flmul@a+2
  2098     0064  3000               	movlw	0
  2099     0065  00AA               	movwf	___flmul@a+1
  2100     0066  3000               	movlw	0
  2101     0067  00A9               	movwf	___flmul@a
  2102     0068                     l1911:
  2103     0068  17AB               	bsf	___flmul@a+2,7
  2104     0069  2872               	goto	l1915
  2105     006A                     l1913:
  2106     006A  3000               	movlw	0
  2107     006B  00AC               	movwf	___flmul@a+3
  2108     006C  3000               	movlw	0
  2109     006D  00AB               	movwf	___flmul@a+2
  2110     006E  3000               	movlw	0
  2111     006F  00AA               	movwf	___flmul@a+1
  2112     0070  3000               	movlw	0
  2113     0071  00A9               	movwf	___flmul@a
  2114     0072                     l1915:
  2115     0072  0833               	movf	___flmul@aexp,w
  2116     0073  1903               	btfsc	3,2
  2117     0074  2876               	goto	u2741
  2118     0075  2877               	goto	u2740
  2119     0076                     u2741:
  2120     0076  287C               	goto	l1919
  2121     0077                     u2740:
  2122     0077                     l1917:
  2123     0077  0838               	movf	___flmul@bexp,w
  2124     0078  1D03               	btfss	3,2
  2125     0079  287B               	goto	u2751
  2126     007A  287C               	goto	u2750
  2127     007B                     u2751:
  2128     007B  2885               	goto	l1923
  2129     007C                     u2750:
  2130     007C                     l1919:
  2131     007C  3000               	movlw	0
  2132     007D  00A8               	movwf	?___flmul+3
  2133     007E  3000               	movlw	0
  2134     007F  00A7               	movwf	?___flmul+2
  2135     0080  3000               	movlw	0
  2136     0081  00A6               	movwf	?___flmul+1
  2137     0082  3000               	movlw	0
  2138     0083  00A5               	movwf	?___flmul
  2139     0084  2B62               	goto	l566
  2140     0085                     l1923:
  2141     0085  0825               	movf	___flmul@b,w
  2142     0086  00F2               	movwf	__Umul8_16@multiplicand
  2143     0087  082B               	movf	___flmul@a+2,w
  2144     0088  120A  158A  26D9  120A  118A  	fcall	__Umul8_16
  2145     008D  0873               	movf	?__Umul8_16+1,w
  2146     008E  1283               	bcf	3,5	;RP0=0, select bank0
  2147     008F  1303               	bcf	3,6	;RP1=0, select bank0
  2148     0090  00BE               	movwf	___flmul@temp+1
  2149     0091  0872               	movf	?__Umul8_16,w
  2150     0092  00BD               	movwf	___flmul@temp
  2151     0093                     l1925:
  2152     0093  083D               	movf	___flmul@temp,w
  2153     0094  00AD               	movwf	??___flmul
  2154     0095  01AE               	clrf	??___flmul+1
  2155     0096  01AF               	clrf	??___flmul+2
  2156     0097  01B0               	clrf	??___flmul+3
  2157     0098  0830               	movf	??___flmul+3,w
  2158     0099  00B7               	movwf	___flmul@grs+3
  2159     009A  082F               	movf	??___flmul+2,w
  2160     009B  00B6               	movwf	___flmul@grs+2
  2161     009C  082E               	movf	??___flmul+1,w
  2162     009D  00B5               	movwf	___flmul@grs+1
  2163     009E  082D               	movf	??___flmul,w
  2164     009F  00B4               	movwf	___flmul@grs
  2165     00A0                     l1927:
  2166     00A0  083E               	movf	___flmul@temp+1,w
  2167     00A1  00AD               	movwf	??___flmul
  2168     00A2  01AE               	clrf	??___flmul+1
  2169     00A3  01AF               	clrf	??___flmul+2
  2170     00A4  01B0               	clrf	??___flmul+3
  2171     00A5  0830               	movf	??___flmul+3,w
  2172     00A6  00BC               	movwf	___flmul@prod+3
  2173     00A7  082F               	movf	??___flmul+2,w
  2174     00A8  00BB               	movwf	___flmul@prod+2
  2175     00A9  082E               	movf	??___flmul+1,w
  2176     00AA  00BA               	movwf	___flmul@prod+1
  2177     00AB  082D               	movf	??___flmul,w
  2178     00AC  00B9               	movwf	___flmul@prod
  2179     00AD  0826               	movf	___flmul@b+1,w
  2180     00AE  00F2               	movwf	__Umul8_16@multiplicand
  2181     00AF  082A               	movf	___flmul@a+1,w
  2182     00B0  120A  158A  26D9  120A  118A  	fcall	__Umul8_16
  2183     00B5  0873               	movf	?__Umul8_16+1,w
  2184     00B6  1283               	bcf	3,5	;RP0=0, select bank0
  2185     00B7  1303               	bcf	3,6	;RP1=0, select bank0
  2186     00B8  00BE               	movwf	___flmul@temp+1
  2187     00B9  0872               	movf	?__Umul8_16,w
  2188     00BA  00BD               	movwf	___flmul@temp
  2189     00BB                     l1929:
  2190     00BB  083D               	movf	___flmul@temp,w
  2191     00BC  00AD               	movwf	??___flmul
  2192     00BD  01AE               	clrf	??___flmul+1
  2193     00BE  01AF               	clrf	??___flmul+2
  2194     00BF  01B0               	clrf	??___flmul+3
  2195     00C0  082D               	movf	??___flmul,w
  2196     00C1  07B4               	addwf	___flmul@grs,f
  2197     00C2  082E               	movf	??___flmul+1,w
  2198     00C3  1103               	clrz
  2199     00C4  1803               	skipnc
  2200     00C5  3E01               	addlw	1
  2201     00C6  1903               	skipnz
  2202     00C7  28C9               	goto	u2761
  2203     00C8  07B5               	addwf	___flmul@grs+1,f
  2204     00C9                     u2761:
  2205     00C9  082F               	movf	??___flmul+2,w
  2206     00CA  1103               	clrz
  2207     00CB  1803               	skipnc
  2208     00CC  3E01               	addlw	1
  2209     00CD  1903               	skipnz
  2210     00CE  28D0               	goto	u2762
  2211     00CF  07B6               	addwf	___flmul@grs+2,f
  2212     00D0                     u2762:
  2213     00D0  0830               	movf	??___flmul+3,w
  2214     00D1  1103               	clrz
  2215     00D2  1803               	skipnc
  2216     00D3  3E01               	addlw	1
  2217     00D4  1903               	skipnz
  2218     00D5  28D7               	goto	u2763
  2219     00D6  07B7               	addwf	___flmul@grs+3,f
  2220     00D7                     u2763:
  2221     00D7                     l1931:
  2222     00D7  083E               	movf	___flmul@temp+1,w
  2223     00D8  00AD               	movwf	??___flmul
  2224     00D9  01AE               	clrf	??___flmul+1
  2225     00DA  01AF               	clrf	??___flmul+2
  2226     00DB  01B0               	clrf	??___flmul+3
  2227     00DC  082D               	movf	??___flmul,w
  2228     00DD  07B9               	addwf	___flmul@prod,f
  2229     00DE  082E               	movf	??___flmul+1,w
  2230     00DF  1103               	clrz
  2231     00E0  1803               	skipnc
  2232     00E1  3E01               	addlw	1
  2233     00E2  1903               	skipnz
  2234     00E3  28E5               	goto	u2771
  2235     00E4  07BA               	addwf	___flmul@prod+1,f
  2236     00E5                     u2771:
  2237     00E5  082F               	movf	??___flmul+2,w
  2238     00E6  1103               	clrz
  2239     00E7  1803               	skipnc
  2240     00E8  3E01               	addlw	1
  2241     00E9  1903               	skipnz
  2242     00EA  28EC               	goto	u2772
  2243     00EB  07BB               	addwf	___flmul@prod+2,f
  2244     00EC                     u2772:
  2245     00EC  0830               	movf	??___flmul+3,w
  2246     00ED  1103               	clrz
  2247     00EE  1803               	skipnc
  2248     00EF  3E01               	addlw	1
  2249     00F0  1903               	skipnz
  2250     00F1  28F3               	goto	u2773
  2251     00F2  07BC               	addwf	___flmul@prod+3,f
  2252     00F3                     u2773:
  2253     00F3  0827               	movf	___flmul@b+2,w
  2254     00F4  00F2               	movwf	__Umul8_16@multiplicand
  2255     00F5  0829               	movf	___flmul@a,w
  2256     00F6  120A  158A  26D9  120A  118A  	fcall	__Umul8_16
  2257     00FB  0873               	movf	?__Umul8_16+1,w
  2258     00FC  1283               	bcf	3,5	;RP0=0, select bank0
  2259     00FD  1303               	bcf	3,6	;RP1=0, select bank0
  2260     00FE  00BE               	movwf	___flmul@temp+1
  2261     00FF  0872               	movf	?__Umul8_16,w
  2262     0100  00BD               	movwf	___flmul@temp
  2263     0101                     l1933:
  2264     0101  083D               	movf	___flmul@temp,w
  2265     0102  00AD               	movwf	??___flmul
  2266     0103  01AE               	clrf	??___flmul+1
  2267     0104  01AF               	clrf	??___flmul+2
  2268     0105  01B0               	clrf	??___flmul+3
  2269     0106  082D               	movf	??___flmul,w
  2270     0107  07B4               	addwf	___flmul@grs,f
  2271     0108  082E               	movf	??___flmul+1,w
  2272     0109  1103               	clrz
  2273     010A  1803               	skipnc
  2274     010B  3E01               	addlw	1
  2275     010C  1903               	skipnz
  2276     010D  290F               	goto	u2781
  2277     010E  07B5               	addwf	___flmul@grs+1,f
  2278     010F                     u2781:
  2279     010F  082F               	movf	??___flmul+2,w
  2280     0110  1103               	clrz
  2281     0111  1803               	skipnc
  2282     0112  3E01               	addlw	1
  2283     0113  1903               	skipnz
  2284     0114  2916               	goto	u2782
  2285     0115  07B6               	addwf	___flmul@grs+2,f
  2286     0116                     u2782:
  2287     0116  0830               	movf	??___flmul+3,w
  2288     0117  1103               	clrz
  2289     0118  1803               	skipnc
  2290     0119  3E01               	addlw	1
  2291     011A  1903               	skipnz
  2292     011B  291D               	goto	u2783
  2293     011C  07B7               	addwf	___flmul@grs+3,f
  2294     011D                     u2783:
  2295     011D                     l1935:
  2296     011D  083E               	movf	___flmul@temp+1,w
  2297     011E  00AD               	movwf	??___flmul
  2298     011F  01AE               	clrf	??___flmul+1
  2299     0120  01AF               	clrf	??___flmul+2
  2300     0121  01B0               	clrf	??___flmul+3
  2301     0122  082D               	movf	??___flmul,w
  2302     0123  07B9               	addwf	___flmul@prod,f
  2303     0124  082E               	movf	??___flmul+1,w
  2304     0125  1103               	clrz
  2305     0126  1803               	skipnc
  2306     0127  3E01               	addlw	1
  2307     0128  1903               	skipnz
  2308     0129  292B               	goto	u2791
  2309     012A  07BA               	addwf	___flmul@prod+1,f
  2310     012B                     u2791:
  2311     012B  082F               	movf	??___flmul+2,w
  2312     012C  1103               	clrz
  2313     012D  1803               	skipnc
  2314     012E  3E01               	addlw	1
  2315     012F  1903               	skipnz
  2316     0130  2932               	goto	u2792
  2317     0131  07BB               	addwf	___flmul@prod+2,f
  2318     0132                     u2792:
  2319     0132  0830               	movf	??___flmul+3,w
  2320     0133  1103               	clrz
  2321     0134  1803               	skipnc
  2322     0135  3E01               	addlw	1
  2323     0136  1903               	skipnz
  2324     0137  2939               	goto	u2793
  2325     0138  07BC               	addwf	___flmul@prod+3,f
  2326     0139                     u2793:
  2327     0139                     l1937:
  2328     0139  3008               	movlw	8
  2329     013A  00AD               	movwf	??___flmul
  2330     013B                     u2805:
  2331     013B  1003               	clrc
  2332     013C  0DB4               	rlf	___flmul@grs,f
  2333     013D  0DB5               	rlf	___flmul@grs+1,f
  2334     013E  0DB6               	rlf	___flmul@grs+2,f
  2335     013F  0DB7               	rlf	___flmul@grs+3,f
  2336     0140  0BAD               	decfsz	??___flmul,f
  2337     0141  293B               	goto	u2805
  2338     0142                     l1939:
  2339     0142  0826               	movf	___flmul@b+1,w
  2340     0143  00F2               	movwf	__Umul8_16@multiplicand
  2341     0144  0829               	movf	___flmul@a,w
  2342     0145  120A  158A  26D9  120A  118A  	fcall	__Umul8_16
  2343     014A  0873               	movf	?__Umul8_16+1,w
  2344     014B  1283               	bcf	3,5	;RP0=0, select bank0
  2345     014C  1303               	bcf	3,6	;RP1=0, select bank0
  2346     014D  00BE               	movwf	___flmul@temp+1
  2347     014E  0872               	movf	?__Umul8_16,w
  2348     014F  00BD               	movwf	___flmul@temp
  2349     0150                     l1941:
  2350     0150  083D               	movf	___flmul@temp,w
  2351     0151  00AD               	movwf	??___flmul
  2352     0152  083E               	movf	___flmul@temp+1,w
  2353     0153  00AE               	movwf	??___flmul+1
  2354     0154  01AF               	clrf	??___flmul+2
  2355     0155  01B0               	clrf	??___flmul+3
  2356     0156  082D               	movf	??___flmul,w
  2357     0157  07B4               	addwf	___flmul@grs,f
  2358     0158  082E               	movf	??___flmul+1,w
  2359     0159  1103               	clrz
  2360     015A  1803               	skipnc
  2361     015B  3E01               	addlw	1
  2362     015C  1903               	skipnz
  2363     015D  295F               	goto	u2811
  2364     015E  07B5               	addwf	___flmul@grs+1,f
  2365     015F                     u2811:
  2366     015F  082F               	movf	??___flmul+2,w
  2367     0160  1103               	clrz
  2368     0161  1803               	skipnc
  2369     0162  3E01               	addlw	1
  2370     0163  1903               	skipnz
  2371     0164  2966               	goto	u2812
  2372     0165  07B6               	addwf	___flmul@grs+2,f
  2373     0166                     u2812:
  2374     0166  0830               	movf	??___flmul+3,w
  2375     0167  1103               	clrz
  2376     0168  1803               	skipnc
  2377     0169  3E01               	addlw	1
  2378     016A  1903               	skipnz
  2379     016B  296D               	goto	u2813
  2380     016C  07B7               	addwf	___flmul@grs+3,f
  2381     016D                     u2813:
  2382     016D                     l1943:
  2383     016D  0825               	movf	___flmul@b,w
  2384     016E  00F2               	movwf	__Umul8_16@multiplicand
  2385     016F  082A               	movf	___flmul@a+1,w
  2386     0170  120A  158A  26D9  120A  118A  	fcall	__Umul8_16
  2387     0175  0873               	movf	?__Umul8_16+1,w
  2388     0176  1283               	bcf	3,5	;RP0=0, select bank0
  2389     0177  1303               	bcf	3,6	;RP1=0, select bank0
  2390     0178  00BE               	movwf	___flmul@temp+1
  2391     0179  0872               	movf	?__Umul8_16,w
  2392     017A  00BD               	movwf	___flmul@temp
  2393     017B                     l1945:
  2394     017B  083D               	movf	___flmul@temp,w
  2395     017C  00AD               	movwf	??___flmul
  2396     017D  083E               	movf	___flmul@temp+1,w
  2397     017E  00AE               	movwf	??___flmul+1
  2398     017F  01AF               	clrf	??___flmul+2
  2399     0180  01B0               	clrf	??___flmul+3
  2400     0181  082D               	movf	??___flmul,w
  2401     0182  07B4               	addwf	___flmul@grs,f
  2402     0183  082E               	movf	??___flmul+1,w
  2403     0184  1103               	clrz
  2404     0185  1803               	skipnc
  2405     0186  3E01               	addlw	1
  2406     0187  1903               	skipnz
  2407     0188  298A               	goto	u2821
  2408     0189  07B5               	addwf	___flmul@grs+1,f
  2409     018A                     u2821:
  2410     018A  082F               	movf	??___flmul+2,w
  2411     018B  1103               	clrz
  2412     018C  1803               	skipnc
  2413     018D  3E01               	addlw	1
  2414     018E  1903               	skipnz
  2415     018F  2991               	goto	u2822
  2416     0190  07B6               	addwf	___flmul@grs+2,f
  2417     0191                     u2822:
  2418     0191  0830               	movf	??___flmul+3,w
  2419     0192  1103               	clrz
  2420     0193  1803               	skipnc
  2421     0194  3E01               	addlw	1
  2422     0195  1903               	skipnz
  2423     0196  2998               	goto	u2823
  2424     0197  07B7               	addwf	___flmul@grs+3,f
  2425     0198                     u2823:
  2426     0198                     l1947:
  2427     0198  3008               	movlw	8
  2428     0199  00AD               	movwf	??___flmul
  2429     019A                     u2835:
  2430     019A  1003               	clrc
  2431     019B  0DB4               	rlf	___flmul@grs,f
  2432     019C  0DB5               	rlf	___flmul@grs+1,f
  2433     019D  0DB6               	rlf	___flmul@grs+2,f
  2434     019E  0DB7               	rlf	___flmul@grs+3,f
  2435     019F  0BAD               	decfsz	??___flmul,f
  2436     01A0  299A               	goto	u2835
  2437     01A1  0825               	movf	___flmul@b,w
  2438     01A2  00F2               	movwf	__Umul8_16@multiplicand
  2439     01A3  0829               	movf	___flmul@a,w
  2440     01A4  120A  158A  26D9  120A  118A  	fcall	__Umul8_16
  2441     01A9  0873               	movf	?__Umul8_16+1,w
  2442     01AA  1283               	bcf	3,5	;RP0=0, select bank0
  2443     01AB  1303               	bcf	3,6	;RP1=0, select bank0
  2444     01AC  00BE               	movwf	___flmul@temp+1
  2445     01AD  0872               	movf	?__Umul8_16,w
  2446     01AE  00BD               	movwf	___flmul@temp
  2447     01AF                     l1949:
  2448     01AF  083D               	movf	___flmul@temp,w
  2449     01B0  00AD               	movwf	??___flmul
  2450     01B1  083E               	movf	___flmul@temp+1,w
  2451     01B2  00AE               	movwf	??___flmul+1
  2452     01B3  01AF               	clrf	??___flmul+2
  2453     01B4  01B0               	clrf	??___flmul+3
  2454     01B5  082D               	movf	??___flmul,w
  2455     01B6  07B4               	addwf	___flmul@grs,f
  2456     01B7  082E               	movf	??___flmul+1,w
  2457     01B8  1103               	clrz
  2458     01B9  1803               	skipnc
  2459     01BA  3E01               	addlw	1
  2460     01BB  1903               	skipnz
  2461     01BC  29BE               	goto	u2841
  2462     01BD  07B5               	addwf	___flmul@grs+1,f
  2463     01BE                     u2841:
  2464     01BE  082F               	movf	??___flmul+2,w
  2465     01BF  1103               	clrz
  2466     01C0  1803               	skipnc
  2467     01C1  3E01               	addlw	1
  2468     01C2  1903               	skipnz
  2469     01C3  29C5               	goto	u2842
  2470     01C4  07B6               	addwf	___flmul@grs+2,f
  2471     01C5                     u2842:
  2472     01C5  0830               	movf	??___flmul+3,w
  2473     01C6  1103               	clrz
  2474     01C7  1803               	skipnc
  2475     01C8  3E01               	addlw	1
  2476     01C9  1903               	skipnz
  2477     01CA  29CC               	goto	u2843
  2478     01CB  07B7               	addwf	___flmul@grs+3,f
  2479     01CC                     u2843:
  2480     01CC                     l1951:
  2481     01CC  0826               	movf	___flmul@b+1,w
  2482     01CD  00F2               	movwf	__Umul8_16@multiplicand
  2483     01CE  082B               	movf	___flmul@a+2,w
  2484     01CF  120A  158A  26D9  120A  118A  	fcall	__Umul8_16
  2485     01D4  0873               	movf	?__Umul8_16+1,w
  2486     01D5  1283               	bcf	3,5	;RP0=0, select bank0
  2487     01D6  1303               	bcf	3,6	;RP1=0, select bank0
  2488     01D7  00BE               	movwf	___flmul@temp+1
  2489     01D8  0872               	movf	?__Umul8_16,w
  2490     01D9  00BD               	movwf	___flmul@temp
  2491     01DA  083D               	movf	___flmul@temp,w
  2492     01DB  00AD               	movwf	??___flmul
  2493     01DC  083E               	movf	___flmul@temp+1,w
  2494     01DD  00AE               	movwf	??___flmul+1
  2495     01DE  01AF               	clrf	??___flmul+2
  2496     01DF  01B0               	clrf	??___flmul+3
  2497     01E0  082D               	movf	??___flmul,w
  2498     01E1  07B9               	addwf	___flmul@prod,f
  2499     01E2  082E               	movf	??___flmul+1,w
  2500     01E3  1103               	clrz
  2501     01E4  1803               	skipnc
  2502     01E5  3E01               	addlw	1
  2503     01E6  1903               	skipnz
  2504     01E7  29E9               	goto	u2851
  2505     01E8  07BA               	addwf	___flmul@prod+1,f
  2506     01E9                     u2851:
  2507     01E9  082F               	movf	??___flmul+2,w
  2508     01EA  1103               	clrz
  2509     01EB  1803               	skipnc
  2510     01EC  3E01               	addlw	1
  2511     01ED  1903               	skipnz
  2512     01EE  29F0               	goto	u2852
  2513     01EF  07BB               	addwf	___flmul@prod+2,f
  2514     01F0                     u2852:
  2515     01F0  0830               	movf	??___flmul+3,w
  2516     01F1  1103               	clrz
  2517     01F2  1803               	skipnc
  2518     01F3  3E01               	addlw	1
  2519     01F4  1903               	skipnz
  2520     01F5  29F7               	goto	u2853
  2521     01F6  07BC               	addwf	___flmul@prod+3,f
  2522     01F7                     u2853:
  2523     01F7                     l1953:
  2524     01F7  0827               	movf	___flmul@b+2,w
  2525     01F8  00F2               	movwf	__Umul8_16@multiplicand
  2526     01F9  082A               	movf	___flmul@a+1,w
  2527     01FA  120A  158A  26D9  120A  118A  	fcall	__Umul8_16
  2528     01FF  0873               	movf	?__Umul8_16+1,w
  2529     0200  1283               	bcf	3,5	;RP0=0, select bank0
  2530     0201  1303               	bcf	3,6	;RP1=0, select bank0
  2531     0202  00BE               	movwf	___flmul@temp+1
  2532     0203  0872               	movf	?__Umul8_16,w
  2533     0204  00BD               	movwf	___flmul@temp
  2534     0205                     l1955:
  2535     0205  083D               	movf	___flmul@temp,w
  2536     0206  00AD               	movwf	??___flmul
  2537     0207  083E               	movf	___flmul@temp+1,w
  2538     0208  00AE               	movwf	??___flmul+1
  2539     0209  01AF               	clrf	??___flmul+2
  2540     020A  01B0               	clrf	??___flmul+3
  2541     020B  082D               	movf	??___flmul,w
  2542     020C  07B9               	addwf	___flmul@prod,f
  2543     020D  082E               	movf	??___flmul+1,w
  2544     020E  1103               	clrz
  2545     020F  1803               	skipnc
  2546     0210  3E01               	addlw	1
  2547     0211  1903               	skipnz
  2548     0212  2A14               	goto	u2861
  2549     0213  07BA               	addwf	___flmul@prod+1,f
  2550     0214                     u2861:
  2551     0214  082F               	movf	??___flmul+2,w
  2552     0215  1103               	clrz
  2553     0216  1803               	skipnc
  2554     0217  3E01               	addlw	1
  2555     0218  1903               	skipnz
  2556     0219  2A1B               	goto	u2862
  2557     021A  07BB               	addwf	___flmul@prod+2,f
  2558     021B                     u2862:
  2559     021B  0830               	movf	??___flmul+3,w
  2560     021C  1103               	clrz
  2561     021D  1803               	skipnc
  2562     021E  3E01               	addlw	1
  2563     021F  1903               	skipnz
  2564     0220  2A22               	goto	u2863
  2565     0221  07BC               	addwf	___flmul@prod+3,f
  2566     0222                     u2863:
  2567     0222  0827               	movf	___flmul@b+2,w
  2568     0223  00F2               	movwf	__Umul8_16@multiplicand
  2569     0224  082B               	movf	___flmul@a+2,w
  2570     0225  120A  158A  26D9  120A  118A  	fcall	__Umul8_16
  2571     022A  0873               	movf	?__Umul8_16+1,w
  2572     022B  1283               	bcf	3,5	;RP0=0, select bank0
  2573     022C  1303               	bcf	3,6	;RP1=0, select bank0
  2574     022D  00BE               	movwf	___flmul@temp+1
  2575     022E  0872               	movf	?__Umul8_16,w
  2576     022F  00BD               	movwf	___flmul@temp
  2577     0230                     l1957:
  2578     0230  083D               	movf	___flmul@temp,w
  2579     0231  00AD               	movwf	??___flmul
  2580     0232  083E               	movf	___flmul@temp+1,w
  2581     0233  00AE               	movwf	??___flmul+1
  2582     0234  01AF               	clrf	??___flmul+2
  2583     0235  01B0               	clrf	??___flmul+3
  2584     0236  3008               	movlw	8
  2585     0237                     u2875:
  2586     0237  1003               	clrc
  2587     0238  0DAD               	rlf	??___flmul,f
  2588     0239  0DAE               	rlf	??___flmul+1,f
  2589     023A  0DAF               	rlf	??___flmul+2,f
  2590     023B  0DB0               	rlf	??___flmul+3,f
  2591     023C                     u2870:
  2592     023C  3EFF               	addlw	-1
  2593     023D  1D03               	skipz
  2594     023E  2A37               	goto	u2875
  2595     023F  082D               	movf	??___flmul,w
  2596     0240  07B9               	addwf	___flmul@prod,f
  2597     0241  082E               	movf	??___flmul+1,w
  2598     0242  1103               	clrz
  2599     0243  1803               	skipnc
  2600     0244  3E01               	addlw	1
  2601     0245  1903               	skipnz
  2602     0246  2A48               	goto	u2881
  2603     0247  07BA               	addwf	___flmul@prod+1,f
  2604     0248                     u2881:
  2605     0248  082F               	movf	??___flmul+2,w
  2606     0249  1103               	clrz
  2607     024A  1803               	skipnc
  2608     024B  3E01               	addlw	1
  2609     024C  1903               	skipnz
  2610     024D  2A4F               	goto	u2882
  2611     024E  07BB               	addwf	___flmul@prod+2,f
  2612     024F                     u2882:
  2613     024F  0830               	movf	??___flmul+3,w
  2614     0250  1103               	clrz
  2615     0251  1803               	skipnc
  2616     0252  3E01               	addlw	1
  2617     0253  1903               	skipnz
  2618     0254  2A56               	goto	u2883
  2619     0255  07BC               	addwf	___flmul@prod+3,f
  2620     0256                     u2883:
  2621     0256                     l1959:
  2622     0256  0834               	movf	___flmul@grs,w
  2623     0257  00AD               	movwf	??___flmul
  2624     0258  0835               	movf	___flmul@grs+1,w
  2625     0259  00AE               	movwf	??___flmul+1
  2626     025A  0836               	movf	___flmul@grs+2,w
  2627     025B  00AF               	movwf	??___flmul+2
  2628     025C  0837               	movf	___flmul@grs+3,w
  2629     025D  00B0               	movwf	??___flmul+3
  2630     025E  3018               	movlw	24
  2631     025F                     u2895:
  2632     025F  1003               	clrc
  2633     0260  0CB0               	rrf	??___flmul+3,f
  2634     0261  0CAF               	rrf	??___flmul+2,f
  2635     0262  0CAE               	rrf	??___flmul+1,f
  2636     0263  0CAD               	rrf	??___flmul,f
  2637     0264                     u2890:
  2638     0264  3EFF               	addlw	-1
  2639     0265  1D03               	skipz
  2640     0266  2A5F               	goto	u2895
  2641     0267  082D               	movf	??___flmul,w
  2642     0268  07B9               	addwf	___flmul@prod,f
  2643     0269  082E               	movf	??___flmul+1,w
  2644     026A  1103               	clrz
  2645     026B  1803               	skipnc
  2646     026C  3E01               	addlw	1
  2647     026D  1903               	skipnz
  2648     026E  2A70               	goto	u2901
  2649     026F  07BA               	addwf	___flmul@prod+1,f
  2650     0270                     u2901:
  2651     0270  082F               	movf	??___flmul+2,w
  2652     0271  1103               	clrz
  2653     0272  1803               	skipnc
  2654     0273  3E01               	addlw	1
  2655     0274  1903               	skipnz
  2656     0275  2A77               	goto	u2902
  2657     0276  07BB               	addwf	___flmul@prod+2,f
  2658     0277                     u2902:
  2659     0277  0830               	movf	??___flmul+3,w
  2660     0278  1103               	clrz
  2661     0279  1803               	skipnc
  2662     027A  3E01               	addlw	1
  2663     027B  1903               	skipnz
  2664     027C  2A7E               	goto	u2903
  2665     027D  07BC               	addwf	___flmul@prod+3,f
  2666     027E                     u2903:
  2667     027E                     l1961:
  2668     027E  3008               	movlw	8
  2669     027F  00AD               	movwf	??___flmul
  2670     0280                     u2915:
  2671     0280  1003               	clrc
  2672     0281  0DB4               	rlf	___flmul@grs,f
  2673     0282  0DB5               	rlf	___flmul@grs+1,f
  2674     0283  0DB6               	rlf	___flmul@grs+2,f
  2675     0284  0DB7               	rlf	___flmul@grs+3,f
  2676     0285  0BAD               	decfsz	??___flmul,f
  2677     0286  2A80               	goto	u2915
  2678     0287                     l1963:
  2679     0287  0838               	movf	___flmul@bexp,w
  2680     0288  0733               	addwf	___flmul@aexp,w
  2681     0289  00AD               	movwf	??___flmul
  2682     028A  01AE               	clrf	??___flmul+1
  2683     028B  0DAE               	rlf	??___flmul+1,f
  2684     028C  082D               	movf	??___flmul,w
  2685     028D  3E82               	addlw	130
  2686     028E  00BD               	movwf	___flmul@temp
  2687     028F  082E               	movf	??___flmul+1,w
  2688     0290  1803               	skipnc
  2689     0291  3E01               	addlw	1
  2690     0292  3EFF               	addlw	255
  2691     0293  00BE               	movwf	___flmul@temp+1
  2692     0294  2AB2               	goto	l1975
  2693     0295                     l1965:
  2694     0295  3001               	movlw	1
  2695     0296  00AD               	movwf	??___flmul
  2696     0297                     u2925:
  2697     0297  1003               	clrc
  2698     0298  0DB9               	rlf	___flmul@prod,f
  2699     0299  0DBA               	rlf	___flmul@prod+1,f
  2700     029A  0DBB               	rlf	___flmul@prod+2,f
  2701     029B  0DBC               	rlf	___flmul@prod+3,f
  2702     029C  0BAD               	decfsz	??___flmul,f
  2703     029D  2A97               	goto	u2925
  2704     029E                     l1967:
  2705     029E  1FB7               	btfss	___flmul@grs+3,7
  2706     029F  2AA1               	goto	u2931
  2707     02A0  2AA2               	goto	u2930
  2708     02A1                     u2931:
  2709     02A1  2AA3               	goto	l1971
  2710     02A2                     u2930:
  2711     02A2                     l1969:
  2712     02A2  1439               	bsf	___flmul@prod,0
  2713     02A3                     l1971:
  2714     02A3  3001               	movlw	1
  2715     02A4  00AD               	movwf	??___flmul
  2716     02A5                     u2945:
  2717     02A5  1003               	clrc
  2718     02A6  0DB4               	rlf	___flmul@grs,f
  2719     02A7  0DB5               	rlf	___flmul@grs+1,f
  2720     02A8  0DB6               	rlf	___flmul@grs+2,f
  2721     02A9  0DB7               	rlf	___flmul@grs+3,f
  2722     02AA  0BAD               	decfsz	??___flmul,f
  2723     02AB  2AA5               	goto	u2945
  2724     02AC                     l1973:
  2725     02AC  30FF               	movlw	255
  2726     02AD  07BD               	addwf	___flmul@temp,f
  2727     02AE  1803               	skipnc
  2728     02AF  0ABE               	incf	___flmul@temp+1,f
  2729     02B0  30FF               	movlw	255
  2730     02B1  07BE               	addwf	___flmul@temp+1,f
  2731     02B2                     l1975:
  2732     02B2  1FBB               	btfss	___flmul@prod+2,7
  2733     02B3  2AB5               	goto	u2951
  2734     02B4  2AB6               	goto	u2950
  2735     02B5                     u2951:
  2736     02B5  2A95               	goto	l1965
  2737     02B6                     u2950:
  2738     02B6                     l1977:
  2739     02B6  01B3               	clrf	___flmul@aexp
  2740     02B7                     l1979:
  2741     02B7  1FB7               	btfss	___flmul@grs+3,7
  2742     02B8  2ABA               	goto	u2961
  2743     02B9  2ABB               	goto	u2960
  2744     02BA                     u2961:
  2745     02BA  2AD7               	goto	l1987
  2746     02BB                     u2960:
  2747     02BB                     l1981:
  2748     02BB  30FF               	movlw	255
  2749     02BC  0534               	andwf	___flmul@grs,w
  2750     02BD  00AD               	movwf	??___flmul
  2751     02BE  30FF               	movlw	255
  2752     02BF  0535               	andwf	___flmul@grs+1,w
  2753     02C0  00AE               	movwf	??___flmul+1
  2754     02C1  30FF               	movlw	255
  2755     02C2  0536               	andwf	___flmul@grs+2,w
  2756     02C3  00AF               	movwf	??___flmul+2
  2757     02C4  307F               	movlw	127
  2758     02C5  0537               	andwf	___flmul@grs+3,w
  2759     02C6  00B0               	movwf	??___flmul+3
  2760     02C7  0830               	movf	??___flmul+3,w
  2761     02C8  042F               	iorwf	??___flmul+2,w
  2762     02C9  042E               	iorwf	??___flmul+1,w
  2763     02CA  042D               	iorwf	??___flmul,w
  2764     02CB  1903               	skipnz
  2765     02CC  2ACE               	goto	u2971
  2766     02CD  2ACF               	goto	u2970
  2767     02CE                     u2971:
  2768     02CE  2AD2               	goto	l572
  2769     02CF                     u2970:
  2770     02CF                     l1983:
  2771     02CF  01B3               	clrf	___flmul@aexp
  2772     02D0  0AB3               	incf	___flmul@aexp,f
  2773     02D1  2AD7               	goto	l1987
  2774     02D2                     l572:
  2775     02D2  1C39               	btfss	___flmul@prod,0
  2776     02D3  2AD5               	goto	u2981
  2777     02D4  2AD6               	goto	u2980
  2778     02D5                     u2981:
  2779     02D5  2AD7               	goto	l1987
  2780     02D6                     u2980:
  2781     02D6  2ACF               	goto	l1983
  2782     02D7                     l1987:
  2783     02D7  0833               	movf	___flmul@aexp,w
  2784     02D8  1903               	btfsc	3,2
  2785     02D9  2ADB               	goto	u2991
  2786     02DA  2ADC               	goto	u2990
  2787     02DB                     u2991:
  2788     02DB  2B0D               	goto	l1997
  2789     02DC                     u2990:
  2790     02DC                     l1989:
  2791     02DC  3001               	movlw	1
  2792     02DD  07B9               	addwf	___flmul@prod,f
  2793     02DE  3000               	movlw	0
  2794     02DF  1803               	skipnc
  2795     02E0  3001               	movlw	1
  2796     02E1  07BA               	addwf	___flmul@prod+1,f
  2797     02E2  3000               	movlw	0
  2798     02E3  1803               	skipnc
  2799     02E4  3001               	movlw	1
  2800     02E5  07BB               	addwf	___flmul@prod+2,f
  2801     02E6  3000               	movlw	0
  2802     02E7  1803               	skipnc
  2803     02E8  3001               	movlw	1
  2804     02E9  07BC               	addwf	___flmul@prod+3,f
  2805     02EA                     l1991:
  2806     02EA  1C3C               	btfss	___flmul@prod+3,0
  2807     02EB  2AED               	goto	u3001
  2808     02EC  2AEE               	goto	u3000
  2809     02ED                     u3001:
  2810     02ED  2B0D               	goto	l1997
  2811     02EE                     u3000:
  2812     02EE                     l1993:
  2813     02EE  0839               	movf	___flmul@prod,w
  2814     02EF  00AD               	movwf	??___flmul
  2815     02F0  083A               	movf	___flmul@prod+1,w
  2816     02F1  00AE               	movwf	??___flmul+1
  2817     02F2  083B               	movf	___flmul@prod+2,w
  2818     02F3  00AF               	movwf	??___flmul+2
  2819     02F4  083C               	movf	___flmul@prod+3,w
  2820     02F5  00B0               	movwf	??___flmul+3
  2821     02F6  3001               	movlw	1
  2822     02F7  00B1               	movwf	??___flmul+4
  2823     02F8                     u3015:
  2824     02F8  0D30               	rlf	??___flmul+3,w
  2825     02F9  0CB0               	rrf	??___flmul+3,f
  2826     02FA  0CAF               	rrf	??___flmul+2,f
  2827     02FB  0CAE               	rrf	??___flmul+1,f
  2828     02FC  0CAD               	rrf	??___flmul,f
  2829     02FD                     u3010:
  2830     02FD  0BB1               	decfsz	??___flmul+4,f
  2831     02FE  2AF8               	goto	u3015
  2832     02FF  0830               	movf	??___flmul+3,w
  2833     0300  00BC               	movwf	___flmul@prod+3
  2834     0301  082F               	movf	??___flmul+2,w
  2835     0302  00BB               	movwf	___flmul@prod+2
  2836     0303  082E               	movf	??___flmul+1,w
  2837     0304  00BA               	movwf	___flmul@prod+1
  2838     0305  082D               	movf	??___flmul,w
  2839     0306  00B9               	movwf	___flmul@prod
  2840     0307                     l1995:
  2841     0307  3001               	movlw	1
  2842     0308  07BD               	addwf	___flmul@temp,f
  2843     0309  1803               	skipnc
  2844     030A  0ABE               	incf	___flmul@temp+1,f
  2845     030B  3000               	movlw	0
  2846     030C  07BE               	addwf	___flmul@temp+1,f
  2847     030D                     l1997:
  2848     030D  083E               	movf	___flmul@temp+1,w
  2849     030E  3A80               	xorlw	128
  2850     030F  00FF               	movwf	btemp+1
  2851     0310  3080               	movlw	128
  2852     0311  027F               	subwf	btemp+1,w
  2853     0312  1D03               	skipz
  2854     0313  2B16               	goto	u3025
  2855     0314  30FF               	movlw	255
  2856     0315  023D               	subwf	___flmul@temp,w
  2857     0316                     u3025:
  2858     0316  1C03               	skipc
  2859     0317  2B19               	goto	u3021
  2860     0318  2B1A               	goto	u3020
  2861     0319                     u3021:
  2862     0319  2B25               	goto	l2001
  2863     031A                     u3020:
  2864     031A                     l1999:
  2865     031A  307F               	movlw	127
  2866     031B  1283               	bcf	3,5	;RP0=0, select bank0
  2867     031C  1303               	bcf	3,6	;RP1=0, select bank0
  2868     031D  00BC               	movwf	___flmul@prod+3
  2869     031E  3080               	movlw	128
  2870     031F  00BB               	movwf	___flmul@prod+2
  2871     0320  3000               	movlw	0
  2872     0321  00BA               	movwf	___flmul@prod+1
  2873     0322  3000               	movlw	0
  2874     0323  00B9               	movwf	___flmul@prod
  2875     0324  2B56               	goto	l2015
  2876     0325                     l2001:
  2877     0325  1283               	bcf	3,5	;RP0=0, select bank0
  2878     0326  1303               	bcf	3,6	;RP1=0, select bank0
  2879     0327  083E               	movf	___flmul@temp+1,w
  2880     0328  3A80               	xorlw	128
  2881     0329  00FF               	movwf	btemp+1
  2882     032A  3080               	movlw	128
  2883     032B  027F               	subwf	btemp+1,w
  2884     032C  1D03               	skipz
  2885     032D  2B30               	goto	u3035
  2886     032E  3001               	movlw	1
  2887     032F  023D               	subwf	___flmul@temp,w
  2888     0330                     u3035:
  2889     0330  1803               	skipnc
  2890     0331  2B33               	goto	u3031
  2891     0332  2B34               	goto	u3030
  2892     0333                     u3031:
  2893     0333  2B40               	goto	l2007
  2894     0334                     u3030:
  2895     0334                     l2003:
  2896     0334  3000               	movlw	0
  2897     0335  1283               	bcf	3,5	;RP0=0, select bank0
  2898     0336  1303               	bcf	3,6	;RP1=0, select bank0
  2899     0337  00BC               	movwf	___flmul@prod+3
  2900     0338  3000               	movlw	0
  2901     0339  00BB               	movwf	___flmul@prod+2
  2902     033A  3000               	movlw	0
  2903     033B  00BA               	movwf	___flmul@prod+1
  2904     033C  3000               	movlw	0
  2905     033D  00B9               	movwf	___flmul@prod
  2906     033E                     l2005:
  2907     033E  01B2               	clrf	___flmul@sign
  2908     033F  2B56               	goto	l2015
  2909     0340                     l2007:
  2910     0340  1283               	bcf	3,5	;RP0=0, select bank0
  2911     0341  1303               	bcf	3,6	;RP1=0, select bank0
  2912     0342  083D               	movf	___flmul@temp,w
  2913     0343  00B8               	movwf	___flmul@bexp
  2914     0344  30FF               	movlw	255
  2915     0345  05B9               	andwf	___flmul@prod,f
  2916     0346  30FF               	movlw	255
  2917     0347  05BA               	andwf	___flmul@prod+1,f
  2918     0348  307F               	movlw	127
  2919     0349  05BB               	andwf	___flmul@prod+2,f
  2920     034A  3000               	movlw	0
  2921     034B  05BC               	andwf	___flmul@prod+3,f
  2922     034C                     l2009:
  2923     034C  1C38               	btfss	___flmul@bexp,0
  2924     034D  2B4F               	goto	u3041
  2925     034E  2B50               	goto	u3040
  2926     034F                     u3041:
  2927     034F  2B51               	goto	l2013
  2928     0350                     u3040:
  2929     0350                     l2011:
  2930     0350  17BB               	bsf	___flmul@prod+2,7
  2931     0351                     l2013:
  2932     0351  0838               	movf	___flmul@bexp,w
  2933     0352  00AD               	movwf	??___flmul
  2934     0353  1003               	clrc
  2935     0354  0C2D               	rrf	??___flmul,w
  2936     0355  00BC               	movwf	___flmul@prod+3
  2937     0356                     l2015:
  2938     0356  0832               	movf	___flmul@sign,w
  2939     0357  00FF               	movwf	btemp+1
  2940     0358  087F               	movf	btemp+1,w
  2941     0359  04BC               	iorwf	___flmul@prod+3,f
  2942     035A                     l2017:
  2943     035A  083C               	movf	___flmul@prod+3,w
  2944     035B  00A8               	movwf	?___flmul+3
  2945     035C  083B               	movf	___flmul@prod+2,w
  2946     035D  00A7               	movwf	?___flmul+2
  2947     035E  083A               	movf	___flmul@prod+1,w
  2948     035F  00A6               	movwf	?___flmul+1
  2949     0360  0839               	movf	___flmul@prod,w
  2950     0361  00A5               	movwf	?___flmul
  2951     0362                     l566:
  2952     0362  0008               	return
  2953     0363                     __end_of___flmul:
  2954                           
  2955                           	psect	text10
  2956     0ED9                     __ptext10:	
  2957 ;; *************** function __Umul8_16 *****************
  2958 ;; Defined at:
  2959 ;;		line 4 in file "C:\Program Files\Microchip\xc8\v2.45\pic\sources\c99\common\Umul8_16.c"
  2960 ;; Parameters:    Size  Location     Type
  2961 ;;  multiplier      1    wreg     unsigned char 
  2962 ;;  multiplicand    1    2[COMMON] unsigned char 
  2963 ;; Auto vars:     Size  Location     Type
  2964 ;;  multiplier      1    4[BANK0 ] unsigned char 
  2965 ;;  word_mpld       2    2[BANK0 ] unsigned short 
  2966 ;;  product         2    0[BANK0 ] unsigned short 
  2967 ;; Return value:  Size  Location     Type
  2968 ;;                  2    2[COMMON] unsigned int 
  2969 ;; Registers used:
  2970 ;;		wreg, status,2, status,0
  2971 ;; Tracked objects:
  2972 ;;		On entry : 0/0
  2973 ;;		On exit  : 0/0
  2974 ;;		Unchanged: 0/0
  2975 ;; Data sizes:     COMMON   BANK0   BANK1   BANK3   BANK2
  2976 ;;      Params:         2       0       0       0       0
  2977 ;;      Locals:         0       5       0       0       0
  2978 ;;      Temps:          2       0       0       0       0
  2979 ;;      Totals:         4       5       0       0       0
  2980 ;;Total ram usage:        9 bytes
  2981 ;; Hardware stack levels used: 1
  2982 ;; Hardware stack levels required when called: 1
  2983 ;; This function calls:
  2984 ;;		Nothing
  2985 ;; This function is called by:
  2986 ;;		___flmul
  2987 ;; This function uses a non-reentrant model
  2988 ;;
  2989                           
  2990     0ED9                     __Umul8_16:	
  2991                           ;psect for function __Umul8_16
  2992                           
  2993                           
  2994                           ;incstack = 0
  2995                           ; Regs used in __Umul8_16: [wreg+status,2+status,0]
  2996                           ;__Umul8_16@multiplier stored from wreg
  2997     0ED9  1283               	bcf	3,5	;RP0=0, select bank0
  2998     0EDA  1303               	bcf	3,6	;RP1=0, select bank0
  2999     0EDB  00A4               	movwf	__Umul8_16@multiplier
  3000     0EDC                     l1827:
  3001     0EDC  01A0               	clrf	__Umul8_16@product
  3002     0EDD  01A1               	clrf	__Umul8_16@product+1
  3003     0EDE                     l1829:
  3004     0EDE  0872               	movf	__Umul8_16@multiplicand,w
  3005     0EDF  00F4               	movwf	??__Umul8_16
  3006     0EE0  01F5               	clrf	??__Umul8_16+1
  3007     0EE1  0874               	movf	??__Umul8_16,w
  3008     0EE2  00A2               	movwf	__Umul8_16@word_mpld
  3009     0EE3  0875               	movf	??__Umul8_16+1,w
  3010     0EE4  00A3               	movwf	__Umul8_16@word_mpld+1
  3011     0EE5                     l1831:
  3012     0EE5  1C24               	btfss	__Umul8_16@multiplier,0
  3013     0EE6  2EE8               	goto	u2551
  3014     0EE7  2EE9               	goto	u2550
  3015     0EE8                     u2551:
  3016     0EE8  2EEF               	goto	l585
  3017     0EE9                     u2550:
  3018     0EE9                     l1833:
  3019     0EE9  0822               	movf	__Umul8_16@word_mpld,w
  3020     0EEA  07A0               	addwf	__Umul8_16@product,f
  3021     0EEB  1803               	skipnc
  3022     0EEC  0AA1               	incf	__Umul8_16@product+1,f
  3023     0EED  0823               	movf	__Umul8_16@word_mpld+1,w
  3024     0EEE  07A1               	addwf	__Umul8_16@product+1,f
  3025     0EEF                     l585:
  3026     0EEF  3001               	movlw	1
  3027     0EF0                     u2565:
  3028     0EF0  1003               	clrc
  3029     0EF1  0DA2               	rlf	__Umul8_16@word_mpld,f
  3030     0EF2  0DA3               	rlf	__Umul8_16@word_mpld+1,f
  3031     0EF3  3EFF               	addlw	-1
  3032     0EF4  1D03               	skipz
  3033     0EF5  2EF0               	goto	u2565
  3034     0EF6  1003               	clrc
  3035     0EF7  0CA4               	rrf	__Umul8_16@multiplier,f
  3036     0EF8                     l1835:
  3037     0EF8  0824               	movf	__Umul8_16@multiplier,w
  3038     0EF9  1D03               	btfss	3,2
  3039     0EFA  2EFC               	goto	u2571
  3040     0EFB  2EFD               	goto	u2570
  3041     0EFC                     u2571:
  3042     0EFC  2EE5               	goto	l1831
  3043     0EFD                     u2570:
  3044     0EFD                     l1837:
  3045     0EFD  0821               	movf	__Umul8_16@product+1,w
  3046     0EFE  00F3               	movwf	?__Umul8_16+1
  3047     0EFF  0820               	movf	__Umul8_16@product,w
  3048     0F00  00F2               	movwf	?__Umul8_16
  3049     0F01                     l587:
  3050     0F01  0008               	return
  3051     0F02                     __end_of__Umul8_16:
  3052                           
  3053                           	psect	text11
  3054     0363                     __ptext11:	
  3055 ;; *************** function ___fldiv *****************
  3056 ;; Defined at:
  3057 ;;		line 8 in file "C:\Program Files\Microchip\xc8\v2.45\pic\sources\c99\common\sprcdiv.c"
  3058 ;; Parameters:    Size  Location     Type
  3059 ;;  a               4    6[BANK0 ] unsigned int 
  3060 ;;  b               4   10[BANK0 ] unsigned int 
  3061 ;; Auto vars:     Size  Location     Type
  3062 ;;  grs             4   26[BANK0 ] unsigned long 
  3063 ;;  rem             4   19[BANK0 ] unsigned long 
  3064 ;;  new_exp         2   24[BANK0 ] short 
  3065 ;;  aexp            1   31[BANK0 ] unsigned char 
  3066 ;;  bexp            1   30[BANK0 ] unsigned char 
  3067 ;;  sign            1   23[BANK0 ] unsigned char 
  3068 ;; Return value:  Size  Location     Type
  3069 ;;                  4    6[BANK0 ] unsigned char 
  3070 ;; Registers used:
  3071 ;;		wreg, status,2, status,0, btemp+1
  3072 ;; Tracked objects:
  3073 ;;		On entry : 0/0
  3074 ;;		On exit  : 0/0
  3075 ;;		Unchanged: 0/0
  3076 ;; Data sizes:     COMMON   BANK0   BANK1   BANK3   BANK2
  3077 ;;      Params:         0       8       0       0       0
  3078 ;;      Locals:         0      13       0       0       0
  3079 ;;      Temps:          0       5       0       0       0
  3080 ;;      Totals:         0      26       0       0       0
  3081 ;;Total ram usage:       26 bytes
  3082 ;; Hardware stack levels used: 1
  3083 ;; Hardware stack levels required when called: 1
  3084 ;; This function calls:
  3085 ;;		Nothing
  3086 ;; This function is called by:
  3087 ;;		_main
  3088 ;; This function uses a non-reentrant model
  3089 ;;
  3090                           
  3091     0363                     ___fldiv:	
  3092                           ;psect for function ___fldiv
  3093                           
  3094     0363                     l1431:	
  3095                           ;incstack = 0
  3096                           ; Regs used in ___fldiv: [wreg+status,2+status,0+btemp+1]
  3097                           
  3098     0363  1283               	bcf	3,5	;RP0=0, select bank0
  3099     0364  1303               	bcf	3,6	;RP1=0, select bank0
  3100     0365  082D               	movf	___fldiv@b+3,w
  3101     0366  3980               	andlw	128
  3102     0367  00B7               	movwf	___fldiv@sign
  3103     0368                     l1433:
  3104     0368  082D               	movf	___fldiv@b+3,w
  3105     0369  00AE               	movwf	??___fldiv
  3106     036A  072E               	addwf	??___fldiv,w
  3107     036B  00BE               	movwf	___fldiv@bexp
  3108     036C                     l1435:
  3109     036C  1FAC               	btfss	___fldiv@b+2,7
  3110     036D  2B6F               	goto	u1741
  3111     036E  2B70               	goto	u1740
  3112     036F                     u1741:
  3113     036F  2B71               	goto	l1439
  3114     0370                     u1740:
  3115     0370                     l1437:
  3116     0370  143E               	bsf	___fldiv@bexp,0
  3117     0371                     l1439:
  3118     0371  083E               	movf	___fldiv@bexp,w
  3119     0372  1903               	btfsc	3,2
  3120     0373  2B75               	goto	u1751
  3121     0374  2B76               	goto	u1750
  3122     0375                     u1751:
  3123     0375  2B86               	goto	l1449
  3124     0376                     u1750:
  3125     0376                     l1441:
  3126     0376  0A3E               	incf	___fldiv@bexp,w
  3127     0377  1D03               	btfss	3,2
  3128     0378  2B7A               	goto	u1761
  3129     0379  2B7B               	goto	u1760
  3130     037A                     u1761:
  3131     037A  2B83               	goto	l1445
  3132     037B                     u1760:
  3133     037B                     l1443:
  3134     037B  3000               	movlw	0
  3135     037C  00AD               	movwf	___fldiv@b+3
  3136     037D  3000               	movlw	0
  3137     037E  00AC               	movwf	___fldiv@b+2
  3138     037F  3000               	movlw	0
  3139     0380  00AB               	movwf	___fldiv@b+1
  3140     0381  3000               	movlw	0
  3141     0382  00AA               	movwf	___fldiv@b
  3142     0383                     l1445:
  3143     0383  17AC               	bsf	___fldiv@b+2,7
  3144     0384                     l1447:
  3145     0384  01AD               	clrf	___fldiv@b+3
  3146     0385  2B8E               	goto	l1451
  3147     0386                     l1449:
  3148     0386  3000               	movlw	0
  3149     0387  00AD               	movwf	___fldiv@b+3
  3150     0388  3000               	movlw	0
  3151     0389  00AC               	movwf	___fldiv@b+2
  3152     038A  3000               	movlw	0
  3153     038B  00AB               	movwf	___fldiv@b+1
  3154     038C  3000               	movlw	0
  3155     038D  00AA               	movwf	___fldiv@b
  3156     038E                     l1451:
  3157     038E  0829               	movf	___fldiv@a+3,w
  3158     038F  3980               	andlw	128
  3159     0390  00FF               	movwf	btemp+1
  3160     0391  087F               	movf	btemp+1,w
  3161     0392  06B7               	xorwf	___fldiv@sign,f
  3162     0393                     l1453:
  3163     0393  0829               	movf	___fldiv@a+3,w
  3164     0394  00AE               	movwf	??___fldiv
  3165     0395  072E               	addwf	??___fldiv,w
  3166     0396  00BF               	movwf	___fldiv@aexp
  3167     0397                     l1455:
  3168     0397  1FA8               	btfss	___fldiv@a+2,7
  3169     0398  2B9A               	goto	u1771
  3170     0399  2B9B               	goto	u1770
  3171     039A                     u1771:
  3172     039A  2B9C               	goto	l1459
  3173     039B                     u1770:
  3174     039B                     l1457:
  3175     039B  143F               	bsf	___fldiv@aexp,0
  3176     039C                     l1459:
  3177     039C  083F               	movf	___fldiv@aexp,w
  3178     039D  1903               	btfsc	3,2
  3179     039E  2BA0               	goto	u1781
  3180     039F  2BA1               	goto	u1780
  3181     03A0                     u1781:
  3182     03A0  2BB1               	goto	l1469
  3183     03A1                     u1780:
  3184     03A1                     l1461:
  3185     03A1  0A3F               	incf	___fldiv@aexp,w
  3186     03A2  1D03               	btfss	3,2
  3187     03A3  2BA5               	goto	u1791
  3188     03A4  2BA6               	goto	u1790
  3189     03A5                     u1791:
  3190     03A5  2BAE               	goto	l1465
  3191     03A6                     u1790:
  3192     03A6                     l1463:
  3193     03A6  3000               	movlw	0
  3194     03A7  00A9               	movwf	___fldiv@a+3
  3195     03A8  3000               	movlw	0
  3196     03A9  00A8               	movwf	___fldiv@a+2
  3197     03AA  3000               	movlw	0
  3198     03AB  00A7               	movwf	___fldiv@a+1
  3199     03AC  3000               	movlw	0
  3200     03AD  00A6               	movwf	___fldiv@a
  3201     03AE                     l1465:
  3202     03AE  17A8               	bsf	___fldiv@a+2,7
  3203     03AF                     l1467:
  3204     03AF  01A9               	clrf	___fldiv@a+3
  3205     03B0  2BB9               	goto	l526
  3206     03B1                     l1469:
  3207     03B1  3000               	movlw	0
  3208     03B2  00A9               	movwf	___fldiv@a+3
  3209     03B3  3000               	movlw	0
  3210     03B4  00A8               	movwf	___fldiv@a+2
  3211     03B5  3000               	movlw	0
  3212     03B6  00A7               	movwf	___fldiv@a+1
  3213     03B7  3000               	movlw	0
  3214     03B8  00A6               	movwf	___fldiv@a
  3215     03B9                     l526:
  3216     03B9  0829               	movf	___fldiv@a+3,w
  3217     03BA  0428               	iorwf	___fldiv@a+2,w
  3218     03BB  0427               	iorwf	___fldiv@a+1,w
  3219     03BC  0426               	iorwf	___fldiv@a,w
  3220     03BD  1D03               	skipz
  3221     03BE  2BC0               	goto	u1801
  3222     03BF  2BC1               	goto	u1800
  3223     03C0                     u1801:
  3224     03C0  2BDA               	goto	l1479
  3225     03C1                     u1800:
  3226     03C1                     l1471:
  3227     03C1  3000               	movlw	0
  3228     03C2  00AD               	movwf	___fldiv@b+3
  3229     03C3  3000               	movlw	0
  3230     03C4  00AC               	movwf	___fldiv@b+2
  3231     03C5  3000               	movlw	0
  3232     03C6  00AB               	movwf	___fldiv@b+1
  3233     03C7  3000               	movlw	0
  3234     03C8  00AA               	movwf	___fldiv@b
  3235     03C9  3080               	movlw	128
  3236     03CA  04AC               	iorwf	___fldiv@b+2,f
  3237     03CB  307F               	movlw	127
  3238     03CC  04AD               	iorwf	___fldiv@b+3,f
  3239     03CD                     l1473:
  3240     03CD  0837               	movf	___fldiv@sign,w
  3241     03CE  00FF               	movwf	btemp+1
  3242     03CF  087F               	movf	btemp+1,w
  3243     03D0  04AD               	iorwf	___fldiv@b+3,f
  3244     03D1                     l1475:
  3245     03D1  082D               	movf	___fldiv@b+3,w
  3246     03D2  00A9               	movwf	?___fldiv+3
  3247     03D3  082C               	movf	___fldiv@b+2,w
  3248     03D4  00A8               	movwf	?___fldiv+2
  3249     03D5  082B               	movf	___fldiv@b+1,w
  3250     03D6  00A7               	movwf	?___fldiv+1
  3251     03D7  082A               	movf	___fldiv@b,w
  3252     03D8  00A6               	movwf	?___fldiv
  3253     03D9  2D31               	goto	l528
  3254     03DA                     l1479:
  3255     03DA  083E               	movf	___fldiv@bexp,w
  3256     03DB  1D03               	btfss	3,2
  3257     03DC  2BDE               	goto	u1811
  3258     03DD  2BDF               	goto	u1810
  3259     03DE                     u1811:
  3260     03DE  2BE8               	goto	l1485
  3261     03DF                     u1810:
  3262     03DF                     l1481:
  3263     03DF  3000               	movlw	0
  3264     03E0  00A9               	movwf	?___fldiv+3
  3265     03E1  3000               	movlw	0
  3266     03E2  00A8               	movwf	?___fldiv+2
  3267     03E3  3000               	movlw	0
  3268     03E4  00A7               	movwf	?___fldiv+1
  3269     03E5  3000               	movlw	0
  3270     03E6  00A6               	movwf	?___fldiv
  3271     03E7  2D31               	goto	l528
  3272     03E8                     l1485:
  3273     03E8  083E               	movf	___fldiv@bexp,w
  3274     03E9  00AE               	movwf	??___fldiv
  3275     03EA  01AF               	clrf	??___fldiv+1
  3276     03EB  082F               	movf	??___fldiv+1,w
  3277     03EC  00B1               	movwf	??___fldiv+3
  3278     03ED  083F               	movf	___fldiv@aexp,w
  3279     03EE  022E               	subwf	??___fldiv,w
  3280     03EF  00B0               	movwf	??___fldiv+2
  3281     03F0  1C03               	skipc
  3282     03F1  03B1               	decf	??___fldiv+3,f
  3283     03F2  0830               	movf	??___fldiv+2,w
  3284     03F3  3E7F               	addlw	127
  3285     03F4  00B8               	movwf	___fldiv@new_exp
  3286     03F5  0831               	movf	??___fldiv+3,w
  3287     03F6  1803               	skipnc
  3288     03F7  3E01               	addlw	1
  3289     03F8  3E00               	addlw	0
  3290     03F9  00B9               	movwf	___fldiv@new_exp+1
  3291     03FA                     l1487:
  3292     03FA  082D               	movf	___fldiv@b+3,w
  3293     03FB  00B6               	movwf	___fldiv@rem+3
  3294     03FC  082C               	movf	___fldiv@b+2,w
  3295     03FD  00B5               	movwf	___fldiv@rem+2
  3296     03FE  082B               	movf	___fldiv@b+1,w
  3297     03FF  00B4               	movwf	___fldiv@rem+1
  3298     0400  082A               	movf	___fldiv@b,w
  3299     0401  00B3               	movwf	___fldiv@rem
  3300     0402                     l1489:
  3301     0402  3000               	movlw	0
  3302     0403  00AD               	movwf	___fldiv@b+3
  3303     0404  3000               	movlw	0
  3304     0405  00AC               	movwf	___fldiv@b+2
  3305     0406  3000               	movlw	0
  3306     0407  00AB               	movwf	___fldiv@b+1
  3307     0408  3000               	movlw	0
  3308     0409  00AA               	movwf	___fldiv@b
  3309     040A                     l1491:
  3310     040A  3000               	movlw	0
  3311     040B  00BD               	movwf	___fldiv@grs+3
  3312     040C  3000               	movlw	0
  3313     040D  00BC               	movwf	___fldiv@grs+2
  3314     040E  3000               	movlw	0
  3315     040F  00BB               	movwf	___fldiv@grs+1
  3316     0410  3000               	movlw	0
  3317     0411  00BA               	movwf	___fldiv@grs
  3318     0412                     l1493:
  3319     0412  01BF               	clrf	___fldiv@aexp
  3320     0413  2C5E               	goto	l1513
  3321     0414                     l1495:
  3322     0414  083F               	movf	___fldiv@aexp,w
  3323     0415  1903               	btfsc	3,2
  3324     0416  2C18               	goto	u1821
  3325     0417  2C19               	goto	u1820
  3326     0418                     u1821:
  3327     0418  2C39               	goto	l1505
  3328     0419                     u1820:
  3329     0419                     l1497:
  3330     0419  3001               	movlw	1
  3331     041A  00AE               	movwf	??___fldiv
  3332     041B                     u1835:
  3333     041B  1003               	clrc
  3334     041C  0DB3               	rlf	___fldiv@rem,f
  3335     041D  0DB4               	rlf	___fldiv@rem+1,f
  3336     041E  0DB5               	rlf	___fldiv@rem+2,f
  3337     041F  0DB6               	rlf	___fldiv@rem+3,f
  3338     0420  0BAE               	decfsz	??___fldiv,f
  3339     0421  2C1B               	goto	u1835
  3340     0422  3001               	movlw	1
  3341     0423  00AE               	movwf	??___fldiv
  3342     0424                     u1845:
  3343     0424  1003               	clrc
  3344     0425  0DAA               	rlf	___fldiv@b,f
  3345     0426  0DAB               	rlf	___fldiv@b+1,f
  3346     0427  0DAC               	rlf	___fldiv@b+2,f
  3347     0428  0DAD               	rlf	___fldiv@b+3,f
  3348     0429  0BAE               	decfsz	??___fldiv,f
  3349     042A  2C24               	goto	u1845
  3350     042B                     l1499:
  3351     042B  1FBD               	btfss	___fldiv@grs+3,7
  3352     042C  2C2E               	goto	u1851
  3353     042D  2C2F               	goto	u1850
  3354     042E                     u1851:
  3355     042E  2C30               	goto	l1503
  3356     042F                     u1850:
  3357     042F                     l1501:
  3358     042F  142A               	bsf	___fldiv@b,0
  3359     0430                     l1503:
  3360     0430  3001               	movlw	1
  3361     0431  00AE               	movwf	??___fldiv
  3362     0432                     u1865:
  3363     0432  1003               	clrc
  3364     0433  0DBA               	rlf	___fldiv@grs,f
  3365     0434  0DBB               	rlf	___fldiv@grs+1,f
  3366     0435  0DBC               	rlf	___fldiv@grs+2,f
  3367     0436  0DBD               	rlf	___fldiv@grs+3,f
  3368     0437  0BAE               	decfsz	??___fldiv,f
  3369     0438  2C32               	goto	u1865
  3370     0439                     l1505:
  3371     0439  0829               	movf	___fldiv@a+3,w
  3372     043A  0236               	subwf	___fldiv@rem+3,w
  3373     043B  1D03               	skipz
  3374     043C  2C47               	goto	u1875
  3375     043D  0828               	movf	___fldiv@a+2,w
  3376     043E  0235               	subwf	___fldiv@rem+2,w
  3377     043F  1D03               	skipz
  3378     0440  2C47               	goto	u1875
  3379     0441  0827               	movf	___fldiv@a+1,w
  3380     0442  0234               	subwf	___fldiv@rem+1,w
  3381     0443  1D03               	skipz
  3382     0444  2C47               	goto	u1875
  3383     0445  0826               	movf	___fldiv@a,w
  3384     0446  0233               	subwf	___fldiv@rem,w
  3385     0447                     u1875:
  3386     0447  1C03               	skipc
  3387     0448  2C4A               	goto	u1871
  3388     0449  2C4B               	goto	u1870
  3389     044A                     u1871:
  3390     044A  2C5A               	goto	l1511
  3391     044B                     u1870:
  3392     044B                     l1507:
  3393     044B  173D               	bsf	___fldiv@grs+3,6
  3394     044C                     l1509:
  3395     044C  0826               	movf	___fldiv@a,w
  3396     044D  02B3               	subwf	___fldiv@rem,f
  3397     044E  0827               	movf	___fldiv@a+1,w
  3398     044F  1C03               	skipc
  3399     0450  0F27               	incfsz	___fldiv@a+1,w
  3400     0451  02B4               	subwf	___fldiv@rem+1,f
  3401     0452  0828               	movf	___fldiv@a+2,w
  3402     0453  1C03               	skipc
  3403     0454  0F28               	incfsz	___fldiv@a+2,w
  3404     0455  02B5               	subwf	___fldiv@rem+2,f
  3405     0456  0829               	movf	___fldiv@a+3,w
  3406     0457  1C03               	skipc
  3407     0458  0F29               	incfsz	___fldiv@a+3,w
  3408     0459  02B6               	subwf	___fldiv@rem+3,f
  3409     045A                     l1511:
  3410     045A  3001               	movlw	1
  3411     045B  00FF               	movwf	btemp+1
  3412     045C  087F               	movf	btemp+1,w
  3413     045D  07BF               	addwf	___fldiv@aexp,f
  3414     045E                     l1513:
  3415     045E  301A               	movlw	26
  3416     045F  023F               	subwf	___fldiv@aexp,w
  3417     0460  1C03               	skipc
  3418     0461  2C63               	goto	u1881
  3419     0462  2C64               	goto	u1880
  3420     0463                     u1881:
  3421     0463  2C14               	goto	l1495
  3422     0464                     u1880:
  3423     0464                     l1515:
  3424     0464  0836               	movf	___fldiv@rem+3,w
  3425     0465  0435               	iorwf	___fldiv@rem+2,w
  3426     0466  0434               	iorwf	___fldiv@rem+1,w
  3427     0467  0433               	iorwf	___fldiv@rem,w
  3428     0468  1903               	skipnz
  3429     0469  2C6B               	goto	u1891
  3430     046A  2C6C               	goto	u1890
  3431     046B                     u1891:
  3432     046B  2C8B               	goto	l1529
  3433     046C                     u1890:
  3434     046C                     l1517:
  3435     046C  143A               	bsf	___fldiv@grs,0
  3436     046D  2C8B               	goto	l1529
  3437     046E                     l1519:
  3438     046E  3001               	movlw	1
  3439     046F  00AE               	movwf	??___fldiv
  3440     0470                     u1905:
  3441     0470  1003               	clrc
  3442     0471  0DAA               	rlf	___fldiv@b,f
  3443     0472  0DAB               	rlf	___fldiv@b+1,f
  3444     0473  0DAC               	rlf	___fldiv@b+2,f
  3445     0474  0DAD               	rlf	___fldiv@b+3,f
  3446     0475  0BAE               	decfsz	??___fldiv,f
  3447     0476  2C70               	goto	u1905
  3448     0477                     l1521:
  3449     0477  1FBD               	btfss	___fldiv@grs+3,7
  3450     0478  2C7A               	goto	u1911
  3451     0479  2C7B               	goto	u1910
  3452     047A                     u1911:
  3453     047A  2C7C               	goto	l1525
  3454     047B                     u1910:
  3455     047B                     l1523:
  3456     047B  142A               	bsf	___fldiv@b,0
  3457     047C                     l1525:
  3458     047C  3001               	movlw	1
  3459     047D  00AE               	movwf	??___fldiv
  3460     047E                     u1925:
  3461     047E  1003               	clrc
  3462     047F  0DBA               	rlf	___fldiv@grs,f
  3463     0480  0DBB               	rlf	___fldiv@grs+1,f
  3464     0481  0DBC               	rlf	___fldiv@grs+2,f
  3465     0482  0DBD               	rlf	___fldiv@grs+3,f
  3466     0483  0BAE               	decfsz	??___fldiv,f
  3467     0484  2C7E               	goto	u1925
  3468     0485                     l1527:
  3469     0485  30FF               	movlw	255
  3470     0486  07B8               	addwf	___fldiv@new_exp,f
  3471     0487  1803               	skipnc
  3472     0488  0AB9               	incf	___fldiv@new_exp+1,f
  3473     0489  30FF               	movlw	255
  3474     048A  07B9               	addwf	___fldiv@new_exp+1,f
  3475     048B                     l1529:
  3476     048B  1FAC               	btfss	___fldiv@b+2,7
  3477     048C  2C8E               	goto	u1931
  3478     048D  2C8F               	goto	u1930
  3479     048E                     u1931:
  3480     048E  2C6E               	goto	l1519
  3481     048F                     u1930:
  3482     048F                     l1531:
  3483     048F  01BF               	clrf	___fldiv@aexp
  3484     0490                     l1533:
  3485     0490  1FBD               	btfss	___fldiv@grs+3,7
  3486     0491  2C93               	goto	u1941
  3487     0492  2C94               	goto	u1940
  3488     0493                     u1941:
  3489     0493  2CB0               	goto	l1541
  3490     0494                     u1940:
  3491     0494                     l1535:
  3492     0494  30FF               	movlw	255
  3493     0495  053A               	andwf	___fldiv@grs,w
  3494     0496  00AE               	movwf	??___fldiv
  3495     0497  30FF               	movlw	255
  3496     0498  053B               	andwf	___fldiv@grs+1,w
  3497     0499  00AF               	movwf	??___fldiv+1
  3498     049A  30FF               	movlw	255
  3499     049B  053C               	andwf	___fldiv@grs+2,w
  3500     049C  00B0               	movwf	??___fldiv+2
  3501     049D  307F               	movlw	127
  3502     049E  053D               	andwf	___fldiv@grs+3,w
  3503     049F  00B1               	movwf	??___fldiv+3
  3504     04A0  0831               	movf	??___fldiv+3,w
  3505     04A1  0430               	iorwf	??___fldiv+2,w
  3506     04A2  042F               	iorwf	??___fldiv+1,w
  3507     04A3  042E               	iorwf	??___fldiv,w
  3508     04A4  1903               	skipnz
  3509     04A5  2CA7               	goto	u1951
  3510     04A6  2CA8               	goto	u1950
  3511     04A7                     u1951:
  3512     04A7  2CAB               	goto	l542
  3513     04A8                     u1950:
  3514     04A8                     l1537:
  3515     04A8  01BF               	clrf	___fldiv@aexp
  3516     04A9  0ABF               	incf	___fldiv@aexp,f
  3517     04AA  2CB0               	goto	l1541
  3518     04AB                     l542:
  3519     04AB  1C2A               	btfss	___fldiv@b,0
  3520     04AC  2CAE               	goto	u1961
  3521     04AD  2CAF               	goto	u1960
  3522     04AE                     u1961:
  3523     04AE  2CB0               	goto	l1541
  3524     04AF                     u1960:
  3525     04AF  2CA8               	goto	l1537
  3526     04B0                     l1541:
  3527     04B0  083F               	movf	___fldiv@aexp,w
  3528     04B1  1903               	btfsc	3,2
  3529     04B2  2CB4               	goto	u1971
  3530     04B3  2CB5               	goto	u1970
  3531     04B4                     u1971:
  3532     04B4  2CE6               	goto	l1551
  3533     04B5                     u1970:
  3534     04B5                     l1543:
  3535     04B5  3001               	movlw	1
  3536     04B6  07AA               	addwf	___fldiv@b,f
  3537     04B7  3000               	movlw	0
  3538     04B8  1803               	skipnc
  3539     04B9  3001               	movlw	1
  3540     04BA  07AB               	addwf	___fldiv@b+1,f
  3541     04BB  3000               	movlw	0
  3542     04BC  1803               	skipnc
  3543     04BD  3001               	movlw	1
  3544     04BE  07AC               	addwf	___fldiv@b+2,f
  3545     04BF  3000               	movlw	0
  3546     04C0  1803               	skipnc
  3547     04C1  3001               	movlw	1
  3548     04C2  07AD               	addwf	___fldiv@b+3,f
  3549     04C3                     l1545:
  3550     04C3  1C2D               	btfss	___fldiv@b+3,0
  3551     04C4  2CC6               	goto	u1981
  3552     04C5  2CC7               	goto	u1980
  3553     04C6                     u1981:
  3554     04C6  2CE6               	goto	l1551
  3555     04C7                     u1980:
  3556     04C7                     l1547:
  3557     04C7  082A               	movf	___fldiv@b,w
  3558     04C8  00AE               	movwf	??___fldiv
  3559     04C9  082B               	movf	___fldiv@b+1,w
  3560     04CA  00AF               	movwf	??___fldiv+1
  3561     04CB  082C               	movf	___fldiv@b+2,w
  3562     04CC  00B0               	movwf	??___fldiv+2
  3563     04CD  082D               	movf	___fldiv@b+3,w
  3564     04CE  00B1               	movwf	??___fldiv+3
  3565     04CF  3001               	movlw	1
  3566     04D0  00B2               	movwf	??___fldiv+4
  3567     04D1                     u1995:
  3568     04D1  0D31               	rlf	??___fldiv+3,w
  3569     04D2  0CB1               	rrf	??___fldiv+3,f
  3570     04D3  0CB0               	rrf	??___fldiv+2,f
  3571     04D4  0CAF               	rrf	??___fldiv+1,f
  3572     04D5  0CAE               	rrf	??___fldiv,f
  3573     04D6                     u1990:
  3574     04D6  0BB2               	decfsz	??___fldiv+4,f
  3575     04D7  2CD1               	goto	u1995
  3576     04D8  0831               	movf	??___fldiv+3,w
  3577     04D9  00AD               	movwf	___fldiv@b+3
  3578     04DA  0830               	movf	??___fldiv+2,w
  3579     04DB  00AC               	movwf	___fldiv@b+2
  3580     04DC  082F               	movf	??___fldiv+1,w
  3581     04DD  00AB               	movwf	___fldiv@b+1
  3582     04DE  082E               	movf	??___fldiv,w
  3583     04DF  00AA               	movwf	___fldiv@b
  3584     04E0                     l1549:
  3585     04E0  3001               	movlw	1
  3586     04E1  07B8               	addwf	___fldiv@new_exp,f
  3587     04E2  1803               	skipnc
  3588     04E3  0AB9               	incf	___fldiv@new_exp+1,f
  3589     04E4  3000               	movlw	0
  3590     04E5  07B9               	addwf	___fldiv@new_exp+1,f
  3591     04E6                     l1551:
  3592     04E6  0839               	movf	___fldiv@new_exp+1,w
  3593     04E7  3A80               	xorlw	128
  3594     04E8  00FF               	movwf	btemp+1
  3595     04E9  3080               	movlw	128
  3596     04EA  027F               	subwf	btemp+1,w
  3597     04EB  1D03               	skipz
  3598     04EC  2CEF               	goto	u2005
  3599     04ED  30FF               	movlw	255
  3600     04EE  0238               	subwf	___fldiv@new_exp,w
  3601     04EF                     u2005:
  3602     04EF  1C03               	skipc
  3603     04F0  2CF2               	goto	u2001
  3604     04F1  2CF3               	goto	u2000
  3605     04F2                     u2001:
  3606     04F2  2D01               	goto	l1555
  3607     04F3                     u2000:
  3608     04F3                     l1553:
  3609     04F3  30FF               	movlw	255
  3610     04F4  1283               	bcf	3,5	;RP0=0, select bank0
  3611     04F5  1303               	bcf	3,6	;RP1=0, select bank0
  3612     04F6  00B8               	movwf	___fldiv@new_exp
  3613     04F7  3000               	movlw	0
  3614     04F8  00B9               	movwf	___fldiv@new_exp+1
  3615     04F9  3000               	movlw	0
  3616     04FA  00AD               	movwf	___fldiv@b+3
  3617     04FB  3000               	movlw	0
  3618     04FC  00AC               	movwf	___fldiv@b+2
  3619     04FD  3000               	movlw	0
  3620     04FE  00AB               	movwf	___fldiv@b+1
  3621     04FF  3000               	movlw	0
  3622     0500  00AA               	movwf	___fldiv@b
  3623     0501                     l1555:
  3624     0501  1283               	bcf	3,5	;RP0=0, select bank0
  3625     0502  1303               	bcf	3,6	;RP1=0, select bank0
  3626     0503  0839               	movf	___fldiv@new_exp+1,w
  3627     0504  3A80               	xorlw	128
  3628     0505  00FF               	movwf	btemp+1
  3629     0506  3080               	movlw	128
  3630     0507  027F               	subwf	btemp+1,w
  3631     0508  1D03               	skipz
  3632     0509  2D0C               	goto	u2015
  3633     050A  3001               	movlw	1
  3634     050B  0238               	subwf	___fldiv@new_exp,w
  3635     050C                     u2015:
  3636     050C  1803               	skipnc
  3637     050D  2D0F               	goto	u2011
  3638     050E  2D10               	goto	u2010
  3639     050F                     u2011:
  3640     050F  2D1D               	goto	l548
  3641     0510                     u2010:
  3642     0510                     l1557:
  3643     0510  1283               	bcf	3,5	;RP0=0, select bank0
  3644     0511  1303               	bcf	3,6	;RP1=0, select bank0
  3645     0512  01B8               	clrf	___fldiv@new_exp
  3646     0513  01B9               	clrf	___fldiv@new_exp+1
  3647     0514                     l1559:
  3648     0514  3000               	movlw	0
  3649     0515  00AD               	movwf	___fldiv@b+3
  3650     0516  3000               	movlw	0
  3651     0517  00AC               	movwf	___fldiv@b+2
  3652     0518  3000               	movlw	0
  3653     0519  00AB               	movwf	___fldiv@b+1
  3654     051A  3000               	movlw	0
  3655     051B  00AA               	movwf	___fldiv@b
  3656     051C                     l1561:
  3657     051C  01B7               	clrf	___fldiv@sign
  3658     051D                     l548:
  3659     051D  1283               	bcf	3,5	;RP0=0, select bank0
  3660     051E  1303               	bcf	3,6	;RP1=0, select bank0
  3661     051F  0838               	movf	___fldiv@new_exp,w
  3662     0520  00BE               	movwf	___fldiv@bexp
  3663     0521                     l1563:
  3664     0521  1C3E               	btfss	___fldiv@bexp,0
  3665     0522  2D24               	goto	u2021
  3666     0523  2D25               	goto	u2020
  3667     0524                     u2021:
  3668     0524  2D27               	goto	l1567
  3669     0525                     u2020:
  3670     0525                     l1565:
  3671     0525  17AC               	bsf	___fldiv@b+2,7
  3672     0526  2D2B               	goto	l1569
  3673     0527                     l1567:
  3674     0527  307F               	movlw	127
  3675     0528  00FF               	movwf	btemp+1
  3676     0529  087F               	movf	btemp+1,w
  3677     052A  05AC               	andwf	___fldiv@b+2,f
  3678     052B                     l1569:
  3679     052B  083E               	movf	___fldiv@bexp,w
  3680     052C  00AE               	movwf	??___fldiv
  3681     052D  1003               	clrc
  3682     052E  0C2E               	rrf	??___fldiv,w
  3683     052F  00AD               	movwf	___fldiv@b+3
  3684     0530  2BCD               	goto	l1473
  3685     0531                     l528:
  3686     0531  0008               	return
  3687     0532                     __end_of___fldiv:
  3688                           
  3689                           	psect	text12
  3690     0F3C                     __ptext12:	
  3691 ;; *************** function ___awmod *****************
  3692 ;; Defined at:
  3693 ;;		line 5 in file "C:\Program Files\Microchip\xc8\v2.45\pic\sources\c99\common\awmod.c"
  3694 ;; Parameters:    Size  Location     Type
  3695 ;;  divisor         2    2[BANK0 ] int 
  3696 ;;  dividend        2    4[BANK0 ] int 
  3697 ;; Auto vars:     Size  Location     Type
  3698 ;;  sign            1    7[BANK0 ] unsigned char 
  3699 ;;  counter         1    6[BANK0 ] unsigned char 
  3700 ;; Return value:  Size  Location     Type
  3701 ;;                  2    2[BANK0 ] int 
  3702 ;; Registers used:
  3703 ;;		wreg, status,2, status,0, btemp+1
  3704 ;; Tracked objects:
  3705 ;;		On entry : 0/0
  3706 ;;		On exit  : 0/0
  3707 ;;		Unchanged: 0/0
  3708 ;; Data sizes:     COMMON   BANK0   BANK1   BANK3   BANK2
  3709 ;;      Params:         0       4       0       0       0
  3710 ;;      Locals:         0       2       0       0       0
  3711 ;;      Temps:          0       0       0       0       0
  3712 ;;      Totals:         0       6       0       0       0
  3713 ;;Total ram usage:        6 bytes
  3714 ;; Hardware stack levels used: 1
  3715 ;; Hardware stack levels required when called: 1
  3716 ;; This function calls:
  3717 ;;		Nothing
  3718 ;; This function is called by:
  3719 ;;		_main
  3720 ;; This function uses a non-reentrant model
  3721 ;;
  3722                           
  3723     0F3C                     ___awmod:	
  3724                           ;psect for function ___awmod
  3725                           
  3726     0F3C                     l1307:	
  3727                           ;incstack = 0
  3728                           ; Regs used in ___awmod: [wreg+status,2+status,0+btemp+1]
  3729                           
  3730     0F3C  1283               	bcf	3,5	;RP0=0, select bank0
  3731     0F3D  1303               	bcf	3,6	;RP1=0, select bank0
  3732     0F3E  01A7               	clrf	___awmod@sign
  3733     0F3F                     l1309:
  3734     0F3F  1FA5               	btfss	___awmod@dividend+1,7
  3735     0F40  2F42               	goto	u1421
  3736     0F41  2F43               	goto	u1420
  3737     0F42                     u1421:
  3738     0F42  2F4A               	goto	l1315
  3739     0F43                     u1420:
  3740     0F43                     l1311:
  3741     0F43  09A4               	comf	___awmod@dividend,f
  3742     0F44  09A5               	comf	___awmod@dividend+1,f
  3743     0F45  0AA4               	incf	___awmod@dividend,f
  3744     0F46  1903               	skipnz
  3745     0F47  0AA5               	incf	___awmod@dividend+1,f
  3746     0F48                     l1313:
  3747     0F48  01A7               	clrf	___awmod@sign
  3748     0F49  0AA7               	incf	___awmod@sign,f
  3749     0F4A                     l1315:
  3750     0F4A  1FA3               	btfss	___awmod@divisor+1,7
  3751     0F4B  2F4D               	goto	u1431
  3752     0F4C  2F4E               	goto	u1430
  3753     0F4D                     u1431:
  3754     0F4D  2F53               	goto	l1319
  3755     0F4E                     u1430:
  3756     0F4E                     l1317:
  3757     0F4E  09A2               	comf	___awmod@divisor,f
  3758     0F4F  09A3               	comf	___awmod@divisor+1,f
  3759     0F50  0AA2               	incf	___awmod@divisor,f
  3760     0F51  1903               	skipnz
  3761     0F52  0AA3               	incf	___awmod@divisor+1,f
  3762     0F53                     l1319:
  3763     0F53  0822               	movf	___awmod@divisor,w
  3764     0F54  0423               	iorwf	___awmod@divisor+1,w
  3765     0F55  1903               	btfsc	3,2
  3766     0F56  2F58               	goto	u1441
  3767     0F57  2F59               	goto	u1440
  3768     0F58                     u1441:
  3769     0F58  2F88               	goto	l1337
  3770     0F59                     u1440:
  3771     0F59                     l1321:
  3772     0F59  01A6               	clrf	___awmod@counter
  3773     0F5A  0AA6               	incf	___awmod@counter,f
  3774     0F5B  2F67               	goto	l1327
  3775     0F5C                     l1323:
  3776     0F5C  3001               	movlw	1
  3777     0F5D                     u1455:
  3778     0F5D  1003               	clrc
  3779     0F5E  0DA2               	rlf	___awmod@divisor,f
  3780     0F5F  0DA3               	rlf	___awmod@divisor+1,f
  3781     0F60  3EFF               	addlw	-1
  3782     0F61  1D03               	skipz
  3783     0F62  2F5D               	goto	u1455
  3784     0F63                     l1325:
  3785     0F63  3001               	movlw	1
  3786     0F64  00FF               	movwf	btemp+1
  3787     0F65  087F               	movf	btemp+1,w
  3788     0F66  07A6               	addwf	___awmod@counter,f
  3789     0F67                     l1327:
  3790     0F67  1FA3               	btfss	___awmod@divisor+1,7
  3791     0F68  2F6A               	goto	u1461
  3792     0F69  2F6B               	goto	u1460
  3793     0F6A                     u1461:
  3794     0F6A  2F5C               	goto	l1323
  3795     0F6B                     u1460:
  3796     0F6B                     l1329:
  3797     0F6B  0823               	movf	___awmod@divisor+1,w
  3798     0F6C  0225               	subwf	___awmod@dividend+1,w
  3799     0F6D  1D03               	skipz
  3800     0F6E  2F71               	goto	u1475
  3801     0F6F  0822               	movf	___awmod@divisor,w
  3802     0F70  0224               	subwf	___awmod@dividend,w
  3803     0F71                     u1475:
  3804     0F71  1C03               	skipc
  3805     0F72  2F74               	goto	u1471
  3806     0F73  2F75               	goto	u1470
  3807     0F74                     u1471:
  3808     0F74  2F7B               	goto	l1333
  3809     0F75                     u1470:
  3810     0F75                     l1331:
  3811     0F75  0822               	movf	___awmod@divisor,w
  3812     0F76  02A4               	subwf	___awmod@dividend,f
  3813     0F77  0823               	movf	___awmod@divisor+1,w
  3814     0F78  1C03               	skipc
  3815     0F79  03A5               	decf	___awmod@dividend+1,f
  3816     0F7A  02A5               	subwf	___awmod@dividend+1,f
  3817     0F7B                     l1333:
  3818     0F7B  3001               	movlw	1
  3819     0F7C                     u1485:
  3820     0F7C  1003               	clrc
  3821     0F7D  0CA3               	rrf	___awmod@divisor+1,f
  3822     0F7E  0CA2               	rrf	___awmod@divisor,f
  3823     0F7F  3EFF               	addlw	-1
  3824     0F80  1D03               	skipz
  3825     0F81  2F7C               	goto	u1485
  3826     0F82                     l1335:
  3827     0F82  3001               	movlw	1
  3828     0F83  02A6               	subwf	___awmod@counter,f
  3829     0F84  1D03               	btfss	3,2
  3830     0F85  2F87               	goto	u1491
  3831     0F86  2F88               	goto	u1490
  3832     0F87                     u1491:
  3833     0F87  2F6B               	goto	l1329
  3834     0F88                     u1490:
  3835     0F88                     l1337:
  3836     0F88  0827               	movf	___awmod@sign,w
  3837     0F89  1903               	btfsc	3,2
  3838     0F8A  2F8C               	goto	u1501
  3839     0F8B  2F8D               	goto	u1500
  3840     0F8C                     u1501:
  3841     0F8C  2F92               	goto	l1341
  3842     0F8D                     u1500:
  3843     0F8D                     l1339:
  3844     0F8D  09A4               	comf	___awmod@dividend,f
  3845     0F8E  09A5               	comf	___awmod@dividend+1,f
  3846     0F8F  0AA4               	incf	___awmod@dividend,f
  3847     0F90  1903               	skipnz
  3848     0F91  0AA5               	incf	___awmod@dividend+1,f
  3849     0F92                     l1341:
  3850     0F92  0825               	movf	___awmod@dividend+1,w
  3851     0F93  00A3               	movwf	?___awmod+1
  3852     0F94  0824               	movf	___awmod@dividend,w
  3853     0F95  00A2               	movwf	?___awmod
  3854     0F96                     l335:
  3855     0F96  0008               	return
  3856     0F97                     __end_of___awmod:
  3857                           
  3858                           	psect	text13
  3859     0F97                     __ptext13:	
  3860 ;; *************** function ___awdiv *****************
  3861 ;; Defined at:
  3862 ;;		line 5 in file "C:\Program Files\Microchip\xc8\v2.45\pic\sources\c99\common\awdiv.c"
  3863 ;; Parameters:    Size  Location     Type
  3864 ;;  divisor         2    2[BANK0 ] int 
  3865 ;;  dividend        2    4[BANK0 ] int 
  3866 ;; Auto vars:     Size  Location     Type
  3867 ;;  quotient        2    8[BANK0 ] int 
  3868 ;;  sign            1    7[BANK0 ] unsigned char 
  3869 ;;  counter         1    6[BANK0 ] unsigned char 
  3870 ;; Return value:  Size  Location     Type
  3871 ;;                  2    2[BANK0 ] int 
  3872 ;; Registers used:
  3873 ;;		wreg, status,2, status,0, btemp+1
  3874 ;; Tracked objects:
  3875 ;;		On entry : 0/0
  3876 ;;		On exit  : 0/0
  3877 ;;		Unchanged: 0/0
  3878 ;; Data sizes:     COMMON   BANK0   BANK1   BANK3   BANK2
  3879 ;;      Params:         0       4       0       0       0
  3880 ;;      Locals:         0       4       0       0       0
  3881 ;;      Temps:          0       0       0       0       0
  3882 ;;      Totals:         0       8       0       0       0
  3883 ;;Total ram usage:        8 bytes
  3884 ;; Hardware stack levels used: 1
  3885 ;; Hardware stack levels required when called: 1
  3886 ;; This function calls:
  3887 ;;		Nothing
  3888 ;; This function is called by:
  3889 ;;		_main
  3890 ;; This function uses a non-reentrant model
  3891 ;;
  3892                           
  3893     0F97                     ___awdiv:	
  3894                           ;psect for function ___awdiv
  3895                           
  3896     0F97                     l1263:	
  3897                           ;incstack = 0
  3898                           ; Regs used in ___awdiv: [wreg+status,2+status,0+btemp+1]
  3899                           
  3900     0F97  1283               	bcf	3,5	;RP0=0, select bank0
  3901     0F98  1303               	bcf	3,6	;RP1=0, select bank0
  3902     0F99  01A7               	clrf	___awdiv@sign
  3903     0F9A                     l1265:
  3904     0F9A  1FA3               	btfss	___awdiv@divisor+1,7
  3905     0F9B  2F9D               	goto	u1321
  3906     0F9C  2F9E               	goto	u1320
  3907     0F9D                     u1321:
  3908     0F9D  2FA5               	goto	l1271
  3909     0F9E                     u1320:
  3910     0F9E                     l1267:
  3911     0F9E  09A2               	comf	___awdiv@divisor,f
  3912     0F9F  09A3               	comf	___awdiv@divisor+1,f
  3913     0FA0  0AA2               	incf	___awdiv@divisor,f
  3914     0FA1  1903               	skipnz
  3915     0FA2  0AA3               	incf	___awdiv@divisor+1,f
  3916     0FA3                     l1269:
  3917     0FA3  01A7               	clrf	___awdiv@sign
  3918     0FA4  0AA7               	incf	___awdiv@sign,f
  3919     0FA5                     l1271:
  3920     0FA5  1FA5               	btfss	___awdiv@dividend+1,7
  3921     0FA6  2FA8               	goto	u1331
  3922     0FA7  2FA9               	goto	u1330
  3923     0FA8                     u1331:
  3924     0FA8  2FB2               	goto	l1277
  3925     0FA9                     u1330:
  3926     0FA9                     l1273:
  3927     0FA9  09A4               	comf	___awdiv@dividend,f
  3928     0FAA  09A5               	comf	___awdiv@dividend+1,f
  3929     0FAB  0AA4               	incf	___awdiv@dividend,f
  3930     0FAC  1903               	skipnz
  3931     0FAD  0AA5               	incf	___awdiv@dividend+1,f
  3932     0FAE                     l1275:
  3933     0FAE  3001               	movlw	1
  3934     0FAF  00FF               	movwf	btemp+1
  3935     0FB0  087F               	movf	btemp+1,w
  3936     0FB1  06A7               	xorwf	___awdiv@sign,f
  3937     0FB2                     l1277:
  3938     0FB2  01A8               	clrf	___awdiv@quotient
  3939     0FB3  01A9               	clrf	___awdiv@quotient+1
  3940     0FB4                     l1279:
  3941     0FB4  0822               	movf	___awdiv@divisor,w
  3942     0FB5  0423               	iorwf	___awdiv@divisor+1,w
  3943     0FB6  1903               	btfsc	3,2
  3944     0FB7  2FB9               	goto	u1341
  3945     0FB8  2FBA               	goto	u1340
  3946     0FB9                     u1341:
  3947     0FB9  2FF1               	goto	l1299
  3948     0FBA                     u1340:
  3949     0FBA                     l1281:
  3950     0FBA  01A6               	clrf	___awdiv@counter
  3951     0FBB  0AA6               	incf	___awdiv@counter,f
  3952     0FBC  2FC8               	goto	l1287
  3953     0FBD                     l1283:
  3954     0FBD  3001               	movlw	1
  3955     0FBE                     u1355:
  3956     0FBE  1003               	clrc
  3957     0FBF  0DA2               	rlf	___awdiv@divisor,f
  3958     0FC0  0DA3               	rlf	___awdiv@divisor+1,f
  3959     0FC1  3EFF               	addlw	-1
  3960     0FC2  1D03               	skipz
  3961     0FC3  2FBE               	goto	u1355
  3962     0FC4                     l1285:
  3963     0FC4  3001               	movlw	1
  3964     0FC5  00FF               	movwf	btemp+1
  3965     0FC6  087F               	movf	btemp+1,w
  3966     0FC7  07A6               	addwf	___awdiv@counter,f
  3967     0FC8                     l1287:
  3968     0FC8  1FA3               	btfss	___awdiv@divisor+1,7
  3969     0FC9  2FCB               	goto	u1361
  3970     0FCA  2FCC               	goto	u1360
  3971     0FCB                     u1361:
  3972     0FCB  2FBD               	goto	l1283
  3973     0FCC                     u1360:
  3974     0FCC                     l1289:
  3975     0FCC  3001               	movlw	1
  3976     0FCD                     u1375:
  3977     0FCD  1003               	clrc
  3978     0FCE  0DA8               	rlf	___awdiv@quotient,f
  3979     0FCF  0DA9               	rlf	___awdiv@quotient+1,f
  3980     0FD0  3EFF               	addlw	-1
  3981     0FD1  1D03               	skipz
  3982     0FD2  2FCD               	goto	u1375
  3983     0FD3  0823               	movf	___awdiv@divisor+1,w
  3984     0FD4  0225               	subwf	___awdiv@dividend+1,w
  3985     0FD5  1D03               	skipz
  3986     0FD6  2FD9               	goto	u1385
  3987     0FD7  0822               	movf	___awdiv@divisor,w
  3988     0FD8  0224               	subwf	___awdiv@dividend,w
  3989     0FD9                     u1385:
  3990     0FD9  1C03               	skipc
  3991     0FDA  2FDC               	goto	u1381
  3992     0FDB  2FDD               	goto	u1380
  3993     0FDC                     u1381:
  3994     0FDC  2FE4               	goto	l1295
  3995     0FDD                     u1380:
  3996     0FDD                     l1291:
  3997     0FDD  0822               	movf	___awdiv@divisor,w
  3998     0FDE  02A4               	subwf	___awdiv@dividend,f
  3999     0FDF  0823               	movf	___awdiv@divisor+1,w
  4000     0FE0  1C03               	skipc
  4001     0FE1  03A5               	decf	___awdiv@dividend+1,f
  4002     0FE2  02A5               	subwf	___awdiv@dividend+1,f
  4003     0FE3                     l1293:
  4004     0FE3  1428               	bsf	___awdiv@quotient,0
  4005     0FE4                     l1295:
  4006     0FE4  3001               	movlw	1
  4007     0FE5                     u1395:
  4008     0FE5  1003               	clrc
  4009     0FE6  0CA3               	rrf	___awdiv@divisor+1,f
  4010     0FE7  0CA2               	rrf	___awdiv@divisor,f
  4011     0FE8  3EFF               	addlw	-1
  4012     0FE9  1D03               	skipz
  4013     0FEA  2FE5               	goto	u1395
  4014     0FEB                     l1297:
  4015     0FEB  3001               	movlw	1
  4016     0FEC  02A6               	subwf	___awdiv@counter,f
  4017     0FED  1D03               	btfss	3,2
  4018     0FEE  2FF0               	goto	u1401
  4019     0FEF  2FF1               	goto	u1400
  4020     0FF0                     u1401:
  4021     0FF0  2FCC               	goto	l1289
  4022     0FF1                     u1400:
  4023     0FF1                     l1299:
  4024     0FF1  0827               	movf	___awdiv@sign,w
  4025     0FF2  1903               	btfsc	3,2
  4026     0FF3  2FF5               	goto	u1411
  4027     0FF4  2FF6               	goto	u1410
  4028     0FF5                     u1411:
  4029     0FF5  2FFB               	goto	l1303
  4030     0FF6                     u1410:
  4031     0FF6                     l1301:
  4032     0FF6  09A8               	comf	___awdiv@quotient,f
  4033     0FF7  09A9               	comf	___awdiv@quotient+1,f
  4034     0FF8  0AA8               	incf	___awdiv@quotient,f
  4035     0FF9  1903               	skipnz
  4036     0FFA  0AA9               	incf	___awdiv@quotient+1,f
  4037     0FFB                     l1303:
  4038     0FFB  0829               	movf	___awdiv@quotient+1,w
  4039     0FFC  00A3               	movwf	?___awdiv+1
  4040     0FFD  0828               	movf	___awdiv@quotient,w
  4041     0FFE  00A2               	movwf	?___awdiv
  4042     0FFF                     l322:
  4043     0FFF  0008               	return
  4044     1000                     __end_of___awdiv:
  4045                           
  4046                           	psect	text14
  4047     0E8F                     __ptext14:	
  4048 ;; *************** function _ADCConversion *****************
  4049 ;; Defined at:
  4050 ;;		line 106 in file "main.c"
  4051 ;; Parameters:    Size  Location     Type
  4052 ;;		None
  4053 ;; Auto vars:     Size  Location     Type
  4054 ;;		None
  4055 ;; Return value:  Size  Location     Type
  4056 ;;                  1    wreg      void 
  4057 ;; Registers used:
  4058 ;;		wreg
  4059 ;; Tracked objects:
  4060 ;;		On entry : 0/0
  4061 ;;		On exit  : 0/0
  4062 ;;		Unchanged: 0/0
  4063 ;; Data sizes:     COMMON   BANK0   BANK1   BANK3   BANK2
  4064 ;;      Params:         0       0       0       0       0
  4065 ;;      Locals:         0       0       0       0       0
  4066 ;;      Temps:          2       0       0       0       0
  4067 ;;      Totals:         2       0       0       0       0
  4068 ;;Total ram usage:        2 bytes
  4069 ;; Hardware stack levels used: 1
  4070 ;; This function calls:
  4071 ;;		Nothing
  4072 ;; This function is called by:
  4073 ;;		Interrupt level 1
  4074 ;; This function uses a non-reentrant model
  4075 ;;
  4076                           
  4077     0E8F                     _ADCConversion:	
  4078                           ;psect for function _ADCConversion
  4079                           
  4080     0E8F                     i1l1821:
  4081     0E8F  1283               	bcf	3,5	;RP0=0, select bank0
  4082     0E90  1303               	bcf	3,6	;RP1=0, select bank0
  4083     0E91  1F0C               	btfss	12,6	;volatile
  4084     0E92  2E94               	goto	u254_21
  4085     0E93  2E95               	goto	u254_20
  4086     0E94                     u254_21:
  4087     0E94  2E9E               	goto	i1l83
  4088     0E95                     u254_20:
  4089     0E95                     i1l1823:
  4090     0E95  081E               	movf	30,w	;volatile
  4091     0E96  00D3               	movwf	_adc+1
  4092     0E97  1683               	bsf	3,5	;RP0=1, select bank1
  4093     0E98  1303               	bcf	3,6	;RP1=0, select bank1
  4094     0E99  081E               	movf	30,w	;volatile
  4095     0E9A  1283               	bcf	3,5	;RP0=0, select bank0
  4096     0E9B  1303               	bcf	3,6	;RP1=0, select bank0
  4097     0E9C  00D2               	movwf	_adc
  4098     0E9D                     i1l1825:
  4099     0E9D  130C               	bcf	12,6	;volatile
  4100     0E9E                     i1l83:
  4101     0E9E  0871               	movf	??_ADCConversion+1,w
  4102     0E9F  008A               	movwf	10
  4103     0EA0  0E70               	swapf	??_ADCConversion,w
  4104     0EA1  0083               	movwf	3
  4105     0EA2  0EFE               	swapf	btemp,f
  4106     0EA3  0E7E               	swapf	btemp,w
  4107     0EA4  0009               	retfie
  4108     0EA5                     __end_of_ADCConversion:
  4109     007E                     btemp	set	126	;btemp
  4110     007E                     wtemp0	set	126
  4111                           
  4112                           	psect	intentry
  4113     0004                     __pintentry:	
  4114                           ;incstack = 0
  4115                           ; Regs used in _ADCConversion: [wreg]
  4116                           
  4117     0004                     interrupt_function:
  4118     007E                     saved_w	set	btemp
  4119     0004  00FE               	movwf	btemp
  4120     0005  0E03               	swapf	3,w
  4121     0006  00F0               	movwf	??_ADCConversion
  4122     0007  080A               	movf	10,w
  4123     0008  00F1               	movwf	??_ADCConversion+1
  4124     0009  120A  158A  2E8F   	ljmp	_ADCConversion
  4125                           
  4126                           	psect	config
  4127                           
  4128                           ;Config register CONFIG @ 0x2007
  4129                           ;	Oscillator Selection bits
  4130                           ;	FOSC = HS, HS oscillator
  4131                           ;	Watchdog Timer Enable bit
  4132                           ;	WDTE = OFF, WDT disabled
  4133                           ;	Power-up Timer Enable bit
  4134                           ;	PWRTE = OFF, PWRT disabled
  4135                           ;	Brown-out Reset Enable bit
  4136                           ;	BOREN = OFF, BOR disabled
  4137                           ;	Low-Voltage (Single-Supply) In-Circuit Serial Programming Enable bit
  4138                           ;	LVP = ON, RB3/PGM pin has PGM function; low-voltage programming enabled
  4139                           ;	Data EEPROM Memory Code Protection bit
  4140                           ;	CPD = OFF, Data EEPROM code protection off
  4141                           ;	Flash Program Memory Write Enable bits
  4142                           ;	WRT = OFF, Write protection off; all program memory may be written to by EECON control
  4143                           ;	In-Circuit Debugger Mode bit
  4144                           ;	DEBUG = 0x1, unprogrammed default
  4145                           ;	Flash Program Memory Code Protection bit
  4146                           ;	CP = OFF, Code protection off
  4147     2007                     	org	8199
  4148     2007  3FBA               	dw	16314

Data Sizes:
    Strings     14
    Constant    0
    Data        0
    BSS         22
    Persistent  0
    Stack       0

Auto Spaces:
    Space          Size  Autos    Used
    COMMON           14     10      12
    BANK0            80     32      52
    BANK1            80      0       0
    BANK3            96      0       0
    BANK2            96      0       0

Pointer List with Targets:

    lcd_string@str	PTR const unsigned char  size(1) Largest target is 14
		 -> STR_1(CODE[14]), 


Critical Paths under _main in COMMON

    _main->___fltol
    _main->___xxtofl
    _lcd_string->_lcd_data
    _lcd_initialize->_lcd_command
    ___flmul->__Umul8_16
    ___fldiv->___xxtofl
    ___awmod->___fltol
    ___awdiv->___fltol

Critical Paths under _ADCConversion in COMMON

    None.

Critical Paths under _main in BANK0

    _main->___fldiv
    ___flmul->__Umul8_16
    ___fldiv->___xxtofl
    ___awmod->___fltol
    ___awdiv->___fltol

Critical Paths under _ADCConversion in BANK0

    None.

Critical Paths under _main in BANK1

    None.

Critical Paths under _ADCConversion in BANK1

    None.

Critical Paths under _main in BANK3

    None.

Critical Paths under _ADCConversion in BANK3

    None.

Critical Paths under _main in BANK2

    None.

Critical Paths under _ADCConversion in BANK2

    None.

Call Graph Tables:

 ---------------------------------------------------------------------------------
 (Depth) Function   	        Calls       Base Space   Used Autos Params    Refs
 ---------------------------------------------------------------------------------
 (0) _main                                                 0     0      0    7657
                            ___awdiv
                            ___awmod
                            ___fldiv
                            ___flmul
                            ___fltol
                            ___lwdiv
                            ___lwmod
                           ___xxtofl
                        _lcd_command
                           _lcd_data
                     _lcd_initialize
                         _lcd_string
 ---------------------------------------------------------------------------------
 (1) _lcd_string                                           3     2      1     221
                                              5 COMMON     3     2      1
                           _lcd_data
 ---------------------------------------------------------------------------------
 (2) _lcd_data                                             3     3      0      22
                                              2 COMMON     3     3      0
 ---------------------------------------------------------------------------------
 (1) _lcd_initialize                                       0     0      0      22
                        _lcd_command
 ---------------------------------------------------------------------------------
 (2) _lcd_command                                          3     3      0      22
                                              2 COMMON     3     3      0
 ---------------------------------------------------------------------------------
 (1) ___xxtofl                                            14    10      4     398
                                              2 COMMON     8     4      4
                                              0 BANK0      6     6      0
 ---------------------------------------------------------------------------------
 (1) ___lwmod                                              5     1      4     463
                                              2 COMMON     5     1      4
 ---------------------------------------------------------------------------------
 (1) ___lwdiv                                              7     3      4     466
                                              2 COMMON     7     3      4
 ---------------------------------------------------------------------------------
 (1) ___fltol                                             10     6      4     517
                                              2 COMMON     8     4      4
                                              0 BANK0      2     2      0
 ---------------------------------------------------------------------------------
 (1) ___flmul                                             26    18      8    3353
                                              5 BANK0     26    18      8
                          __Umul8_16
 ---------------------------------------------------------------------------------
 (2) __Umul8_16                                            9     7      2     980
                                              2 COMMON     4     2      2
                                              0 BANK0      5     5      0
 ---------------------------------------------------------------------------------
 (1) ___fldiv                                             26    18      8    1273
                                              6 BANK0     26    18      8
                           ___xxtofl (ARG)
 ---------------------------------------------------------------------------------
 (1) ___awmod                                              6     2      4     448
                                              2 BANK0      6     2      4
                            ___fltol (ARG)
 ---------------------------------------------------------------------------------
 (1) ___awdiv                                              8     4      4     452
                                              2 BANK0      8     4      4
                            ___fltol (ARG)
 ---------------------------------------------------------------------------------
 Estimated maximum stack depth 2
 ---------------------------------------------------------------------------------
 (Depth) Function   	        Calls       Base Space   Used Autos Params    Refs
 ---------------------------------------------------------------------------------
 (3) _ADCConversion                                        2     2      0       0
                                              0 COMMON     2     2      0
 ---------------------------------------------------------------------------------
 Estimated maximum stack depth 3
 ---------------------------------------------------------------------------------

 Call Graph Graphs:

 _main (ROOT)
   ___awdiv
     ___fltol (ARG)
   ___awmod
     ___fltol (ARG)
   ___fldiv
     ___xxtofl (ARG)
   ___flmul
     __Umul8_16
   ___fltol
   ___lwdiv
   ___lwmod
   ___xxtofl
   _lcd_command
   _lcd_data
   _lcd_initialize
     _lcd_command
   _lcd_string
     _lcd_data

 _ADCConversion (ROOT)

 Address spaces:
Name               Size   Autos  Total    Cost      Usage
BITCOMMON            E      0       0       0        0.0%
EEDATA             100      0       0       0        0.0%
NULL                 0      0       0       0        0.0%
CODE                 0      0       0       0        0.0%
COMMON               E      A       C       1       85.7%
BITSFR0              0      0       0       1        0.0%
SFR0                 0      0       0       1        0.0%
BITSFR1              0      0       0       2        0.0%
SFR1                 0      0       0       2        0.0%
STACK                0      0       0       2        0.0%
ABS                  0      0      40       3        0.0%
BITBANK0            50      0       0       4        0.0%
BITSFR3              0      0       0       4        0.0%
SFR3                 0      0       0       4        0.0%
BANK0               50     20      34       5       65.0%
BITSFR2              0      0       0       5        0.0%
SFR2                 0      0       0       5        0.0%
BITBANK1            50      0       0       6        0.0%
BANK1               50      0       0       7        0.0%
BITBANK3            60      0       0       8        0.0%
BANK3               60      0       0       9        0.0%
BITBANK2            60      0       0      10        0.0%
BANK2               60      0       0      11        0.0%
DATA                 0      0      40      12        0.0%


Microchip Technology PIC Macro Assembler V2.45 build 20230818022343 
Symbol Table                                                                                   Sun May 26 21:57:18 2024

           ___fldiv@aexp 003F             ___fldiv@bexp 003E                        _a 0050  
                      _b 007A                        _c 004E                        _d 004C  
                      _e 004A                        _f 0048                        pc 0002  
           lcd_data@data 0074             ___fldiv@sign 0037                       l65 0EBD  
                     l74 0ED8                       l68 0E8E                       l77 0E79  
           ___awdiv@sign 0027                       fsr 0004      __Umul8_16@word_mpld 0022  
                    l322 0FFF                      l335 0F96                      l370 0792  
                    l610 069A                      l363 07A7                      l612 072F  
                    l373 07A7                      l542 04AB                      l526 03B9  
                    l623 06F9                      l528 0531                      l624 0705  
                    l449 07EB                      l459 0F3B                      l548 051D  
                    l572 02D2                      l566 0362                      l585 0EEF  
                    l587 0F01                      _adc 0052                      fsr0 0004  
                    indf 0000             ___awmod@sign 0027             ___flmul@aexp 0033  
           ___flmul@bexp 0038             ___flmul@sign 0032             ___flmul@temp 003D  
           ___flmul@prod 0039             ___fltol@exp1 0021                     l2001 0325  
                   l2011 0350                     l2003 0334                     l1301 0FF6  
                   l2013 0351                     l2005 033E                     l2021 0532  
                   l1303 0FFB                     l1311 0F43                     l2007 0340  
                   l2015 0356                     l1231 0E76                     l2031 0542  
                   l2023 0537                     l1321 0F59                     l1313 0F48  
                   l2017 035A                     l2009 034C                     l1401 07DA  
                   l1233 0E7B                     l2041 0553                     l2033 0543  
                   l2025 053F                     l1331 0F75                     l1323 0F5C  
                   l1315 0F4A                     l1307 0F3C                     l1403 07E1  
                   l1411 0F08                     l1227 0E66                     l1235 0E80  
                   l2051 05CE                     l2043 055B                     l2035 0544  
                   l2027 0540                     l1341 0F92                     l1333 0F7B  
                   l1325 0F63                     l1317 0F4E                     l1309 0F3F  
                   l1501 042F                     l1405 07E7                     l1421 0F24  
                   l1413 0F0B                     l1229 0E6B                     l1253 0EA5  
                   l1237 0E8B                     l1261 0ED2                     l2061 063C  
                   l2053 05F0                     l2045 0560                     l2037 0548  
                   l2029 0541                     l1271 0FA5                     l1263 0F97  
                   l1335 0F82                     l1327 0F67                     l1319 0F53  
                   l1511 045A                     l1503 0430                     l1431 0363  
                   l1423 0F2A                     l1415 0F12                     l1255 0EBF  
                   l2071 0663                     l2063 0642                     l2055 0603  
                   l2047 058D                     l2039 054D                     l1281 0FBA  
                   l1273 0FA9                     l1265 0F9A                     l1329 0F6B  
                   l1337 0F88                     l1521 0477                     l1505 0439  
                   l1513 045E                     l1441 0376                     l1433 0368  
                   l1425 0F31                     l1417 0F16                     l1409 0F02  
                   l1257 0EC1                     l2073 066C                     l2065 064B  
                   l2057 0616                     l2049 05AC                     l1291 0FDD  
                   l1283 0FBD                     l1275 0FAE                     l1267 0F9E  
                   l1339 0F8D                     l1531 048F                     l1523 047B  
                   l1515 0464                     l1507 044B                     l1451 038E  
                   l1443 037B                     l1435 036C                     l1419 0F1A  
                   l1427 0F37                     l1259 0ECE                     l2067 0654  
                   l2059 0629                     l1293 0FE3                     l1285 0FC4  
                   l1277 0FB2                     l1269 0FA3                     l1541 04B0  
                   l1533 0490                     l1525 047C                     l1517 046C  
                   l1509 044C                     l1461 03A1                     l1453 0393  
                   l1445 0383                     l1437 0370                     l2069 065A  
                   l1295 0FE4                     l1287 0FC8                     l1279 0FB4  
                   l1543 04B5                     l1551 04E6                     l1535 0494  
                   l1527 0485                     l1519 046E                     l1471 03C1  
                   l1463 03A6                     l1455 0397                     l1447 0384  
                   l1439 0371                     l1391 07BA                     l1383 07A8  
                   l1297 0FEB                     l1289 0FCC                     l1561 051C  
                   l1553 04F3                     l1545 04C3                     l1537 04A8  
                   l1529 048B                     l1481 03DF                     l1473 03CD  
                   l1465 03AE                     l1457 039B                     l1449 0386  
                   l1393 07BE                     l1385 07AA                     l1721 067E  
                   l1299 0FF1                     l1563 0521                     l1555 0501  
                   l1547 04C7                     l1491 040A                     l1475 03D1  
                   l1467 03AF                     l1459 039C                     l1395 07C2  
                   l1387 07B0                     l1731 06AB                     l1723 0682  
                   l1565 0525                     l1557 0510                     l1549 04E0  
                   l1493 0412                     l1485 03E8                     l1469 03B1  
                   l1901 0051                     l1397 07D3                     l1389 07B3  
                   l1741 06C6                     l1733 06AE                     l1725 0692  
                   l1567 0527                     l1559 0514                     l1495 0414  
                   l1487 03FA                     l1479 03DA                     l1831 0EE5  
                   l1911 0068                     l1903 0055                     l1399 07D9  
                   l1751 06F3                     l1743 06D4                     l1735 06B2  
                   l1727 06A2                     l1719 0679                     l1569 052B  
                   l1497 0419                     l1489 0402                     l1833 0EE9  
                   l1913 006A                     l1905 0056                     l1841 0730  
                   l1761 0726                     l1753 06FD                     l1745 06DD  
                   l1737 06BB                     l1499 042B                     l1835 0EF8  
                   l1827 0EDC                     l1931 00D7                     l1923 0085  
                   l1915 0072                     l1907 005B                     l1851 0758  
                   l1843 073B                     l1763 0727                     l1755 0707  
                   l1747 06E4                     l1739 06C2                     l1837 0EFD  
                   l1829 0EDE                     l1941 0150                     l1933 0101  
                   l1925 0093                     l1917 0077                     l1909 0060  
                   l1853 0760                     l1757 071D                     l1749 06EF  
                   l1951 01CC                     l1943 016D                     l1935 011D  
                   l1927 00A0                     l1919 007C                     l1863 076E  
                   l1855 0762                     l1847 0744                     l1759 0722  
                   l1961 027E                     l1953 01F7                     l1945 017B  
                   l1937 0139                     l1929 00BB                     l1881 0023  
                   l1873 0787                     l1865 0777                     l1857 0766  
                   l1849 0757                     l1971 02A3                     l1963 0287  
                   l1955 0205                     l1947 0198                     l1939 0142  
                   l1891 0036                     l1883 0027                     l1875 0797  
                   l1867 0780                     l1981 02BB                     l1973 02AC  
                   l1965 0295                     l1957 0230                     l1949 01AF  
                   l1893 003E                     l1885 002B                     l1877 079C  
                   l1991 02EA                     l1983 02CF                     l1967 029E  
                   l1975 02B2                     l1959 0256                     l1895 0040  
                   l1887 002C                     l1879 001E                     l1993 02EE  
                   l1977 02B6                     l1969 02A2                     l1897 0048  
                   l1889 0031                     l1995 0307                     l1987 02D7  
                   l1979 02B7                     l1899 004D                     l1989 02DC  
                   l1997 030D                     l1999 031A                     STR_1 07F2  
                   u2000 04F3                     u2001 04F2                     u2010 0510  
                   u2011 050F                     u2020 0525                     u2021 0524  
                   u2005 04EF                     u1310 0ED8                     u2015 050C  
                   u1311 0ED7                     u1400 0FF1                     u1320 0F9E  
                   u3000 02EE                     u1401 0FF0                     u1321 0F9D  
                   u3001 02ED                     u1410 0FF6                     u1330 0FA9  
                   u3010 02FD                     u1411 0FF5                     u1331 0FA8  
                   u1340 0FBA                     u1500 0F8D                     u1420 0F43  
                   u3020 031A                     u1341 0FB9                     u1501 0F8C  
                   u1421 0F42                     u3021 0319                     u1430 0F4E  
                   u3030 0334                     u1431 0F4D                     u3031 0333  
                   u3015 02F8                     u1360 0FCC                     u1440 0F59  
                   u3040 0350                     u2400 067E                     u1361 0FCB  
                   u1441 0F58                     u3041 034F                     u3025 0316  
                   u2401 067D                     u1610 07B0                     u2410 0682  
                   u1355 0FBE                     u3035 0330                     u1611 07AF  
                   u2411 0681                     u1380 0FDD                     u1460 0F6B  
                   u1700 0F1A                     u2500 06FD                     u2420 06A2  
                   u1381 0FDC                     u1461 0F6A                     u1701 0F19  
                   u2501 06FC                     u2421 06A1                     u1470 0F75  
                   u1630 07C2                     u1710 0F24                     u2510 0712  
                   u1375 0FCD                     u1471 0F74                     u1455 0F5D  
                   u1631 07C1                     u1711 0F23                     u1800 03C1  
                   u2600 0766                     u2520 0722                     u2440 06C1  
                   u1385 0FD9                     u1801 03C0                     u2601 0765  
                   u1625 07B4                     u2521 0721                     u2441 06C0  
                   u3057 0E86                     u1490 0F88                     u1810 03DF  
                   u2610 076D                     u1650 07D3                     u1730 0F37  
                   u2530 0726                     u1395 0FE5                     u1491 0F87  
                   u1475 0F71                     u1811 03DE                     u2611 076C  
                   u1651 07D2                     u1731 0F36                     u1715 0F20  
                   u2531 0725                     u2515 070D                     u2435 06B3  
                   u3067 0E71                     u1820 0419                     u1740 0370  
                   u2700 0036                     u2460 06E3                     u1485 0F7C  
                   u1821 0418                     u1741 036F                     u2701 0035  
                   u1645 07C3                     u1725 0F2B                     u2461 06E2  
                   u1910 047B                     u1750 0376                     u2550 0EE9  
                   u2710 0055                     u2630 077F                     u1670 07E7  
                   u1911 047A                     u1751 0375                     u2551 0EE8  
                   u2711 0054                     u2631 077E                     u1671 07E6  
                   u1655 07CF                     u2455 06D5                     u1760 037B  
                   u2720 005B                     u2640 0786                     u1680 0F08  
                   u2480 06F3                     u1905 0470                     u1761 037A  
                   u2721 005A                     u2641 0785                     u2625 076F  
                   u1665 07DB                     u1681 0F07                     u2481 06F2  
                   u1930 048F                     u1850 042F                     u1770 039B  
                   u2570 0EFD                     u2730 0060                     u2490 06F9  
                   u1931 048E                     u1851 042E                     u1835 041B  
                   u1771 039A                     u2571 0EFC                     u2811 015F  
                   u2731 005F                     u2491 06F8                     u2475 06E8  
                   u1940 0494                     u1780 03A1                     u2812 0166  
                   u2740 0077                     u2660 0797                     u2580 073B  
                   u1941 0493                     u1925 047E                     u1845 0424  
                   u1781 03A0                     u2565 0EF0                     u2901 0270  
                   u2821 018A                     u2813 016D                     u2805 013B  
                   u2741 0076                     u2661 0796                     u2581 073A  
                   u1950 04A8                     u1870 044B                     u1790 03A6  
                   u2902 0277                     u2822 0191                     u2750 007C  
                   u2670 079C                     u2590 0752                     u1951 04A7  
                   u1871 044A                     u1791 03A5                     u2903 027E  
                   u2823 0198                     u2751 007B                     u2671 079B  
                   u2655 0789                     u1695 0F0C                     u1960 04AF  
                   u1880 0464                     u2680 002B                     u1961 04AE  
                   u1881 0463                     u1865 0432                     u2841 01BE  
                   u2761 00C9                     u2681 002A                     u1970 04B5  
                   u1890 046C                     u2930 02A2                     u2842 01C5  
                   u2762 00D0                     u2690 0031                     u1971 04B4  
                   u1891 046B                     u1875 0447                     u2931 02A1  
                   u2915 0280                     u2851 01E9                     u2843 01CC  
                   u2835 019A                     u2771 00E5                     u2763 00D7  
                   u2691 0030                     u2595 074D                     u1980 04C7  
                   u2852 01F0                     u2772 00EC                     u1981 04C6  
                   u2925 0297                     u2861 0214                     u2853 01F7  
                   u2781 010F                     u2773 00F3                     u1990 04D6  
                   u2950 02B6                     u2870 023C                     u2862 021B  
                   u2782 0116                     u2951 02B5                     u2863 0222  
                   u2791 012B                     u2783 011D                     u2960 02BB  
                   u2792 0132                     u2961 02BA                     u2945 02A5  
                   u2881 0248                     u2793 0139                     u2970 02CF  
                   u2890 0264                     u2882 024F                     u1995 04D1  
                   u2971 02CE                     u2883 0256                     u2875 0237  
                   u2980 02D6                     u2981 02D5                     u2990 02DC  
                   u2991 02DB                     u2895 025F                     i1l83 0E9E  
                   _main 0532                     btemp 007E                     start 000C  
            lcd_string@i 0077          ___fldiv@new_exp 0038            ___fltol@sign1 0020  
                  ?_main 0070          __end_of___fldiv 0532          __end_of___awdiv 1000  
        __end_of___awmod 0F97          __end_of___flmul 0363          __end_of___fltol 07A8  
        ___awdiv@divisor 0022          __end_of___lwdiv 07EC          __end_of___lwmod 0F3C  
        ___awdiv@counter 0026                    _PORTC 0007                    _PORTD 0008  
                  _TRISC 0087                    _TRISD 0088                    pclath 000A  
                  status 0003                    wtemp0 007E          __initialization 000F  
           __end_of_main 0676                   ??_main 007A           lcd_command@cmd 0074  
                 _ADCON0 001F                   _ADCON1 009F                   _ADRESH 001E  
                 _ADRESL 009E         ___awdiv@dividend 0024                   i1l1821 0E8F  
                 i1l1823 0E95                   i1l1825 0E9D                   u254_20 0E95  
                 u254_21 0E94         __end_of___xxtofl 0730         __end_of_lcd_data 0E8F  
              ??___fldiv 002E                ??___awdiv 007A                ??___awmod 007A  
              ??___flmul 002D                ??___fltol 0076                ??___lwdiv 0076  
          _ADCConversion 0E8F                ??___lwmod 0076         ___awdiv@quotient 0028  
        ___awmod@divisor 0022          ___awmod@counter 0026                   saved_w 007E  
       ??_lcd_initialize 0075            lcd_string@len 0075             ___xxtofl@arg 0022  
          lcd_string@str 0076             ___xxtofl@exp 0021             ___xxtofl@val 0072  
__end_of__initialization 001A               ___fltol@f1 0072           __pcstackCOMMON 0070  
         ?_ADCConversion 0070               __pbssBANK0 0040        __end_of__Umul8_16 0F02  
             __pmaintext 0532               __pintentry 0004                ?___xxtofl 0072  
              ?_lcd_data 0070               _lcd_string 0EBE               __stringtab 07EC  
        ??_ADCConversion 0070                  ___fldiv 0363                  ___awdiv 0F97  
                ___awmod 0F3C                  ___flmul 001E                  ___fltol 0730  
                ___lwdiv 07A8                  ___lwmod 0F02                  __ptext1 0EBE  
                __ptext2 0E7A                  __ptext3 0EA5                  __ptext4 0E65  
                __ptext5 0676                  __ptext6 0F02                  __ptext7 07A8  
                __ptext8 0730                  __ptext9 001E               ??___xxtofl 0076  
       ___awmod@dividend 0024               ??_lcd_data 0072                  clrloop0 0E5E  
   end_of_initialization 001A                _PORTBbits 0006            ___xxtofl@sign 0020  
              _TRISBbits 0086              ___fldiv@grs 003A              ___fldiv@rem 0033  
            ?_lcd_string 0075              ___flmul@grs 0034            ??_lcd_command 0072  
           _convertedAdc 0044      start_initialization 000F      __end_of_lcd_command 0E7A  
              __Umul8_16 0ED9                ___fldiv@a 0026                ___fldiv@b 002A  
              ___flmul@a 0029                ___flmul@b 0025              __pbssCOMMON 007A  
              ___latbits 0002            __pcstackBANK0 0020         ___lwdiv@dividend 0074  
               ?___fldiv 0026                 ?___awdiv 0022                 ?___awmod 0022  
               ?___flmul 0025                 ?___fltol 0072               ?__Umul8_16 0072  
               ?___lwdiv 0072                 ?___lwmod 0072                __pstrings 07EC  
       ___lwdiv@quotient 0076        interrupt_function 0004                clear_ram0 0E5D  
               _PIE1bits 008C              _lcd_command 0E65                 _PIR1bits 000C  
  __end_of_ADCConversion 0EA5              __stringbase 07F1             ??_lcd_string 0076  
            ??__Umul8_16 0074       __end_of_lcd_string 0ED9       __end_of__stringtab 07F2  
               ___xxtofl 0676          ___lwdiv@divisor 0072          ___lwdiv@counter 0078  
               __ptext10 0ED9                 __ptext11 0363                 __ptext12 0F3C  
               __ptext13 0F97                 __ptext14 0E8F                 _lcd_data 0E7A  
         _lcd_initialize 0EA5               _INTCONbits 000B                 intlevel1 0000  
       ___lwmod@dividend 0074   __end_of_lcd_initialize 0EBE                stringcode 07EC  
 __Umul8_16@multiplicand 0072              _temperature 0040          ___lwmod@divisor 0072  
        ___lwmod@counter 0076                 stringdir 07EC                 stringtab 07EC  
        ?_lcd_initialize 0070     __Umul8_16@multiplier 0024             ?_lcd_command 0070  
      __Umul8_16@product 0020  
